ARM GAS  /tmp/ccidYgsI.s 			page 1


   1              		.cpu cortex-m3
   2              		.arch armv7-m
   3              		.fpu softvfp
   4              		.eabi_attribute 20, 1
   5              		.eabi_attribute 21, 1
   6              		.eabi_attribute 23, 3
   7              		.eabi_attribute 24, 1
   8              		.eabi_attribute 25, 1
   9              		.eabi_attribute 26, 1
  10              		.eabi_attribute 30, 1
  11              		.eabi_attribute 34, 1
  12              		.eabi_attribute 18, 4
  13              		.file	"ascii_proto_funcs.c"
  14              		.text
  15              	.Ltext0:
  16              		.cfi_sections	.debug_frame
  17              		.file 1 "src/ascii_proto_funcs.c"
  18              		.section	.rodata.immediate_dir.str1.4,"aMS",%progbits,1
  19              		.align	2
  20              	.LC0:
  21 0000 77616E74 		.ascii	"wanted_posn now %ldmm %ldmm\015\012\000"
  21      65645F70 
  21      6F736E20 
  21      6E6F7720 
  21      256C646D 
  22              		.global	__aeabi_i2d
  23              		.global	__aeabi_dmul
  24              		.global	__aeabi_dsub
  25              		.global	__aeabi_dcmpgt
  26              		.global	__aeabi_dcmplt
  27              		.global	__aeabi_d2iz
  28              		.global	__aeabi_dadd
  29 001e 0000     		.align	2
  30              	.LC1:
  31 0020 73706565 		.ascii	"speed now %d, steer now %d, speedL %ld, speedR %ld\015"
  31      64206E6F 
  31      77202564 
  31      2C207374 
  31      65657220 
  32 0053 0A00     		.ascii	"\012\000"
  33 0055 000000   		.align	2
  34              	.LC2:
  35 0058 73706565 		.ascii	"speed now %d, steer now %d, pwm %ld, pwm %ld\015\012"
  35      64206E6F 
  35      77202564 
  35      2C207374 
  35      65657220 
  36 0086 00       		.ascii	"\000"
  37 0087 00       		.align	2
  38              	.LC3:
  39 0088 73706565 		.ascii	"speed now %d, steer now %d, pwm %d->%ld, pwm %d->%l"
  39      64206E6F 
  39      77202564 
  39      2C207374 
  39      65657220 
  40 00bb 640D0A00 		.ascii	"d\015\012\000"
  41              		.section	.text.immediate_dir,"ax",%progbits
ARM GAS  /tmp/ccidYgsI.s 			page 2


  42              		.align	1
  43              		.global	immediate_dir
  44              		.syntax unified
  45              		.thumb
  46              		.thumb_func
  48              	immediate_dir:
  49              	.LVL0:
  50              	.LFB66:
   1:src/ascii_proto_funcs.c **** /*
   2:src/ascii_proto_funcs.c **** * This file is part of the hoverboard-firmware-hack project.
   3:src/ascii_proto_funcs.c **** *
   4:src/ascii_proto_funcs.c **** * Copyright (C) 2018 Simon Hailes <btsimonh@googlemail.com>
   5:src/ascii_proto_funcs.c **** *
   6:src/ascii_proto_funcs.c **** * This program is free software: you can redistribute it and/or modify
   7:src/ascii_proto_funcs.c **** * it under the terms of the GNU General Public License as published by
   8:src/ascii_proto_funcs.c **** * the Free Software Foundation, either version 3 of the License, or
   9:src/ascii_proto_funcs.c **** * (at your option) any later version.
  10:src/ascii_proto_funcs.c **** *
  11:src/ascii_proto_funcs.c **** * This program is distributed in the hope that it will be useful,
  12:src/ascii_proto_funcs.c **** * but WITHOUT ANY WARRANTY; without even the implied warranty of
  13:src/ascii_proto_funcs.c **** * MERCHANTABILITY or FITNESS FOR A PARTICULAR PURPOSE.  See the
  14:src/ascii_proto_funcs.c **** * GNU General Public License for more details.
  15:src/ascii_proto_funcs.c **** *
  16:src/ascii_proto_funcs.c **** * You should have received a copy of the GNU General Public License
  17:src/ascii_proto_funcs.c **** * along with this program.  If not, see <http://www.gnu.org/licenses/>.
  18:src/ascii_proto_funcs.c **** */
  19:src/ascii_proto_funcs.c **** 
  20:src/ascii_proto_funcs.c **** #include "stm32f1xx_hal.h"
  21:src/ascii_proto_funcs.c **** #include "defines.h"
  22:src/ascii_proto_funcs.c **** #include "config.h"
  23:src/ascii_proto_funcs.c **** 
  24:src/ascii_proto_funcs.c **** 
  25:src/ascii_proto_funcs.c **** #ifdef CONTROL_SENSOR
  26:src/ascii_proto_funcs.c ****     #include "sensorcoms.h"
  27:src/ascii_proto_funcs.c **** #endif
  28:src/ascii_proto_funcs.c **** #include "protocolfunctions.h"
  29:src/ascii_proto_funcs.c **** #include "protocol.h"
  30:src/ascii_proto_funcs.c **** #include "hallinterrupts.h"
  31:src/ascii_proto_funcs.c **** #ifdef SOFTWARE_SERIAL
  32:src/ascii_proto_funcs.c ****     #include "softwareserial.h"
  33:src/ascii_proto_funcs.c **** #endif
  34:src/ascii_proto_funcs.c **** #include "bldc.h"
  35:src/ascii_proto_funcs.c **** #include "flashcontent.h"
  36:src/ascii_proto_funcs.c **** #include "flashaccess.h"
  37:src/ascii_proto_funcs.c **** #include "comms.h"
  38:src/ascii_proto_funcs.c **** 
  39:src/ascii_proto_funcs.c **** #include <string.h>
  40:src/ascii_proto_funcs.c **** #include <stdlib.h>
  41:src/ascii_proto_funcs.c **** #include <stdio.h>
  42:src/ascii_proto_funcs.c **** #include "control_structures.h"
  43:src/ascii_proto_funcs.c **** 
  44:src/ascii_proto_funcs.c **** 
  45:src/ascii_proto_funcs.c **** //////////////////////////////////////////////////////////
  46:src/ascii_proto_funcs.c **** // from protocol.c
  47:src/ascii_proto_funcs.c **** extern int control_type;
  48:src/ascii_proto_funcs.c **** //////////////////////////////////////////////////////////
  49:src/ascii_proto_funcs.c **** 
ARM GAS  /tmp/ccidYgsI.s 			page 3


  50:src/ascii_proto_funcs.c **** 
  51:src/ascii_proto_funcs.c **** //////////////////////////////////////////////////////////
  52:src/ascii_proto_funcs.c **** //
  53:src/ascii_proto_funcs.c **** // ASCII protocol:
  54:src/ascii_proto_funcs.c **** // this accepts command sup to 10 bytes long terminated with CR.
  55:src/ascii_proto_funcs.c **** // one of these commands (I) can enable an 'immediate' mode.
  56:src/ascii_proto_funcs.c **** // In 'immediate' mode, keypresses cause immediate action;
  57:src/ascii_proto_funcs.c **** // for example, controlling speed, or getting real-time feedback.
  58:src/ascii_proto_funcs.c **** //
  59:src/ascii_proto_funcs.c **** //////////////////////////////////////////////////////////
  60:src/ascii_proto_funcs.c **** 
  61:src/ascii_proto_funcs.c **** 
  62:src/ascii_proto_funcs.c **** ///////////////////////////////////////////////
  63:src/ascii_proto_funcs.c **** // extern variables you want to read/write here
  64:src/ascii_proto_funcs.c **** #ifdef CONTROL_SENSOR
  65:src/ascii_proto_funcs.c **** extern SENSOR_DATA sensor_data[2];
  66:src/ascii_proto_funcs.c **** extern int sensor_control;
  67:src/ascii_proto_funcs.c **** extern int sensor_stabilise;
  68:src/ascii_proto_funcs.c **** #endif
  69:src/ascii_proto_funcs.c **** 
  70:src/ascii_proto_funcs.c **** // from main.c
  71:src/ascii_proto_funcs.c **** extern void change_PID_constants();
  72:src/ascii_proto_funcs.c **** 
  73:src/ascii_proto_funcs.c **** extern uint8_t enable; // global variable for motor enable
  74:src/ascii_proto_funcs.c **** extern volatile uint32_t input_timeout_counter; // global variable for input_timeout
  75:src/ascii_proto_funcs.c **** extern int dspeeds[2];
  76:src/ascii_proto_funcs.c **** extern int pwms[2];
  77:src/ascii_proto_funcs.c **** 
  78:src/ascii_proto_funcs.c **** 
  79:src/ascii_proto_funcs.c **** 
  80:src/ascii_proto_funcs.c **** extern uint8_t debug_out;
  81:src/ascii_proto_funcs.c **** extern uint8_t disablepoweroff;
  82:src/ascii_proto_funcs.c **** extern int powerofftimer;
  83:src/ascii_proto_funcs.c **** extern uint8_t buzzerFreq;    // global variable for the buzzer pitch. can be 1, 2, 3, 4, 5, 6, 7..
  84:src/ascii_proto_funcs.c **** extern uint8_t buzzerPattern; // global variable for the buzzer pattern. can be 1, 2, 3, 4, 5, 6, 7
  85:src/ascii_proto_funcs.c **** extern uint16_t buzzerLen;
  86:src/ascii_proto_funcs.c **** extern uint8_t enablescope; // enable scope on values
  87:src/ascii_proto_funcs.c **** 
  88:src/ascii_proto_funcs.c **** static int speedB = 0;
  89:src/ascii_proto_funcs.c **** static int steerB = 0;
  90:src/ascii_proto_funcs.c **** 
  91:src/ascii_proto_funcs.c **** 
  92:src/ascii_proto_funcs.c **** static char *control_types[]={
  93:src/ascii_proto_funcs.c ****     "none",
  94:src/ascii_proto_funcs.c ****     "Position",
  95:src/ascii_proto_funcs.c ****     "Speed",
  96:src/ascii_proto_funcs.c ****     "PWM Direct"
  97:src/ascii_proto_funcs.c **** };
  98:src/ascii_proto_funcs.c **** 
  99:src/ascii_proto_funcs.c **** ///////////////////////////////////////////////
 100:src/ascii_proto_funcs.c **** 
 101:src/ascii_proto_funcs.c **** 
 102:src/ascii_proto_funcs.c **** extern int protocol_post(PROTOCOL_STAT *s, PROTOCOL_MSG3full *msg);
 103:src/ascii_proto_funcs.c **** 
 104:src/ascii_proto_funcs.c **** 
 105:src/ascii_proto_funcs.c **** 
 106:src/ascii_proto_funcs.c **** int immediate_dir(PROTOCOL_STAT *s, char byte, char *ascii_out) {
ARM GAS  /tmp/ccidYgsI.s 			page 4


  51              		.loc 1 106 65 view -0
  52              		.cfi_startproc
  53              		@ args = 0, pretend = 0, frame = 8
  54              		@ frame_needed = 0, uses_anonymous_args = 0
  55              		.loc 1 106 65 is_stmt 0 view .LVU1
  56 0000 2DE9F04F 		push	{r4, r5, r6, r7, r8, r9, r10, fp, lr}
  57              	.LCFI0:
  58              		.cfi_def_cfa_offset 36
  59              		.cfi_offset 4, -36
  60              		.cfi_offset 5, -32
  61              		.cfi_offset 6, -28
  62              		.cfi_offset 7, -24
  63              		.cfi_offset 8, -20
  64              		.cfi_offset 9, -16
  65              		.cfi_offset 10, -12
  66              		.cfi_offset 11, -8
  67              		.cfi_offset 14, -4
  68 0004 87B0     		sub	sp, sp, #28
  69              	.LCFI1:
  70              		.cfi_def_cfa_offset 64
  71 0006 1446     		mov	r4, r2
 107:src/ascii_proto_funcs.c ****     int dir = 1;
  72              		.loc 1 107 5 is_stmt 1 view .LVU2
  73              	.LVL1:
 108:src/ascii_proto_funcs.c ****     switch(byte){
  74              		.loc 1 108 5 view .LVU3
  75 0008 4139     		subs	r1, r1, #65
  76              	.LVL2:
  77              		.loc 1 108 5 is_stmt 0 view .LVU4
  78 000a 3629     		cmp	r1, #54
  79 000c 61D8     		bhi	.L2
  80 000e DFE811F0 		tbh	[pc, r1, lsl #1]
  81              	.L4:
  82 0012 3A01     		.2byte	(.L22-.L4)/2
  83 0014 6000     		.2byte	(.L2-.L4)/2
  84 0016 6000     		.2byte	(.L2-.L4)/2
  85 0018 3900     		.2byte	(.L6-.L4)/2
  86 001a 6000     		.2byte	(.L2-.L4)/2
  87 001c 6000     		.2byte	(.L2-.L4)/2
  88 001e 6000     		.2byte	(.L2-.L4)/2
  89 0020 6000     		.2byte	(.L2-.L4)/2
  90 0022 6000     		.2byte	(.L2-.L4)/2
  91 0024 6000     		.2byte	(.L2-.L4)/2
  92 0026 6000     		.2byte	(.L2-.L4)/2
  93 0028 6000     		.2byte	(.L2-.L4)/2
  94 002a 6000     		.2byte	(.L2-.L4)/2
  95 002c 6000     		.2byte	(.L2-.L4)/2
  96 002e 6000     		.2byte	(.L2-.L4)/2
  97 0030 6000     		.2byte	(.L2-.L4)/2
  98 0032 6000     		.2byte	(.L2-.L4)/2
  99 0034 6000     		.2byte	(.L2-.L4)/2
 100 0036 3B00     		.2byte	(.L23-.L4)/2
 101 0038 6000     		.2byte	(.L2-.L4)/2
 102 003a 6000     		.2byte	(.L2-.L4)/2
 103 003c 6000     		.2byte	(.L2-.L4)/2
 104 003e 3700     		.2byte	(.L3-.L4)/2
 105 0040 6000     		.2byte	(.L2-.L4)/2
ARM GAS  /tmp/ccidYgsI.s 			page 5


 106 0042 6000     		.2byte	(.L2-.L4)/2
 107 0044 6000     		.2byte	(.L2-.L4)/2
 108 0046 6000     		.2byte	(.L2-.L4)/2
 109 0048 6000     		.2byte	(.L2-.L4)/2
 110 004a 6000     		.2byte	(.L2-.L4)/2
 111 004c 6000     		.2byte	(.L2-.L4)/2
 112 004e 6000     		.2byte	(.L2-.L4)/2
 113 0050 6000     		.2byte	(.L2-.L4)/2
 114 0052 3A01     		.2byte	(.L22-.L4)/2
 115 0054 6000     		.2byte	(.L2-.L4)/2
 116 0056 6000     		.2byte	(.L2-.L4)/2
 117 0058 3900     		.2byte	(.L6-.L4)/2
 118 005a 6000     		.2byte	(.L2-.L4)/2
 119 005c 6000     		.2byte	(.L2-.L4)/2
 120 005e 6000     		.2byte	(.L2-.L4)/2
 121 0060 6000     		.2byte	(.L2-.L4)/2
 122 0062 6000     		.2byte	(.L2-.L4)/2
 123 0064 6000     		.2byte	(.L2-.L4)/2
 124 0066 6000     		.2byte	(.L2-.L4)/2
 125 0068 6000     		.2byte	(.L2-.L4)/2
 126 006a 6000     		.2byte	(.L2-.L4)/2
 127 006c 6000     		.2byte	(.L2-.L4)/2
 128 006e 6000     		.2byte	(.L2-.L4)/2
 129 0070 6000     		.2byte	(.L2-.L4)/2
 130 0072 6000     		.2byte	(.L2-.L4)/2
 131 0074 6000     		.2byte	(.L2-.L4)/2
 132 0076 3B00     		.2byte	(.L23-.L4)/2
 133 0078 6000     		.2byte	(.L2-.L4)/2
 134 007a 6000     		.2byte	(.L2-.L4)/2
 135 007c 6000     		.2byte	(.L2-.L4)/2
 136 007e 3700     		.2byte	(.L3-.L4)/2
 137              		.p2align 1
 138              	.L3:
 139 0080 0121     		movs	r1, #1
 140              	.LVL3:
 141              		.loc 1 108 5 view .LVU5
 142 0082 03E0     		b	.L5
 143              	.L6:
 144 0084 0123     		movs	r3, #1
 145 0086 00E1     		b	.L7
 146              	.L23:
 109:src/ascii_proto_funcs.c ****         case 'S':
 110:src/ascii_proto_funcs.c ****         case 's':
 111:src/ascii_proto_funcs.c ****             dir = -1;
 147              		.loc 1 111 17 view .LVU6
 148 0088 4FF0FF31 		mov	r1, #-1
 149              	.L5:
 150              	.LVL4:
 112:src/ascii_proto_funcs.c ****         case 'W':
 113:src/ascii_proto_funcs.c ****         case 'w':
 114:src/ascii_proto_funcs.c ****             if (!enable) { speedB = 0; steerB = 0; }
 151              		.loc 1 114 13 is_stmt 1 view .LVU7
 152              		.loc 1 114 17 is_stmt 0 view .LVU8
 153 008c B24B     		ldr	r3, .L42+8
 154 008e 1B78     		ldrb	r3, [r3]	@ zero_extendqisi2
 155              		.loc 1 114 16 view .LVU9
 156 0090 1BB9     		cbnz	r3, .L8
ARM GAS  /tmp/ccidYgsI.s 			page 6


 157              		.loc 1 114 28 is_stmt 1 discriminator 1 view .LVU10
 158              		.loc 1 114 35 is_stmt 0 discriminator 1 view .LVU11
 159 0092 B24A     		ldr	r2, .L42+12
 160              	.LVL5:
 161              		.loc 1 114 35 discriminator 1 view .LVU12
 162 0094 1360     		str	r3, [r2]
 163              		.loc 1 114 40 is_stmt 1 discriminator 1 view .LVU13
 164              		.loc 1 114 47 is_stmt 0 discriminator 1 view .LVU14
 165 0096 B24A     		ldr	r2, .L42+16
 166 0098 1360     		str	r3, [r2]
 167              	.L8:
 115:src/ascii_proto_funcs.c ****             enable = 1;
 168              		.loc 1 115 13 is_stmt 1 view .LVU15
 169              		.loc 1 115 20 is_stmt 0 view .LVU16
 170 009a AF4B     		ldr	r3, .L42+8
 171 009c 0122     		movs	r2, #1
 172 009e 1A70     		strb	r2, [r3]
 116:src/ascii_proto_funcs.c ****             input_timeout_counter = 0;
 173              		.loc 1 116 13 is_stmt 1 view .LVU17
 174              		.loc 1 116 35 is_stmt 0 view .LVU18
 175 00a0 B04B     		ldr	r3, .L42+20
 176 00a2 0022     		movs	r2, #0
 177 00a4 1A60     		str	r2, [r3]
 117:src/ascii_proto_funcs.c **** 
 118:src/ascii_proto_funcs.c ****             switch (control_type){
 178              		.loc 1 118 13 is_stmt 1 view .LVU19
 179 00a6 B04B     		ldr	r3, .L42+24
 180 00a8 1B68     		ldr	r3, [r3]
 181 00aa 022B     		cmp	r3, #2
 182 00ac 15D0     		beq	.L9
 183 00ae 032B     		cmp	r3, #3
 184 00b0 7ED0     		beq	.L10
 185 00b2 012B     		cmp	r3, #1
 186 00b4 0DD1     		bne	.L2
 119:src/ascii_proto_funcs.c ****                 case CONTROL_TYPE_POSITION:
 120:src/ascii_proto_funcs.c ****                     PosnData.wanted_posn_mm[0] += dir * 100;
 187              		.loc 1 120 21 view .LVU20
 188              		.loc 1 120 44 is_stmt 0 view .LVU21
 189 00b6 AD48     		ldr	r0, .L42+28
 190              	.LVL6:
 191              		.loc 1 120 44 view .LVU22
 192 00b8 0268     		ldr	r2, [r0]
 193              		.loc 1 120 55 view .LVU23
 194 00ba 6423     		movs	r3, #100
 195 00bc 01FB03F3 		mul	r3, r1, r3
 196              		.loc 1 120 48 view .LVU24
 197 00c0 1A44     		add	r2, r2, r3
 198 00c2 0260     		str	r2, [r0]
 121:src/ascii_proto_funcs.c ****                     PosnData.wanted_posn_mm[1] += dir * 100;
 199              		.loc 1 121 21 is_stmt 1 view .LVU25
 200              		.loc 1 121 44 is_stmt 0 view .LVU26
 201 00c4 4168     		ldr	r1, [r0, #4]
 202              	.LVL7:
 203              		.loc 1 121 48 view .LVU27
 204 00c6 0B44     		add	r3, r3, r1
 205 00c8 4360     		str	r3, [r0, #4]
 122:src/ascii_proto_funcs.c ****                     sprintf(ascii_out, "wanted_posn now %ldmm %ldmm\r\n", PosnData.wanted_posn_mm[0
ARM GAS  /tmp/ccidYgsI.s 			page 7


 206              		.loc 1 122 21 is_stmt 1 view .LVU28
 207 00ca A949     		ldr	r1, .L42+32
 208 00cc 2046     		mov	r0, r4
 209 00ce FFF7FEFF 		bl	sprintf
 210              	.LVL8:
 123:src/ascii_proto_funcs.c ****                     break;
 211              		.loc 1 123 21 view .LVU29
 212              	.L2:
 124:src/ascii_proto_funcs.c ****                 case CONTROL_TYPE_SPEED:
 125:src/ascii_proto_funcs.c ****                     speedB += 10*dir;
 126:src/ascii_proto_funcs.c ****                     SpeedData.wanted_speed_mm_per_sec[1] = CLAMP(speedB * SPEED_COEFFICIENT -  stee
 127:src/ascii_proto_funcs.c ****                     SpeedData.wanted_speed_mm_per_sec[0] = CLAMP(speedB * SPEED_COEFFICIENT +  stee
 128:src/ascii_proto_funcs.c ****                     sprintf(ascii_out, "speed now %d, steer now %d, speedL %ld, speedR %ld\r\n", sp
 129:src/ascii_proto_funcs.c ****                     break;
 130:src/ascii_proto_funcs.c ****                 case CONTROL_TYPE_PWM:
 131:src/ascii_proto_funcs.c ****                     speedB += 10*dir;
 132:src/ascii_proto_funcs.c ****                     PWMData.pwm[1] = CLAMP(speedB * SPEED_COEFFICIENT -  steerB * STEER_COEFFICIENT
 133:src/ascii_proto_funcs.c ****                     PWMData.pwm[0] = CLAMP(speedB * SPEED_COEFFICIENT +  steerB * STEER_COEFFICIENT
 134:src/ascii_proto_funcs.c ****                     sprintf(ascii_out, "speed now %d, steer now %d, pwm %ld, pwm %ld\r\n", speedB, 
 135:src/ascii_proto_funcs.c ****                     break;
 136:src/ascii_proto_funcs.c ****             }
 137:src/ascii_proto_funcs.c ****             break;
 138:src/ascii_proto_funcs.c **** 
 139:src/ascii_proto_funcs.c ****         case 'A':
 140:src/ascii_proto_funcs.c ****         case 'a':
 141:src/ascii_proto_funcs.c ****             dir = -1;
 142:src/ascii_proto_funcs.c ****         case 'D':
 143:src/ascii_proto_funcs.c ****         case 'd':
 144:src/ascii_proto_funcs.c ****             if (!enable) { speedB = 0; steerB = 0; }
 145:src/ascii_proto_funcs.c ****             enable = 1;
 146:src/ascii_proto_funcs.c ****             input_timeout_counter = 0;
 147:src/ascii_proto_funcs.c ****             switch (control_type){
 148:src/ascii_proto_funcs.c ****                 case CONTROL_TYPE_POSITION:
 149:src/ascii_proto_funcs.c ****                     PosnData.wanted_posn_mm[0] += dir * 100;
 150:src/ascii_proto_funcs.c ****                     PosnData.wanted_posn_mm[1] -= dir * 100;
 151:src/ascii_proto_funcs.c ****                     sprintf(ascii_out, "wanted_posn now %ldmm %ldmm\r\n", PosnData.wanted_posn_mm[0
 152:src/ascii_proto_funcs.c ****                     break;
 153:src/ascii_proto_funcs.c ****                 case CONTROL_TYPE_SPEED:
 154:src/ascii_proto_funcs.c ****                     steerB += 10*dir;
 155:src/ascii_proto_funcs.c ****                     SpeedData.wanted_speed_mm_per_sec[1] = CLAMP(speedB * SPEED_COEFFICIENT -  stee
 156:src/ascii_proto_funcs.c ****                     SpeedData.wanted_speed_mm_per_sec[0] = CLAMP(speedB * SPEED_COEFFICIENT +  stee
 157:src/ascii_proto_funcs.c ****                     sprintf(ascii_out, "speed now %d, steer now %d, speedL %ld, speedR %ld\r\n", sp
 158:src/ascii_proto_funcs.c ****                     break;
 159:src/ascii_proto_funcs.c ****                 case CONTROL_TYPE_PWM:
 160:src/ascii_proto_funcs.c ****                     steerB += 10*dir;
 161:src/ascii_proto_funcs.c ****                     PWMData.pwm[1] = CLAMP(speedB * SPEED_COEFFICIENT -  steerB * STEER_COEFFICIENT
 162:src/ascii_proto_funcs.c ****                     PWMData.pwm[0] = CLAMP(speedB * SPEED_COEFFICIENT +  steerB * STEER_COEFFICIENT
 163:src/ascii_proto_funcs.c ****                     sprintf(ascii_out, "speed now %d, steer now %d, pwm %d->%ld, pwm %d->%ld\r\n", 
 164:src/ascii_proto_funcs.c ****                     break;
 165:src/ascii_proto_funcs.c ****             }
 166:src/ascii_proto_funcs.c ****             break;
 167:src/ascii_proto_funcs.c ****     }
 168:src/ascii_proto_funcs.c **** 
 169:src/ascii_proto_funcs.c ****     return 1;
 213              		.loc 1 169 5 view .LVU30
 170:src/ascii_proto_funcs.c **** }
 214              		.loc 1 170 1 is_stmt 0 view .LVU31
ARM GAS  /tmp/ccidYgsI.s 			page 8


 215 00d2 0120     		movs	r0, #1
 216 00d4 07B0     		add	sp, sp, #28
 217              	.LCFI2:
 218              		.cfi_remember_state
 219              		.cfi_def_cfa_offset 36
 220              		@ sp needed
 221 00d6 BDE8F08F 		pop	{r4, r5, r6, r7, r8, r9, r10, fp, pc}
 222              	.LVL9:
 223              	.L9:
 224              	.LCFI3:
 225              		.cfi_restore_state
 125:src/ascii_proto_funcs.c ****                     SpeedData.wanted_speed_mm_per_sec[1] = CLAMP(speedB * SPEED_COEFFICIENT -  stee
 226              		.loc 1 125 21 is_stmt 1 view .LVU32
 125:src/ascii_proto_funcs.c ****                     SpeedData.wanted_speed_mm_per_sec[1] = CLAMP(speedB * SPEED_COEFFICIENT -  stee
 227              		.loc 1 125 33 is_stmt 0 view .LVU33
 228 00da 01EB8101 		add	r1, r1, r1, lsl #2
 229              	.LVL10:
 125:src/ascii_proto_funcs.c ****                     SpeedData.wanted_speed_mm_per_sec[1] = CLAMP(speedB * SPEED_COEFFICIENT -  stee
 230              		.loc 1 125 28 view .LVU34
 231 00de 9F4B     		ldr	r3, .L42+12
 232 00e0 1D68     		ldr	r5, [r3]
 233 00e2 05EB4105 		add	r5, r5, r1, lsl #1
 234 00e6 1D60     		str	r5, [r3]
 126:src/ascii_proto_funcs.c ****                     SpeedData.wanted_speed_mm_per_sec[0] = CLAMP(speedB * SPEED_COEFFICIENT +  stee
 235              		.loc 1 126 21 is_stmt 1 view .LVU35
 126:src/ascii_proto_funcs.c ****                     SpeedData.wanted_speed_mm_per_sec[0] = CLAMP(speedB * SPEED_COEFFICIENT +  stee
 236              		.loc 1 126 60 is_stmt 0 view .LVU36
 237 00e8 2846     		mov	r0, r5
 238              	.LVL11:
 126:src/ascii_proto_funcs.c ****                     SpeedData.wanted_speed_mm_per_sec[0] = CLAMP(speedB * SPEED_COEFFICIENT +  stee
 239              		.loc 1 126 60 view .LVU37
 240 00ea FFF7FEFF 		bl	__aeabi_i2d
 241              	.LVL12:
 242 00ee 0022     		movs	r2, #0
 243 00f0 A04B     		ldr	r3, .L42+36
 244 00f2 FFF7FEFF 		bl	__aeabi_dmul
 245              	.LVL13:
 246 00f6 8246     		mov	r10, r0
 247 00f8 8B46     		mov	fp, r1
 248 00fa 994B     		ldr	r3, .L42+16
 249 00fc D3F80090 		ldr	r9, [r3]
 250 0100 4846     		mov	r0, r9
 251 0102 FFF7FEFF 		bl	__aeabi_i2d
 252              	.LVL14:
 253 0106 0022     		movs	r2, #0
 254 0108 9A4B     		ldr	r3, .L42+36
 255 010a FFF7FEFF 		bl	__aeabi_dmul
 256              	.LVL15:
 257 010e 0646     		mov	r6, r0
 258 0110 0F46     		mov	r7, r1
 259 0112 0246     		mov	r2, r0
 260 0114 0B46     		mov	r3, r1
 261 0116 5046     		mov	r0, r10
 262 0118 5946     		mov	r1, fp
 263 011a FFF7FEFF 		bl	__aeabi_dsub
 264              	.LVL16:
 265 011e 0246     		mov	r2, r0
ARM GAS  /tmp/ccidYgsI.s 			page 9


 266 0120 0B46     		mov	r3, r1
 267 0122 CDE90423 		strd	r2, [sp, #16]
 126:src/ascii_proto_funcs.c ****                     SpeedData.wanted_speed_mm_per_sec[0] = CLAMP(speedB * SPEED_COEFFICIENT +  stee
 268              		.loc 1 126 58 view .LVU38
 269 0126 0022     		movs	r2, #0
 270 0128 934B     		ldr	r3, .L42+40
 271 012a FFF7FEFF 		bl	__aeabi_dcmpgt
 272              	.LVL17:
 273 012e 68B9     		cbnz	r0, .L24
 126:src/ascii_proto_funcs.c ****                     SpeedData.wanted_speed_mm_per_sec[0] = CLAMP(speedB * SPEED_COEFFICIENT +  stee
 274              		.loc 1 126 58 discriminator 2 view .LVU39
 275 0130 87A3     		adr	r3, .L42
 276 0132 D3E90023 		ldrd	r2, [r3]
 277 0136 DDE90401 		ldrd	r0, [sp, #16]
 278 013a FFF7FEFF 		bl	__aeabi_dcmplt
 279              	.LVL18:
 280 013e 20BB     		cbnz	r0, .L25
 126:src/ascii_proto_funcs.c ****                     SpeedData.wanted_speed_mm_per_sec[0] = CLAMP(speedB * SPEED_COEFFICIENT +  stee
 281              		.loc 1 126 58 discriminator 5 view .LVU40
 282 0140 DDE90401 		ldrd	r0, [sp, #16]
 283 0144 FFF7FEFF 		bl	__aeabi_d2iz
 284              	.LVL19:
 285 0148 8046     		mov	r8, r0
 286 014a 01E0     		b	.L11
 287              	.L24:
 126:src/ascii_proto_funcs.c ****                     SpeedData.wanted_speed_mm_per_sec[0] = CLAMP(speedB * SPEED_COEFFICIENT +  stee
 288              		.loc 1 126 58 discriminator 1 view .LVU41
 289 014c 4FF47A78 		mov	r8, #1000
 290              	.L11:
 126:src/ascii_proto_funcs.c ****                     SpeedData.wanted_speed_mm_per_sec[0] = CLAMP(speedB * SPEED_COEFFICIENT +  stee
 291              		.loc 1 126 58 discriminator 8 view .LVU42
 292 0150 8A4B     		ldr	r3, .L42+44
 293 0152 C3F80480 		str	r8, [r3, #4]
 127:src/ascii_proto_funcs.c ****                     sprintf(ascii_out, "speed now %d, steer now %d, speedL %ld, speedR %ld\r\n", sp
 294              		.loc 1 127 21 is_stmt 1 view .LVU43
 127:src/ascii_proto_funcs.c ****                     sprintf(ascii_out, "speed now %d, steer now %d, speedL %ld, speedR %ld\r\n", sp
 295              		.loc 1 127 60 is_stmt 0 view .LVU44
 296 0156 3246     		mov	r2, r6
 297 0158 3B46     		mov	r3, r7
 298 015a 5046     		mov	r0, r10
 299 015c 5946     		mov	r1, fp
 300 015e FFF7FEFF 		bl	__aeabi_dadd
 301              	.LVL20:
 302 0162 0646     		mov	r6, r0
 303 0164 0F46     		mov	r7, r1
 127:src/ascii_proto_funcs.c ****                     sprintf(ascii_out, "speed now %d, steer now %d, speedL %ld, speedR %ld\r\n", sp
 304              		.loc 1 127 58 view .LVU45
 305 0166 0022     		movs	r2, #0
 306 0168 834B     		ldr	r3, .L42+40
 307 016a FFF7FEFF 		bl	__aeabi_dcmpgt
 308              	.LVL21:
 309 016e 78B9     		cbnz	r0, .L26
 127:src/ascii_proto_funcs.c ****                     sprintf(ascii_out, "speed now %d, steer now %d, speedL %ld, speedR %ld\r\n", sp
 310              		.loc 1 127 58 discriminator 2 view .LVU46
 311 0170 77A3     		adr	r3, .L42
 312 0172 D3E90023 		ldrd	r2, [r3]
 313 0176 3046     		mov	r0, r6
ARM GAS  /tmp/ccidYgsI.s 			page 10


 314 0178 3946     		mov	r1, r7
 315 017a FFF7FEFF 		bl	__aeabi_dcmplt
 316              	.LVL22:
 317 017e A8B9     		cbnz	r0, .L27
 127:src/ascii_proto_funcs.c ****                     sprintf(ascii_out, "speed now %d, steer now %d, speedL %ld, speedR %ld\r\n", sp
 318              		.loc 1 127 58 discriminator 5 view .LVU47
 319 0180 3046     		mov	r0, r6
 320 0182 3946     		mov	r1, r7
 321 0184 FFF7FEFF 		bl	__aeabi_d2iz
 322              	.LVL23:
 323 0188 04E0     		b	.L12
 324              	.L25:
 126:src/ascii_proto_funcs.c ****                     SpeedData.wanted_speed_mm_per_sec[0] = CLAMP(speedB * SPEED_COEFFICIENT +  stee
 325              		.loc 1 126 58 discriminator 4 view .LVU48
 326 018a DFF8F481 		ldr	r8, .L42+48
 327 018e DFE7     		b	.L11
 328              	.L26:
 127:src/ascii_proto_funcs.c ****                     sprintf(ascii_out, "speed now %d, steer now %d, speedL %ld, speedR %ld\r\n", sp
 329              		.loc 1 127 58 discriminator 1 view .LVU49
 330 0190 4FF47A70 		mov	r0, #1000
 331              	.L12:
 127:src/ascii_proto_funcs.c ****                     sprintf(ascii_out, "speed now %d, steer now %d, speedL %ld, speedR %ld\r\n", sp
 332              		.loc 1 127 58 discriminator 8 view .LVU50
 333 0194 794B     		ldr	r3, .L42+44
 334 0196 1860     		str	r0, [r3]
 128:src/ascii_proto_funcs.c ****                     break;
 335              		.loc 1 128 21 is_stmt 1 view .LVU51
 336 0198 CDF80480 		str	r8, [sp, #4]
 337 019c 0090     		str	r0, [sp]
 338 019e 4B46     		mov	r3, r9
 339 01a0 2A46     		mov	r2, r5
 340 01a2 7849     		ldr	r1, .L42+52
 341 01a4 2046     		mov	r0, r4
 342 01a6 FFF7FEFF 		bl	sprintf
 343              	.LVL24:
 129:src/ascii_proto_funcs.c ****                 case CONTROL_TYPE_PWM:
 344              		.loc 1 129 21 view .LVU52
 345 01aa 92E7     		b	.L2
 346              	.L27:
 127:src/ascii_proto_funcs.c ****                     sprintf(ascii_out, "speed now %d, steer now %d, speedL %ld, speedR %ld\r\n", sp
 347              		.loc 1 127 58 is_stmt 0 discriminator 4 view .LVU53
 348 01ac 7448     		ldr	r0, .L42+48
 349 01ae F1E7     		b	.L12
 350              	.LVL25:
 351              	.L10:
 131:src/ascii_proto_funcs.c ****                     PWMData.pwm[1] = CLAMP(speedB * SPEED_COEFFICIENT -  steerB * STEER_COEFFICIENT
 352              		.loc 1 131 21 is_stmt 1 view .LVU54
 131:src/ascii_proto_funcs.c ****                     PWMData.pwm[1] = CLAMP(speedB * SPEED_COEFFICIENT -  steerB * STEER_COEFFICIENT
 353              		.loc 1 131 33 is_stmt 0 view .LVU55
 354 01b0 01EB8101 		add	r1, r1, r1, lsl #2
 355              	.LVL26:
 131:src/ascii_proto_funcs.c ****                     PWMData.pwm[1] = CLAMP(speedB * SPEED_COEFFICIENT -  steerB * STEER_COEFFICIENT
 356              		.loc 1 131 28 view .LVU56
 357 01b4 694B     		ldr	r3, .L42+12
 358 01b6 1D68     		ldr	r5, [r3]
 359 01b8 05EB4105 		add	r5, r5, r1, lsl #1
 360 01bc 1D60     		str	r5, [r3]
ARM GAS  /tmp/ccidYgsI.s 			page 11


 132:src/ascii_proto_funcs.c ****                     PWMData.pwm[0] = CLAMP(speedB * SPEED_COEFFICIENT +  steerB * STEER_COEFFICIENT
 361              		.loc 1 132 21 is_stmt 1 view .LVU57
 132:src/ascii_proto_funcs.c ****                     PWMData.pwm[0] = CLAMP(speedB * SPEED_COEFFICIENT +  steerB * STEER_COEFFICIENT
 362              		.loc 1 132 38 is_stmt 0 view .LVU58
 363 01be 2846     		mov	r0, r5
 364              	.LVL27:
 132:src/ascii_proto_funcs.c ****                     PWMData.pwm[0] = CLAMP(speedB * SPEED_COEFFICIENT +  steerB * STEER_COEFFICIENT
 365              		.loc 1 132 38 view .LVU59
 366 01c0 FFF7FEFF 		bl	__aeabi_i2d
 367              	.LVL28:
 368 01c4 0022     		movs	r2, #0
 369 01c6 6B4B     		ldr	r3, .L42+36
 370 01c8 FFF7FEFF 		bl	__aeabi_dmul
 371              	.LVL29:
 372 01cc 8246     		mov	r10, r0
 373 01ce 8B46     		mov	fp, r1
 374 01d0 634B     		ldr	r3, .L42+16
 375 01d2 D3F80090 		ldr	r9, [r3]
 376 01d6 4846     		mov	r0, r9
 377 01d8 FFF7FEFF 		bl	__aeabi_i2d
 378              	.LVL30:
 379 01dc 0022     		movs	r2, #0
 380 01de 654B     		ldr	r3, .L42+36
 381 01e0 FFF7FEFF 		bl	__aeabi_dmul
 382              	.LVL31:
 383 01e4 0646     		mov	r6, r0
 384 01e6 0F46     		mov	r7, r1
 385 01e8 0246     		mov	r2, r0
 386 01ea 0B46     		mov	r3, r1
 387 01ec 5046     		mov	r0, r10
 388 01ee 5946     		mov	r1, fp
 389 01f0 FFF7FEFF 		bl	__aeabi_dsub
 390              	.LVL32:
 391 01f4 0246     		mov	r2, r0
 392 01f6 0B46     		mov	r3, r1
 393 01f8 CDE90423 		strd	r2, [sp, #16]
 132:src/ascii_proto_funcs.c ****                     PWMData.pwm[0] = CLAMP(speedB * SPEED_COEFFICIENT +  steerB * STEER_COEFFICIENT
 394              		.loc 1 132 36 view .LVU60
 395 01fc 0022     		movs	r2, #0
 396 01fe 5E4B     		ldr	r3, .L42+40
 397 0200 FFF7FEFF 		bl	__aeabi_dcmpgt
 398              	.LVL33:
 399 0204 68B9     		cbnz	r0, .L28
 132:src/ascii_proto_funcs.c ****                     PWMData.pwm[0] = CLAMP(speedB * SPEED_COEFFICIENT +  steerB * STEER_COEFFICIENT
 400              		.loc 1 132 36 discriminator 2 view .LVU61
 401 0206 52A3     		adr	r3, .L42
 402 0208 D3E90023 		ldrd	r2, [r3]
 403 020c DDE90401 		ldrd	r0, [sp, #16]
 404 0210 FFF7FEFF 		bl	__aeabi_dcmplt
 405              	.LVL34:
 406 0214 20BB     		cbnz	r0, .L29
 132:src/ascii_proto_funcs.c ****                     PWMData.pwm[0] = CLAMP(speedB * SPEED_COEFFICIENT +  steerB * STEER_COEFFICIENT
 407              		.loc 1 132 36 discriminator 5 view .LVU62
 408 0216 DDE90401 		ldrd	r0, [sp, #16]
 409 021a FFF7FEFF 		bl	__aeabi_d2iz
 410              	.LVL35:
 411 021e 8046     		mov	r8, r0
ARM GAS  /tmp/ccidYgsI.s 			page 12


 412 0220 01E0     		b	.L13
 413              	.L28:
 132:src/ascii_proto_funcs.c ****                     PWMData.pwm[0] = CLAMP(speedB * SPEED_COEFFICIENT +  steerB * STEER_COEFFICIENT
 414              		.loc 1 132 36 discriminator 1 view .LVU63
 415 0222 4FF47A78 		mov	r8, #1000
 416              	.L13:
 132:src/ascii_proto_funcs.c ****                     PWMData.pwm[0] = CLAMP(speedB * SPEED_COEFFICIENT +  steerB * STEER_COEFFICIENT
 417              		.loc 1 132 36 discriminator 8 view .LVU64
 418 0226 584B     		ldr	r3, .L42+56
 419 0228 C3F80480 		str	r8, [r3, #4]
 133:src/ascii_proto_funcs.c ****                     sprintf(ascii_out, "speed now %d, steer now %d, pwm %ld, pwm %ld\r\n", speedB, 
 420              		.loc 1 133 21 is_stmt 1 view .LVU65
 133:src/ascii_proto_funcs.c ****                     sprintf(ascii_out, "speed now %d, steer now %d, pwm %ld, pwm %ld\r\n", speedB, 
 421              		.loc 1 133 38 is_stmt 0 view .LVU66
 422 022c 3246     		mov	r2, r6
 423 022e 3B46     		mov	r3, r7
 424 0230 5046     		mov	r0, r10
 425 0232 5946     		mov	r1, fp
 426 0234 FFF7FEFF 		bl	__aeabi_dadd
 427              	.LVL36:
 428 0238 0646     		mov	r6, r0
 429 023a 0F46     		mov	r7, r1
 133:src/ascii_proto_funcs.c ****                     sprintf(ascii_out, "speed now %d, steer now %d, pwm %ld, pwm %ld\r\n", speedB, 
 430              		.loc 1 133 36 view .LVU67
 431 023c 0022     		movs	r2, #0
 432 023e 4E4B     		ldr	r3, .L42+40
 433 0240 FFF7FEFF 		bl	__aeabi_dcmpgt
 434              	.LVL37:
 435 0244 78B9     		cbnz	r0, .L30
 133:src/ascii_proto_funcs.c ****                     sprintf(ascii_out, "speed now %d, steer now %d, pwm %ld, pwm %ld\r\n", speedB, 
 436              		.loc 1 133 36 discriminator 2 view .LVU68
 437 0246 42A3     		adr	r3, .L42
 438 0248 D3E90023 		ldrd	r2, [r3]
 439 024c 3046     		mov	r0, r6
 440 024e 3946     		mov	r1, r7
 441 0250 FFF7FEFF 		bl	__aeabi_dcmplt
 442              	.LVL38:
 443 0254 A8B9     		cbnz	r0, .L31
 133:src/ascii_proto_funcs.c ****                     sprintf(ascii_out, "speed now %d, steer now %d, pwm %ld, pwm %ld\r\n", speedB, 
 444              		.loc 1 133 36 discriminator 5 view .LVU69
 445 0256 3046     		mov	r0, r6
 446 0258 3946     		mov	r1, r7
 447 025a FFF7FEFF 		bl	__aeabi_d2iz
 448              	.LVL39:
 449 025e 04E0     		b	.L14
 450              	.L29:
 132:src/ascii_proto_funcs.c ****                     PWMData.pwm[0] = CLAMP(speedB * SPEED_COEFFICIENT +  steerB * STEER_COEFFICIENT
 451              		.loc 1 132 36 discriminator 4 view .LVU70
 452 0260 DFF81C81 		ldr	r8, .L42+48
 453 0264 DFE7     		b	.L13
 454              	.L30:
 133:src/ascii_proto_funcs.c ****                     sprintf(ascii_out, "speed now %d, steer now %d, pwm %ld, pwm %ld\r\n", speedB, 
 455              		.loc 1 133 36 discriminator 1 view .LVU71
 456 0266 4FF47A70 		mov	r0, #1000
 457              	.L14:
 133:src/ascii_proto_funcs.c ****                     sprintf(ascii_out, "speed now %d, steer now %d, pwm %ld, pwm %ld\r\n", speedB, 
 458              		.loc 1 133 36 discriminator 8 view .LVU72
ARM GAS  /tmp/ccidYgsI.s 			page 13


 459 026a 474B     		ldr	r3, .L42+56
 460 026c 1860     		str	r0, [r3]
 134:src/ascii_proto_funcs.c ****                     break;
 461              		.loc 1 134 21 is_stmt 1 view .LVU73
 462 026e CDF80480 		str	r8, [sp, #4]
 463 0272 0090     		str	r0, [sp]
 464 0274 4B46     		mov	r3, r9
 465 0276 2A46     		mov	r2, r5
 466 0278 4449     		ldr	r1, .L42+60
 467 027a 2046     		mov	r0, r4
 468 027c FFF7FEFF 		bl	sprintf
 469              	.LVL40:
 135:src/ascii_proto_funcs.c ****             }
 470              		.loc 1 135 21 view .LVU74
 471 0280 27E7     		b	.L2
 472              	.L31:
 133:src/ascii_proto_funcs.c ****                     sprintf(ascii_out, "speed now %d, steer now %d, pwm %ld, pwm %ld\r\n", speedB, 
 473              		.loc 1 133 36 is_stmt 0 discriminator 4 view .LVU75
 474 0282 3F48     		ldr	r0, .L42+48
 475 0284 F1E7     		b	.L14
 476              	.LVL41:
 477              	.L22:
 141:src/ascii_proto_funcs.c ****         case 'D':
 478              		.loc 1 141 17 view .LVU76
 479 0286 4FF0FF33 		mov	r3, #-1
 480              	.L7:
 481              	.LVL42:
 144:src/ascii_proto_funcs.c ****             enable = 1;
 482              		.loc 1 144 13 is_stmt 1 view .LVU77
 144:src/ascii_proto_funcs.c ****             enable = 1;
 483              		.loc 1 144 17 is_stmt 0 view .LVU78
 484 028a 334A     		ldr	r2, .L42+8
 485              	.LVL43:
 144:src/ascii_proto_funcs.c ****             enable = 1;
 486              		.loc 1 144 17 view .LVU79
 487 028c 1278     		ldrb	r2, [r2]	@ zero_extendqisi2
 144:src/ascii_proto_funcs.c ****             enable = 1;
 488              		.loc 1 144 16 view .LVU80
 489 028e 1AB9     		cbnz	r2, .L15
 144:src/ascii_proto_funcs.c ****             enable = 1;
 490              		.loc 1 144 28 is_stmt 1 discriminator 1 view .LVU81
 144:src/ascii_proto_funcs.c ****             enable = 1;
 491              		.loc 1 144 35 is_stmt 0 discriminator 1 view .LVU82
 492 0290 3249     		ldr	r1, .L42+12
 493 0292 0A60     		str	r2, [r1]
 144:src/ascii_proto_funcs.c ****             enable = 1;
 494              		.loc 1 144 40 is_stmt 1 discriminator 1 view .LVU83
 144:src/ascii_proto_funcs.c ****             enable = 1;
 495              		.loc 1 144 47 is_stmt 0 discriminator 1 view .LVU84
 496 0294 3249     		ldr	r1, .L42+16
 497 0296 0A60     		str	r2, [r1]
 498              	.L15:
 145:src/ascii_proto_funcs.c ****             input_timeout_counter = 0;
 499              		.loc 1 145 13 is_stmt 1 view .LVU85
 145:src/ascii_proto_funcs.c ****             input_timeout_counter = 0;
 500              		.loc 1 145 20 is_stmt 0 view .LVU86
 501 0298 2F4A     		ldr	r2, .L42+8
ARM GAS  /tmp/ccidYgsI.s 			page 14


 502 029a 0121     		movs	r1, #1
 503 029c 1170     		strb	r1, [r2]
 146:src/ascii_proto_funcs.c ****             switch (control_type){
 504              		.loc 1 146 13 is_stmt 1 view .LVU87
 146:src/ascii_proto_funcs.c ****             switch (control_type){
 505              		.loc 1 146 35 is_stmt 0 view .LVU88
 506 029e 314A     		ldr	r2, .L42+20
 507 02a0 0021     		movs	r1, #0
 508 02a2 1160     		str	r1, [r2]
 147:src/ascii_proto_funcs.c ****                 case CONTROL_TYPE_POSITION:
 509              		.loc 1 147 13 is_stmt 1 view .LVU89
 510 02a4 304A     		ldr	r2, .L42+24
 511 02a6 1268     		ldr	r2, [r2]
 512 02a8 022A     		cmp	r2, #2
 513 02aa 14D0     		beq	.L16
 514 02ac 032A     		cmp	r2, #3
 515 02ae 00F0A180 		beq	.L17
 516 02b2 012A     		cmp	r2, #1
 517 02b4 7FF40DAF 		bne	.L2
 149:src/ascii_proto_funcs.c ****                     PosnData.wanted_posn_mm[1] -= dir * 100;
 518              		.loc 1 149 21 view .LVU90
 149:src/ascii_proto_funcs.c ****                     PosnData.wanted_posn_mm[1] -= dir * 100;
 519              		.loc 1 149 44 is_stmt 0 view .LVU91
 520 02b8 2C49     		ldr	r1, .L42+28
 521 02ba 0A68     		ldr	r2, [r1]
 149:src/ascii_proto_funcs.c ****                     PosnData.wanted_posn_mm[1] -= dir * 100;
 522              		.loc 1 149 55 view .LVU92
 523 02bc 6420     		movs	r0, #100
 524              	.LVL44:
 149:src/ascii_proto_funcs.c ****                     PosnData.wanted_posn_mm[1] -= dir * 100;
 525              		.loc 1 149 55 view .LVU93
 526 02be 03FB00F0 		mul	r0, r3, r0
 149:src/ascii_proto_funcs.c ****                     PosnData.wanted_posn_mm[1] -= dir * 100;
 527              		.loc 1 149 48 view .LVU94
 528 02c2 0244     		add	r2, r2, r0
 529 02c4 0A60     		str	r2, [r1]
 150:src/ascii_proto_funcs.c ****                     sprintf(ascii_out, "wanted_posn now %ldmm %ldmm\r\n", PosnData.wanted_posn_mm[0
 530              		.loc 1 150 21 is_stmt 1 view .LVU95
 150:src/ascii_proto_funcs.c ****                     sprintf(ascii_out, "wanted_posn now %ldmm %ldmm\r\n", PosnData.wanted_posn_mm[0
 531              		.loc 1 150 44 is_stmt 0 view .LVU96
 532 02c6 4B68     		ldr	r3, [r1, #4]
 533              	.LVL45:
 150:src/ascii_proto_funcs.c ****                     sprintf(ascii_out, "wanted_posn now %ldmm %ldmm\r\n", PosnData.wanted_posn_mm[0
 534              		.loc 1 150 44 view .LVU97
 535 02c8 1B1A     		subs	r3, r3, r0
 150:src/ascii_proto_funcs.c ****                     sprintf(ascii_out, "wanted_posn now %ldmm %ldmm\r\n", PosnData.wanted_posn_mm[0
 536              		.loc 1 150 48 view .LVU98
 537 02ca 4B60     		str	r3, [r1, #4]
 151:src/ascii_proto_funcs.c ****                     break;
 538              		.loc 1 151 21 is_stmt 1 view .LVU99
 539 02cc 2849     		ldr	r1, .L42+32
 540 02ce 2046     		mov	r0, r4
 541 02d0 FFF7FEFF 		bl	sprintf
 542              	.LVL46:
 152:src/ascii_proto_funcs.c ****                 case CONTROL_TYPE_SPEED:
 543              		.loc 1 152 21 view .LVU100
 544 02d4 FDE6     		b	.L2
ARM GAS  /tmp/ccidYgsI.s 			page 15


 545              	.LVL47:
 546              	.L16:
 154:src/ascii_proto_funcs.c ****                     SpeedData.wanted_speed_mm_per_sec[1] = CLAMP(speedB * SPEED_COEFFICIENT -  stee
 547              		.loc 1 154 21 view .LVU101
 154:src/ascii_proto_funcs.c ****                     SpeedData.wanted_speed_mm_per_sec[1] = CLAMP(speedB * SPEED_COEFFICIENT -  stee
 548              		.loc 1 154 33 is_stmt 0 view .LVU102
 549 02d6 03EB8303 		add	r3, r3, r3, lsl #2
 550              	.LVL48:
 154:src/ascii_proto_funcs.c ****                     SpeedData.wanted_speed_mm_per_sec[1] = CLAMP(speedB * SPEED_COEFFICIENT -  stee
 551              		.loc 1 154 28 view .LVU103
 552 02da 214A     		ldr	r2, .L42+16
 553 02dc 1568     		ldr	r5, [r2]
 554 02de 05EB4305 		add	r5, r5, r3, lsl #1
 555 02e2 1560     		str	r5, [r2]
 155:src/ascii_proto_funcs.c ****                     SpeedData.wanted_speed_mm_per_sec[0] = CLAMP(speedB * SPEED_COEFFICIENT +  stee
 556              		.loc 1 155 21 is_stmt 1 view .LVU104
 155:src/ascii_proto_funcs.c ****                     SpeedData.wanted_speed_mm_per_sec[0] = CLAMP(speedB * SPEED_COEFFICIENT +  stee
 557              		.loc 1 155 60 is_stmt 0 view .LVU105
 558 02e4 1D4B     		ldr	r3, .L42+12
 559 02e6 D3F80090 		ldr	r9, [r3]
 560 02ea 4846     		mov	r0, r9
 561              	.LVL49:
 155:src/ascii_proto_funcs.c ****                     SpeedData.wanted_speed_mm_per_sec[0] = CLAMP(speedB * SPEED_COEFFICIENT +  stee
 562              		.loc 1 155 60 view .LVU106
 563 02ec FFF7FEFF 		bl	__aeabi_i2d
 564              	.LVL50:
 565 02f0 0022     		movs	r2, #0
 566 02f2 204B     		ldr	r3, .L42+36
 567 02f4 FFF7FEFF 		bl	__aeabi_dmul
 568              	.LVL51:
 569 02f8 8246     		mov	r10, r0
 570 02fa 8B46     		mov	fp, r1
 571 02fc 2846     		mov	r0, r5
 572 02fe FFF7FEFF 		bl	__aeabi_i2d
 573              	.LVL52:
 574 0302 0022     		movs	r2, #0
 575 0304 1B4B     		ldr	r3, .L42+36
 576 0306 FFF7FEFF 		bl	__aeabi_dmul
 577              	.LVL53:
 578 030a 0646     		mov	r6, r0
 579 030c 0F46     		mov	r7, r1
 580 030e 0246     		mov	r2, r0
 581 0310 0B46     		mov	r3, r1
 582 0312 5046     		mov	r0, r10
 583 0314 5946     		mov	r1, fp
 584 0316 FFF7FEFF 		bl	__aeabi_dsub
 585              	.LVL54:
 586 031a 0246     		mov	r2, r0
 587 031c 0B46     		mov	r3, r1
 588 031e CDE90423 		strd	r2, [sp, #16]
 155:src/ascii_proto_funcs.c ****                     SpeedData.wanted_speed_mm_per_sec[0] = CLAMP(speedB * SPEED_COEFFICIENT +  stee
 589              		.loc 1 155 58 view .LVU107
 590 0322 0022     		movs	r2, #0
 591 0324 144B     		ldr	r3, .L42+40
 592 0326 FFF7FEFF 		bl	__aeabi_dcmpgt
 593              	.LVL55:
 594 032a 88BB     		cbnz	r0, .L32
ARM GAS  /tmp/ccidYgsI.s 			page 16


 155:src/ascii_proto_funcs.c ****                     SpeedData.wanted_speed_mm_per_sec[0] = CLAMP(speedB * SPEED_COEFFICIENT +  stee
 595              		.loc 1 155 58 discriminator 2 view .LVU108
 596 032c 08A3     		adr	r3, .L42
 597 032e D3E90023 		ldrd	r2, [r3]
 598 0332 DDE90401 		ldrd	r0, [sp, #16]
 599 0336 FFF7FEFF 		bl	__aeabi_dcmplt
 600              	.LVL56:
 601 033a 0028     		cmp	r0, #0
 602 033c 47D1     		bne	.L33
 155:src/ascii_proto_funcs.c ****                     SpeedData.wanted_speed_mm_per_sec[0] = CLAMP(speedB * SPEED_COEFFICIENT +  stee
 603              		.loc 1 155 58 discriminator 5 view .LVU109
 604 033e DDE90401 		ldrd	r0, [sp, #16]
 605 0342 FFF7FEFF 		bl	__aeabi_d2iz
 606              	.LVL57:
 607 0346 8046     		mov	r8, r0
 608 0348 24E0     		b	.L18
 609              	.L43:
 610 034a 00BFAFF3 		.align	3
 610      0080
 611              	.L42:
 612 0350 00000000 		.word	0
 613 0354 00408FC0 		.word	-1064353792
 614 0358 00000000 		.word	enable
 615 035c 00000000 		.word	speedB
 616 0360 00000000 		.word	steerB
 617 0364 00000000 		.word	input_timeout_counter
 618 0368 00000000 		.word	control_type
 619 036c 00000000 		.word	PosnData
 620 0370 00000000 		.word	.LC0
 621 0374 0000E03F 		.word	1071644672
 622 0378 00408F40 		.word	1083129856
 623 037c 00000000 		.word	SpeedData
 624 0380 18FCFFFF 		.word	-1000
 625 0384 20000000 		.word	.LC1
 626 0388 00000000 		.word	PWMData
 627 038c 58000000 		.word	.LC2
 628              	.L32:
 155:src/ascii_proto_funcs.c ****                     SpeedData.wanted_speed_mm_per_sec[0] = CLAMP(speedB * SPEED_COEFFICIENT +  stee
 629              		.loc 1 155 58 discriminator 1 view .LVU110
 630 0390 4FF47A78 		mov	r8, #1000
 631              	.L18:
 155:src/ascii_proto_funcs.c ****                     SpeedData.wanted_speed_mm_per_sec[0] = CLAMP(speedB * SPEED_COEFFICIENT +  stee
 632              		.loc 1 155 58 discriminator 8 view .LVU111
 633 0394 524B     		ldr	r3, .L44+8
 634 0396 C3F80480 		str	r8, [r3, #4]
 156:src/ascii_proto_funcs.c ****                     sprintf(ascii_out, "speed now %d, steer now %d, speedL %ld, speedR %ld\r\n", sp
 635              		.loc 1 156 21 is_stmt 1 view .LVU112
 156:src/ascii_proto_funcs.c ****                     sprintf(ascii_out, "speed now %d, steer now %d, speedL %ld, speedR %ld\r\n", sp
 636              		.loc 1 156 60 is_stmt 0 view .LVU113
 637 039a 3246     		mov	r2, r6
 638 039c 3B46     		mov	r3, r7
 639 039e 5046     		mov	r0, r10
 640 03a0 5946     		mov	r1, fp
 641 03a2 FFF7FEFF 		bl	__aeabi_dadd
 642              	.LVL58:
 643 03a6 0646     		mov	r6, r0
 644 03a8 0F46     		mov	r7, r1
ARM GAS  /tmp/ccidYgsI.s 			page 17


 156:src/ascii_proto_funcs.c ****                     sprintf(ascii_out, "speed now %d, steer now %d, speedL %ld, speedR %ld\r\n", sp
 645              		.loc 1 156 58 view .LVU114
 646 03aa 0022     		movs	r2, #0
 647 03ac 4D4B     		ldr	r3, .L44+12
 648 03ae FFF7FEFF 		bl	__aeabi_dcmpgt
 649              	.LVL59:
 650 03b2 78B9     		cbnz	r0, .L34
 156:src/ascii_proto_funcs.c ****                     sprintf(ascii_out, "speed now %d, steer now %d, speedL %ld, speedR %ld\r\n", sp
 651              		.loc 1 156 58 discriminator 2 view .LVU115
 652 03b4 48A3     		adr	r3, .L44
 653 03b6 D3E90023 		ldrd	r2, [r3]
 654 03ba 3046     		mov	r0, r6
 655 03bc 3946     		mov	r1, r7
 656 03be FFF7FEFF 		bl	__aeabi_dcmplt
 657              	.LVL60:
 658 03c2 A8B9     		cbnz	r0, .L35
 156:src/ascii_proto_funcs.c ****                     sprintf(ascii_out, "speed now %d, steer now %d, speedL %ld, speedR %ld\r\n", sp
 659              		.loc 1 156 58 discriminator 5 view .LVU116
 660 03c4 3046     		mov	r0, r6
 661 03c6 3946     		mov	r1, r7
 662 03c8 FFF7FEFF 		bl	__aeabi_d2iz
 663              	.LVL61:
 664 03cc 04E0     		b	.L19
 665              	.L33:
 155:src/ascii_proto_funcs.c ****                     SpeedData.wanted_speed_mm_per_sec[0] = CLAMP(speedB * SPEED_COEFFICIENT +  stee
 666              		.loc 1 155 58 discriminator 4 view .LVU117
 667 03ce DFF81881 		ldr	r8, .L44+16
 668 03d2 DFE7     		b	.L18
 669              	.L34:
 156:src/ascii_proto_funcs.c ****                     sprintf(ascii_out, "speed now %d, steer now %d, speedL %ld, speedR %ld\r\n", sp
 670              		.loc 1 156 58 discriminator 1 view .LVU118
 671 03d4 4FF47A70 		mov	r0, #1000
 672              	.L19:
 156:src/ascii_proto_funcs.c ****                     sprintf(ascii_out, "speed now %d, steer now %d, speedL %ld, speedR %ld\r\n", sp
 673              		.loc 1 156 58 discriminator 8 view .LVU119
 674 03d8 414B     		ldr	r3, .L44+8
 675 03da 1860     		str	r0, [r3]
 157:src/ascii_proto_funcs.c ****                     break;
 676              		.loc 1 157 21 is_stmt 1 view .LVU120
 677 03dc CDF80480 		str	r8, [sp, #4]
 678 03e0 0090     		str	r0, [sp]
 679 03e2 2B46     		mov	r3, r5
 680 03e4 4A46     		mov	r2, r9
 681 03e6 4149     		ldr	r1, .L44+20
 682 03e8 2046     		mov	r0, r4
 683 03ea FFF7FEFF 		bl	sprintf
 684              	.LVL62:
 158:src/ascii_proto_funcs.c ****                 case CONTROL_TYPE_PWM:
 685              		.loc 1 158 21 view .LVU121
 686 03ee 70E6     		b	.L2
 687              	.L35:
 156:src/ascii_proto_funcs.c ****                     sprintf(ascii_out, "speed now %d, steer now %d, speedL %ld, speedR %ld\r\n", sp
 688              		.loc 1 156 58 is_stmt 0 discriminator 4 view .LVU122
 689 03f0 3D48     		ldr	r0, .L44+16
 690 03f2 F1E7     		b	.L19
 691              	.LVL63:
 692              	.L17:
ARM GAS  /tmp/ccidYgsI.s 			page 18


 160:src/ascii_proto_funcs.c ****                     PWMData.pwm[1] = CLAMP(speedB * SPEED_COEFFICIENT -  steerB * STEER_COEFFICIENT
 693              		.loc 1 160 21 is_stmt 1 view .LVU123
 160:src/ascii_proto_funcs.c ****                     PWMData.pwm[1] = CLAMP(speedB * SPEED_COEFFICIENT -  steerB * STEER_COEFFICIENT
 694              		.loc 1 160 33 is_stmt 0 view .LVU124
 695 03f4 03EB8303 		add	r3, r3, r3, lsl #2
 696              	.LVL64:
 160:src/ascii_proto_funcs.c ****                     PWMData.pwm[1] = CLAMP(speedB * SPEED_COEFFICIENT -  steerB * STEER_COEFFICIENT
 697              		.loc 1 160 28 view .LVU125
 698 03f8 3D4A     		ldr	r2, .L44+24
 699 03fa 1568     		ldr	r5, [r2]
 700 03fc 05EB4305 		add	r5, r5, r3, lsl #1
 701 0400 1560     		str	r5, [r2]
 161:src/ascii_proto_funcs.c ****                     PWMData.pwm[0] = CLAMP(speedB * SPEED_COEFFICIENT +  steerB * STEER_COEFFICIENT
 702              		.loc 1 161 21 is_stmt 1 view .LVU126
 161:src/ascii_proto_funcs.c ****                     PWMData.pwm[0] = CLAMP(speedB * SPEED_COEFFICIENT +  steerB * STEER_COEFFICIENT
 703              		.loc 1 161 38 is_stmt 0 view .LVU127
 704 0402 3C4B     		ldr	r3, .L44+28
 705 0404 D3F80090 		ldr	r9, [r3]
 706 0408 4846     		mov	r0, r9
 707              	.LVL65:
 161:src/ascii_proto_funcs.c ****                     PWMData.pwm[0] = CLAMP(speedB * SPEED_COEFFICIENT +  steerB * STEER_COEFFICIENT
 708              		.loc 1 161 38 view .LVU128
 709 040a FFF7FEFF 		bl	__aeabi_i2d
 710              	.LVL66:
 711 040e 0022     		movs	r2, #0
 712 0410 394B     		ldr	r3, .L44+32
 713 0412 FFF7FEFF 		bl	__aeabi_dmul
 714              	.LVL67:
 715 0416 8246     		mov	r10, r0
 716 0418 8B46     		mov	fp, r1
 717 041a 2846     		mov	r0, r5
 718 041c FFF7FEFF 		bl	__aeabi_i2d
 719              	.LVL68:
 720 0420 0022     		movs	r2, #0
 721 0422 354B     		ldr	r3, .L44+32
 722 0424 FFF7FEFF 		bl	__aeabi_dmul
 723              	.LVL69:
 724 0428 0646     		mov	r6, r0
 725 042a 0F46     		mov	r7, r1
 726 042c 0246     		mov	r2, r0
 727 042e 0B46     		mov	r3, r1
 728 0430 5046     		mov	r0, r10
 729 0432 5946     		mov	r1, fp
 730 0434 FFF7FEFF 		bl	__aeabi_dsub
 731              	.LVL70:
 732 0438 0246     		mov	r2, r0
 733 043a 0B46     		mov	r3, r1
 734 043c CDE90423 		strd	r2, [sp, #16]
 161:src/ascii_proto_funcs.c ****                     PWMData.pwm[0] = CLAMP(speedB * SPEED_COEFFICIENT +  steerB * STEER_COEFFICIENT
 735              		.loc 1 161 36 view .LVU129
 736 0440 0022     		movs	r2, #0
 737 0442 284B     		ldr	r3, .L44+12
 738 0444 FFF7FEFF 		bl	__aeabi_dcmpgt
 739              	.LVL71:
 740 0448 68B9     		cbnz	r0, .L36
 161:src/ascii_proto_funcs.c ****                     PWMData.pwm[0] = CLAMP(speedB * SPEED_COEFFICIENT +  steerB * STEER_COEFFICIENT
 741              		.loc 1 161 36 discriminator 2 view .LVU130
ARM GAS  /tmp/ccidYgsI.s 			page 19


 742 044a 23A3     		adr	r3, .L44
 743 044c D3E90023 		ldrd	r2, [r3]
 744 0450 DDE90401 		ldrd	r0, [sp, #16]
 745 0454 FFF7FEFF 		bl	__aeabi_dcmplt
 746              	.LVL72:
 747 0458 20BB     		cbnz	r0, .L37
 161:src/ascii_proto_funcs.c ****                     PWMData.pwm[0] = CLAMP(speedB * SPEED_COEFFICIENT +  steerB * STEER_COEFFICIENT
 748              		.loc 1 161 36 discriminator 5 view .LVU131
 749 045a DDE90401 		ldrd	r0, [sp, #16]
 750 045e FFF7FEFF 		bl	__aeabi_d2iz
 751              	.LVL73:
 752 0462 8046     		mov	r8, r0
 753 0464 01E0     		b	.L20
 754              	.L36:
 161:src/ascii_proto_funcs.c ****                     PWMData.pwm[0] = CLAMP(speedB * SPEED_COEFFICIENT +  steerB * STEER_COEFFICIENT
 755              		.loc 1 161 36 discriminator 1 view .LVU132
 756 0466 4FF47A78 		mov	r8, #1000
 757              	.L20:
 161:src/ascii_proto_funcs.c ****                     PWMData.pwm[0] = CLAMP(speedB * SPEED_COEFFICIENT +  steerB * STEER_COEFFICIENT
 758              		.loc 1 161 36 discriminator 8 view .LVU133
 759 046a 244B     		ldr	r3, .L44+36
 760 046c C3F80480 		str	r8, [r3, #4]
 162:src/ascii_proto_funcs.c ****                     sprintf(ascii_out, "speed now %d, steer now %d, pwm %d->%ld, pwm %d->%ld\r\n", 
 761              		.loc 1 162 21 is_stmt 1 view .LVU134
 162:src/ascii_proto_funcs.c ****                     sprintf(ascii_out, "speed now %d, steer now %d, pwm %d->%ld, pwm %d->%ld\r\n", 
 762              		.loc 1 162 38 is_stmt 0 view .LVU135
 763 0470 3246     		mov	r2, r6
 764 0472 3B46     		mov	r3, r7
 765 0474 5046     		mov	r0, r10
 766 0476 5946     		mov	r1, fp
 767 0478 FFF7FEFF 		bl	__aeabi_dadd
 768              	.LVL74:
 769 047c 0646     		mov	r6, r0
 770 047e 0F46     		mov	r7, r1
 162:src/ascii_proto_funcs.c ****                     sprintf(ascii_out, "speed now %d, steer now %d, pwm %d->%ld, pwm %d->%ld\r\n", 
 771              		.loc 1 162 36 view .LVU136
 772 0480 0022     		movs	r2, #0
 773 0482 184B     		ldr	r3, .L44+12
 774 0484 FFF7FEFF 		bl	__aeabi_dcmpgt
 775              	.LVL75:
 776 0488 78B9     		cbnz	r0, .L38
 162:src/ascii_proto_funcs.c ****                     sprintf(ascii_out, "speed now %d, steer now %d, pwm %d->%ld, pwm %d->%ld\r\n", 
 777              		.loc 1 162 36 discriminator 2 view .LVU137
 778 048a 13A3     		adr	r3, .L44
 779 048c D3E90023 		ldrd	r2, [r3]
 780 0490 3046     		mov	r0, r6
 781 0492 3946     		mov	r1, r7
 782 0494 FFF7FEFF 		bl	__aeabi_dcmplt
 783              	.LVL76:
 784 0498 D0B9     		cbnz	r0, .L39
 162:src/ascii_proto_funcs.c ****                     sprintf(ascii_out, "speed now %d, steer now %d, pwm %d->%ld, pwm %d->%ld\r\n", 
 785              		.loc 1 162 36 discriminator 5 view .LVU138
 786 049a 3046     		mov	r0, r6
 787 049c 3946     		mov	r1, r7
 788 049e FFF7FEFF 		bl	__aeabi_d2iz
 789              	.LVL77:
 790 04a2 04E0     		b	.L21
ARM GAS  /tmp/ccidYgsI.s 			page 20


 791              	.L37:
 161:src/ascii_proto_funcs.c ****                     PWMData.pwm[0] = CLAMP(speedB * SPEED_COEFFICIENT +  steerB * STEER_COEFFICIENT
 792              		.loc 1 161 36 discriminator 4 view .LVU139
 793 04a4 DFF84080 		ldr	r8, .L44+16
 794 04a8 DFE7     		b	.L20
 795              	.L38:
 162:src/ascii_proto_funcs.c ****                     sprintf(ascii_out, "speed now %d, steer now %d, pwm %d->%ld, pwm %d->%ld\r\n", 
 796              		.loc 1 162 36 discriminator 1 view .LVU140
 797 04aa 4FF47A70 		mov	r0, #1000
 798              	.L21:
 162:src/ascii_proto_funcs.c ****                     sprintf(ascii_out, "speed now %d, steer now %d, pwm %d->%ld, pwm %d->%ld\r\n", 
 799              		.loc 1 162 36 discriminator 8 view .LVU141
 800 04ae 134B     		ldr	r3, .L44+36
 801 04b0 1860     		str	r0, [r3]
 163:src/ascii_proto_funcs.c ****                     break;
 802              		.loc 1 163 21 is_stmt 1 view .LVU142
 803 04b2 CDF80C80 		str	r8, [sp, #12]
 804 04b6 124B     		ldr	r3, .L44+40
 805 04b8 5A68     		ldr	r2, [r3, #4]
 806 04ba 0292     		str	r2, [sp, #8]
 807 04bc 0190     		str	r0, [sp, #4]
 808 04be 1B68     		ldr	r3, [r3]
 809 04c0 0093     		str	r3, [sp]
 810 04c2 2B46     		mov	r3, r5
 811 04c4 4A46     		mov	r2, r9
 812 04c6 0F49     		ldr	r1, .L44+44
 813 04c8 2046     		mov	r0, r4
 814 04ca FFF7FEFF 		bl	sprintf
 815              	.LVL78:
 164:src/ascii_proto_funcs.c ****             }
 816              		.loc 1 164 21 view .LVU143
 817 04ce 00E6     		b	.L2
 818              	.L39:
 162:src/ascii_proto_funcs.c ****                     sprintf(ascii_out, "speed now %d, steer now %d, pwm %d->%ld, pwm %d->%ld\r\n", 
 819              		.loc 1 162 36 is_stmt 0 discriminator 4 view .LVU144
 820 04d0 0548     		ldr	r0, .L44+16
 821 04d2 ECE7     		b	.L21
 822              	.L45:
 823 04d4 AFF30080 		.align	3
 824              	.L44:
 825 04d8 00000000 		.word	0
 826 04dc 00408FC0 		.word	-1064353792
 827 04e0 00000000 		.word	SpeedData
 828 04e4 00408F40 		.word	1083129856
 829 04e8 18FCFFFF 		.word	-1000
 830 04ec 20000000 		.word	.LC1
 831 04f0 00000000 		.word	steerB
 832 04f4 00000000 		.word	speedB
 833 04f8 0000E03F 		.word	1071644672
 834 04fc 00000000 		.word	PWMData
 835 0500 00000000 		.word	pwms
 836 0504 88000000 		.word	.LC3
 837              		.cfi_endproc
 838              	.LFE66:
 840              		.section	.rodata.immediate_stop.str1.4,"aMS",%progbits,1
 841              		.align	2
 842              	.LC4:
ARM GAS  /tmp/ccidYgsI.s 			page 21


 843 0000 53746F70 		.ascii	"Stop set\015\012\000"
 843      20736574 
 843      0D0A00
 844              		.section	.text.immediate_stop,"ax",%progbits
 845              		.align	1
 846              		.global	immediate_stop
 847              		.syntax unified
 848              		.thumb
 849              		.thumb_func
 851              	immediate_stop:
 852              	.LVL79:
 853              	.LFB67:
 171:src/ascii_proto_funcs.c **** 
 172:src/ascii_proto_funcs.c **** 
 173:src/ascii_proto_funcs.c **** int immediate_stop(PROTOCOL_STAT *s, char byte, char *ascii_out) {
 854              		.loc 1 173 66 is_stmt 1 view -0
 855              		.cfi_startproc
 856              		@ args = 0, pretend = 0, frame = 0
 857              		@ frame_needed = 0, uses_anonymous_args = 0
 858              		@ link register save eliminated.
 859              		.loc 1 173 66 is_stmt 0 view .LVU146
 860 0000 10B4     		push	{r4}
 861              	.LCFI4:
 862              		.cfi_def_cfa_offset 4
 863              		.cfi_offset 4, -4
 174:src/ascii_proto_funcs.c ****     speedB = 0;
 864              		.loc 1 174 5 is_stmt 1 view .LVU147
 865              		.loc 1 174 12 is_stmt 0 view .LVU148
 866 0002 0023     		movs	r3, #0
 867 0004 1349     		ldr	r1, .L48
 868              	.LVL80:
 869              		.loc 1 174 12 view .LVU149
 870 0006 0B60     		str	r3, [r1]
 175:src/ascii_proto_funcs.c ****     steerB = 0;
 871              		.loc 1 175 5 is_stmt 1 view .LVU150
 872              		.loc 1 175 12 is_stmt 0 view .LVU151
 873 0008 1349     		ldr	r1, .L48+4
 874 000a 0B60     		str	r3, [r1]
 176:src/ascii_proto_funcs.c ****     PWMData.pwm[1] = CLAMP(speedB * SPEED_COEFFICIENT -  steerB * STEER_COEFFICIENT, -1000, 1000);
 875              		.loc 1 176 5 is_stmt 1 view .LVU152
 876              		.loc 1 176 20 is_stmt 0 discriminator 8 view .LVU153
 877 000c 1349     		ldr	r1, .L48+8
 878 000e 4B60     		str	r3, [r1, #4]
 177:src/ascii_proto_funcs.c ****     PWMData.pwm[0] = CLAMP(speedB * SPEED_COEFFICIENT +  steerB * STEER_COEFFICIENT, -1000, 1000);
 879              		.loc 1 177 5 is_stmt 1 view .LVU154
 880              		.loc 1 177 20 is_stmt 0 discriminator 8 view .LVU155
 881 0010 0B60     		str	r3, [r1]
 178:src/ascii_proto_funcs.c ****     SpeedData.wanted_speed_mm_per_sec[0] = SpeedData.wanted_speed_mm_per_sec[1] = speedB;
 882              		.loc 1 178 5 is_stmt 1 view .LVU156
 883              		.loc 1 178 81 is_stmt 0 view .LVU157
 884 0012 1349     		ldr	r1, .L48+12
 885 0014 4B60     		str	r3, [r1, #4]
 886              		.loc 1 178 42 view .LVU158
 887 0016 0B60     		str	r3, [r1]
 179:src/ascii_proto_funcs.c ****     HallData[0].HallSpeed_mm_per_s = HallData[1].HallSpeed_mm_per_s = 0;
 888              		.loc 1 179 5 is_stmt 1 view .LVU159
 889              		.loc 1 179 69 is_stmt 0 view .LVU160
ARM GAS  /tmp/ccidYgsI.s 			page 22


 890 0018 1249     		ldr	r1, .L48+16
 891 001a CB63     		str	r3, [r1, #60]
 892              		.loc 1 179 36 view .LVU161
 893 001c 8B61     		str	r3, [r1, #24]
 180:src/ascii_proto_funcs.c ****     dspeeds[0] = dspeeds[1] = speedB;
 894              		.loc 1 180 5 is_stmt 1 view .LVU162
 895              		.loc 1 180 29 is_stmt 0 view .LVU163
 896 001e 1248     		ldr	r0, .L48+20
 897              	.LVL81:
 898              		.loc 1 180 29 view .LVU164
 899 0020 4360     		str	r3, [r0, #4]
 900              		.loc 1 180 16 view .LVU165
 901 0022 0360     		str	r3, [r0]
 181:src/ascii_proto_funcs.c ****     pwms[0] = pwms[1] = speedB;
 902              		.loc 1 181 5 is_stmt 1 view .LVU166
 903              		.loc 1 181 23 is_stmt 0 view .LVU167
 904 0024 1148     		ldr	r0, .L48+24
 905 0026 4360     		str	r3, [r0, #4]
 906              		.loc 1 181 13 view .LVU168
 907 0028 0360     		str	r3, [r0]
 182:src/ascii_proto_funcs.c ****     PosnData.wanted_posn_mm[0] = HallData[0].HallPosn_mm;
 908              		.loc 1 182 5 is_stmt 1 view .LVU169
 909              		.loc 1 182 45 is_stmt 0 view .LVU170
 910 002a 0C69     		ldr	r4, [r1, #16]
 911              		.loc 1 182 32 view .LVU171
 912 002c 1048     		ldr	r0, .L48+28
 913 002e 0460     		str	r4, [r0]
 183:src/ascii_proto_funcs.c ****     PosnData.wanted_posn_mm[1] = HallData[1].HallPosn_mm;
 914              		.loc 1 183 5 is_stmt 1 view .LVU172
 915              		.loc 1 183 45 is_stmt 0 view .LVU173
 916 0030 496B     		ldr	r1, [r1, #52]
 917              		.loc 1 183 32 view .LVU174
 918 0032 4160     		str	r1, [r0, #4]
 184:src/ascii_proto_funcs.c **** #ifdef CONTROL_SENSOR
 185:src/ascii_proto_funcs.c ****     sensor_control = 0;
 919              		.loc 1 185 5 is_stmt 1 view .LVU175
 920              		.loc 1 185 20 is_stmt 0 view .LVU176
 921 0034 0F49     		ldr	r1, .L48+32
 922 0036 0B60     		str	r3, [r1]
 186:src/ascii_proto_funcs.c **** #endif
 187:src/ascii_proto_funcs.c ****     enable = 0;
 923              		.loc 1 187 5 is_stmt 1 view .LVU177
 924              		.loc 1 187 12 is_stmt 0 view .LVU178
 925 0038 0F49     		ldr	r1, .L48+36
 926 003a 0B70     		strb	r3, [r1]
 188:src/ascii_proto_funcs.c ****     sprintf(ascii_out, "Stop set\r\n");
 927              		.loc 1 188 5 is_stmt 1 view .LVU179
 928 003c 0F4B     		ldr	r3, .L48+40
 929 003e 03CB     		ldmia	r3!, {r0, r1}
 930 0040 1060     		str	r0, [r2]	@ unaligned
 931 0042 5160     		str	r1, [r2, #4]	@ unaligned
 932 0044 1988     		ldrh	r1, [r3]	@ unaligned
 933 0046 9B78     		ldrb	r3, [r3, #2]	@ zero_extendqisi2
 934 0048 1181     		strh	r1, [r2, #8]	@ unaligned
 935 004a 9372     		strb	r3, [r2, #10]
 189:src/ascii_proto_funcs.c ****     return 1;
 936              		.loc 1 189 5 view .LVU180
ARM GAS  /tmp/ccidYgsI.s 			page 23


 190:src/ascii_proto_funcs.c **** }
 937              		.loc 1 190 1 is_stmt 0 view .LVU181
 938 004c 0120     		movs	r0, #1
 939 004e 10BC     		pop	{r4}
 940              	.LCFI5:
 941              		.cfi_restore 4
 942              		.cfi_def_cfa_offset 0
 943 0050 7047     		bx	lr
 944              	.L49:
 945 0052 00BF     		.align	2
 946              	.L48:
 947 0054 00000000 		.word	speedB
 948 0058 00000000 		.word	steerB
 949 005c 00000000 		.word	PWMData
 950 0060 00000000 		.word	SpeedData
 951 0064 00000000 		.word	HallData
 952 0068 00000000 		.word	dspeeds
 953 006c 00000000 		.word	pwms
 954 0070 00000000 		.word	PosnData
 955 0074 00000000 		.word	sensor_control
 956 0078 00000000 		.word	enable
 957 007c 00000000 		.word	.LC4
 958              		.cfi_endproc
 959              	.LFE67:
 961              		.section	.rodata.immediate_quit.str1.4,"aMS",%progbits,1
 962              		.align	2
 963              	.LC5:
 964 0000 496D6D65 		.ascii	"Immediate commands disabled\015\012\000"
 964      64696174 
 964      6520636F 
 964      6D6D616E 
 964      64732064 
 965              		.section	.text.immediate_quit,"ax",%progbits
 966              		.align	1
 967              		.global	immediate_quit
 968              		.syntax unified
 969              		.thumb
 970              		.thumb_func
 972              	immediate_quit:
 973              	.LVL82:
 974              	.LFB68:
 191:src/ascii_proto_funcs.c **** 
 192:src/ascii_proto_funcs.c **** int immediate_quit(PROTOCOL_STAT *s, char byte, char *ascii_out) {
 975              		.loc 1 192 66 is_stmt 1 view -0
 976              		.cfi_startproc
 977              		@ args = 0, pretend = 0, frame = 0
 978              		@ frame_needed = 0, uses_anonymous_args = 0
 979              		@ link register save eliminated.
 980              		.loc 1 192 66 is_stmt 0 view .LVU183
 981 0000 10B4     		push	{r4}
 982              	.LCFI6:
 983              		.cfi_def_cfa_offset 4
 984              		.cfi_offset 4, -4
 985 0002 9446     		mov	ip, r2
 193:src/ascii_proto_funcs.c ****     s->ascii.enable_immediate = 0;
 986              		.loc 1 193 5 is_stmt 1 view .LVU184
 987              		.loc 1 193 31 is_stmt 0 view .LVU185
ARM GAS  /tmp/ccidYgsI.s 			page 24


 988 0004 00F58050 		add	r0, r0, #4096
 989              	.LVL83:
 990              		.loc 1 193 31 view .LVU186
 991 0008 0023     		movs	r3, #0
 992 000a C362     		str	r3, [r0, #44]
 194:src/ascii_proto_funcs.c ****     speedB = 0;
 993              		.loc 1 194 5 is_stmt 1 view .LVU187
 994              		.loc 1 194 12 is_stmt 0 view .LVU188
 995 000c 184A     		ldr	r2, .L52
 996              	.LVL84:
 997              		.loc 1 194 12 view .LVU189
 998 000e 1360     		str	r3, [r2]
 195:src/ascii_proto_funcs.c ****     steerB = 0;
 999              		.loc 1 195 5 is_stmt 1 view .LVU190
 1000              		.loc 1 195 12 is_stmt 0 view .LVU191
 1001 0010 184A     		ldr	r2, .L52+4
 1002 0012 1360     		str	r3, [r2]
 196:src/ascii_proto_funcs.c ****     PWMData.pwm[1] = CLAMP(speedB * SPEED_COEFFICIENT -  steerB * STEER_COEFFICIENT, -1000, 1000);
 1003              		.loc 1 196 5 is_stmt 1 view .LVU192
 1004              		.loc 1 196 20 is_stmt 0 discriminator 8 view .LVU193
 1005 0014 184A     		ldr	r2, .L52+8
 1006 0016 5360     		str	r3, [r2, #4]
 197:src/ascii_proto_funcs.c ****     PWMData.pwm[0] = CLAMP(speedB * SPEED_COEFFICIENT +  steerB * STEER_COEFFICIENT, -1000, 1000);
 1007              		.loc 1 197 5 is_stmt 1 view .LVU194
 1008              		.loc 1 197 20 is_stmt 0 discriminator 8 view .LVU195
 1009 0018 1360     		str	r3, [r2]
 198:src/ascii_proto_funcs.c ****     SpeedData.wanted_speed_mm_per_sec[0] = SpeedData.wanted_speed_mm_per_sec[1] = speedB;
 1010              		.loc 1 198 5 is_stmt 1 view .LVU196
 1011              		.loc 1 198 81 is_stmt 0 view .LVU197
 1012 001a 184A     		ldr	r2, .L52+12
 1013 001c 5360     		str	r3, [r2, #4]
 1014              		.loc 1 198 42 view .LVU198
 1015 001e 1360     		str	r3, [r2]
 199:src/ascii_proto_funcs.c ****     HallData[0].HallSpeed_mm_per_s = HallData[1].HallSpeed_mm_per_s = 0;
 1016              		.loc 1 199 5 is_stmt 1 view .LVU199
 1017              		.loc 1 199 69 is_stmt 0 view .LVU200
 1018 0020 174A     		ldr	r2, .L52+16
 1019 0022 D363     		str	r3, [r2, #60]
 1020              		.loc 1 199 36 view .LVU201
 1021 0024 9361     		str	r3, [r2, #24]
 200:src/ascii_proto_funcs.c ****     pwms[0] = pwms[1] = speedB;
 1022              		.loc 1 200 5 is_stmt 1 view .LVU202
 1023              		.loc 1 200 23 is_stmt 0 view .LVU203
 1024 0026 1749     		ldr	r1, .L52+20
 1025              	.LVL85:
 1026              		.loc 1 200 23 view .LVU204
 1027 0028 4B60     		str	r3, [r1, #4]
 1028              		.loc 1 200 13 view .LVU205
 1029 002a 0B60     		str	r3, [r1]
 201:src/ascii_proto_funcs.c ****     PosnData.wanted_posn_mm[0] = HallData[0].HallPosn_mm;
 1030              		.loc 1 201 5 is_stmt 1 view .LVU206
 1031              		.loc 1 201 45 is_stmt 0 view .LVU207
 1032 002c 1069     		ldr	r0, [r2, #16]
 1033              	.LVL86:
 1034              		.loc 1 201 32 view .LVU208
 1035 002e 1649     		ldr	r1, .L52+24
 1036 0030 0860     		str	r0, [r1]
ARM GAS  /tmp/ccidYgsI.s 			page 25


 202:src/ascii_proto_funcs.c ****     PosnData.wanted_posn_mm[1] = HallData[1].HallPosn_mm;
 1037              		.loc 1 202 5 is_stmt 1 view .LVU209
 1038              		.loc 1 202 45 is_stmt 0 view .LVU210
 1039 0032 526B     		ldr	r2, [r2, #52]
 1040              		.loc 1 202 32 view .LVU211
 1041 0034 4A60     		str	r2, [r1, #4]
 203:src/ascii_proto_funcs.c **** #ifdef CONTROL_SENSOR
 204:src/ascii_proto_funcs.c ****     sensor_control = 0;
 1042              		.loc 1 204 5 is_stmt 1 view .LVU212
 1043              		.loc 1 204 20 is_stmt 0 view .LVU213
 1044 0036 154A     		ldr	r2, .L52+28
 1045 0038 1360     		str	r3, [r2]
 205:src/ascii_proto_funcs.c **** #endif
 206:src/ascii_proto_funcs.c ****     control_type = 0;
 1046              		.loc 1 206 5 is_stmt 1 view .LVU214
 1047              		.loc 1 206 18 is_stmt 0 view .LVU215
 1048 003a 154A     		ldr	r2, .L52+32
 1049 003c 1360     		str	r3, [r2]
 207:src/ascii_proto_funcs.c ****     enable = 0;
 1050              		.loc 1 207 5 is_stmt 1 view .LVU216
 1051              		.loc 1 207 12 is_stmt 0 view .LVU217
 1052 003e 154A     		ldr	r2, .L52+36
 1053 0040 1370     		strb	r3, [r2]
 208:src/ascii_proto_funcs.c ****     sprintf(ascii_out, "Immediate commands disabled\r\n");
 1054              		.loc 1 208 5 is_stmt 1 view .LVU218
 1055 0042 154C     		ldr	r4, .L52+40
 1056 0044 0FCC     		ldmia	r4!, {r0, r1, r2, r3}
 1057 0046 CCF80000 		str	r0, [ip]	@ unaligned
 1058 004a CCF80410 		str	r1, [ip, #4]	@ unaligned
 1059 004e CCF80820 		str	r2, [ip, #8]	@ unaligned
 1060 0052 CCF80C30 		str	r3, [ip, #12]	@ unaligned
 1061 0056 07CC     		ldmia	r4!, {r0, r1, r2}
 1062 0058 CCF81000 		str	r0, [ip, #16]	@ unaligned
 1063 005c CCF81410 		str	r1, [ip, #20]	@ unaligned
 1064 0060 CCF81820 		str	r2, [ip, #24]	@ unaligned
 1065 0064 2388     		ldrh	r3, [r4]	@ unaligned
 1066 0066 ACF81C30 		strh	r3, [ip, #28]	@ unaligned
 209:src/ascii_proto_funcs.c ****     return 1;
 1067              		.loc 1 209 5 view .LVU219
 210:src/ascii_proto_funcs.c **** }
 1068              		.loc 1 210 1 is_stmt 0 view .LVU220
 1069 006a 0120     		movs	r0, #1
 1070 006c 10BC     		pop	{r4}
 1071              	.LCFI7:
 1072              		.cfi_restore 4
 1073              		.cfi_def_cfa_offset 0
 1074 006e 7047     		bx	lr
 1075              	.L53:
 1076              		.align	2
 1077              	.L52:
 1078 0070 00000000 		.word	speedB
 1079 0074 00000000 		.word	steerB
 1080 0078 00000000 		.word	PWMData
 1081 007c 00000000 		.word	SpeedData
 1082 0080 00000000 		.word	HallData
 1083 0084 00000000 		.word	pwms
 1084 0088 00000000 		.word	PosnData
ARM GAS  /tmp/ccidYgsI.s 			page 26


 1085 008c 00000000 		.word	sensor_control
 1086 0090 00000000 		.word	control_type
 1087 0094 00000000 		.word	enable
 1088 0098 00000000 		.word	.LC5
 1089              		.cfi_endproc
 1090              	.LFE68:
 1092              		.section	.rodata.immediate_hall.str1.4,"aMS",%progbits,1
 1093              		.align	2
 1094              	.LC6:
 1095 0000 4C3A2050 		.ascii	"L: P:%ld(%ldmm) S:%ld(%ldmm/s) dT:%lu Skip:%lu Dma:"
 1095      3A256C64 
 1095      28256C64 
 1095      6D6D2920 
 1095      533A256C 
 1096 0033 25640D0A 		.ascii	"%d\015\012R: P:%ld(%ldmm) S:%ld(%ldmm/s) dT:%lu Ski"
 1096      523A2050 
 1096      3A256C64 
 1096      28256C64 
 1096      6D6D2920 
 1097 0060 703A256C 		.ascii	"p:%lu Dma:%d\015\012\000"
 1097      7520446D 
 1097      613A2564 
 1097      0D0A00
 1098              		.section	.text.immediate_hall,"ax",%progbits
 1099              		.align	1
 1100              		.global	immediate_hall
 1101              		.syntax unified
 1102              		.thumb
 1103              		.thumb_func
 1105              	immediate_hall:
 1106              	.LVL87:
 1107              	.LFB69:
 211:src/ascii_proto_funcs.c **** 
 212:src/ascii_proto_funcs.c **** int immediate_hall(PROTOCOL_STAT *s, char byte, char *ascii_out) {
 1108              		.loc 1 212 66 is_stmt 1 view -0
 1109              		.cfi_startproc
 1110              		@ args = 0, pretend = 0, frame = 8
 1111              		@ frame_needed = 0, uses_anonymous_args = 0
 1112              		.loc 1 212 66 is_stmt 0 view .LVU222
 1113 0000 2DE9F04F 		push	{r4, r5, r6, r7, r8, r9, r10, fp, lr}
 1114              	.LCFI8:
 1115              		.cfi_def_cfa_offset 36
 1116              		.cfi_offset 4, -36
 1117              		.cfi_offset 5, -32
 1118              		.cfi_offset 6, -28
 1119              		.cfi_offset 7, -24
 1120              		.cfi_offset 8, -20
 1121              		.cfi_offset 9, -16
 1122              		.cfi_offset 10, -12
 1123              		.cfi_offset 11, -8
 1124              		.cfi_offset 14, -4
 1125 0004 8FB0     		sub	sp, sp, #60
 1126              	.LCFI9:
 1127              		.cfi_def_cfa_offset 96
 1128 0006 0D92     		str	r2, [sp, #52]
 213:src/ascii_proto_funcs.c ****     sprintf(ascii_out,
 1129              		.loc 1 213 5 is_stmt 1 view .LVU223
ARM GAS  /tmp/ccidYgsI.s 			page 27


 214:src/ascii_proto_funcs.c ****         "L: P:%ld(%ldmm) S:%ld(%ldmm/s) dT:%lu Skip:%lu Dma:%d\r\n"\
 215:src/ascii_proto_funcs.c ****         "R: P:%ld(%ldmm) S:%ld(%ldmm/s) dT:%lu Skip:%lu Dma:%d\r\n",
 216:src/ascii_proto_funcs.c ****         HallData[0].HallPosn, HallData[0].HallPosn_mm, HallData[0].HallSpeed, HallData[0].HallSpeed
 1130              		.loc 1 216 20 is_stmt 0 view .LVU224
 1131 0008 1849     		ldr	r1, .L56
 1132              	.LVL88:
 1133              		.loc 1 216 20 view .LVU225
 1134 000a 0A68     		ldr	r2, [r1]
 1135              	.LVL89:
 1136              		.loc 1 216 42 view .LVU226
 1137 000c 0B69     		ldr	r3, [r1, #16]
 1138              		.loc 1 216 67 view .LVU227
 1139 000e 4C68     		ldr	r4, [r1, #4]
 1140              		.loc 1 216 90 view .LVU228
 1141 0010 8D69     		ldr	r5, [r1, #24]
 1142              		.loc 1 216 122 view .LVU229
 1143 0012 CE69     		ldr	r6, [r1, #28]
 1144              		.loc 1 216 148 view .LVU230
 1145 0014 0F6A     		ldr	r7, [r1, #32]
 1146              		.loc 1 216 182 view .LVU231
 1147 0016 1648     		ldr	r0, .L56+4
 1148              	.LVL90:
 1149              		.loc 1 216 182 view .LVU232
 1150 0018 D0F829C0 		ldr	ip, [r0, #41]	@ unaligned
 217:src/ascii_proto_funcs.c ****         HallData[1].HallPosn, HallData[1].HallPosn_mm, HallData[1].HallSpeed, HallData[1].HallSpeed
 1151              		.loc 1 217 20 view .LVU233
 1152 001c D1F824E0 		ldr	lr, [r1, #36]
 1153              		.loc 1 217 42 view .LVU234
 1154 0020 D1F83480 		ldr	r8, [r1, #52]
 1155              		.loc 1 217 67 view .LVU235
 1156 0024 D1F82890 		ldr	r9, [r1, #40]
 1157              		.loc 1 217 90 view .LVU236
 1158 0028 D1F83CA0 		ldr	r10, [r1, #60]
 1159              		.loc 1 217 122 view .LVU237
 1160 002c D1F840B0 		ldr	fp, [r1, #64]
 1161              		.loc 1 217 148 view .LVU238
 1162 0030 496C     		ldr	r1, [r1, #68]
 1163              		.loc 1 217 182 view .LVU239
 1164 0032 D0F85A00 		ldr	r0, [r0, #90]	@ unaligned
 213:src/ascii_proto_funcs.c ****     sprintf(ascii_out,
 1165              		.loc 1 213 5 view .LVU240
 1166 0036 0B90     		str	r0, [sp, #44]
 1167 0038 0A91     		str	r1, [sp, #40]
 1168 003a CDF824B0 		str	fp, [sp, #36]
 1169 003e CDF820A0 		str	r10, [sp, #32]
 1170 0042 CDF81C90 		str	r9, [sp, #28]
 1171 0046 CDF81880 		str	r8, [sp, #24]
 1172 004a CDF814E0 		str	lr, [sp, #20]
 1173 004e CDF810C0 		str	ip, [sp, #16]
 1174 0052 0397     		str	r7, [sp, #12]
 1175 0054 0296     		str	r6, [sp, #8]
 1176 0056 0195     		str	r5, [sp, #4]
 1177 0058 0094     		str	r4, [sp]
 1178 005a 0649     		ldr	r1, .L56+8
 1179 005c 0D98     		ldr	r0, [sp, #52]
 1180 005e FFF7FEFF 		bl	sprintf
 1181              	.LVL91:
ARM GAS  /tmp/ccidYgsI.s 			page 28


 218:src/ascii_proto_funcs.c ****     );
 219:src/ascii_proto_funcs.c ****     return 1;
 1182              		.loc 1 219 5 is_stmt 1 view .LVU241
 220:src/ascii_proto_funcs.c **** }
 1183              		.loc 1 220 1 is_stmt 0 view .LVU242
 1184 0062 0120     		movs	r0, #1
 1185 0064 0FB0     		add	sp, sp, #60
 1186              	.LCFI10:
 1187              		.cfi_def_cfa_offset 36
 1188              		@ sp needed
 1189 0066 BDE8F08F 		pop	{r4, r5, r6, r7, r8, r9, r10, fp, pc}
 1190              	.LVL92:
 1191              	.L57:
 1192              		.loc 1 220 1 view .LVU243
 1193 006a 00BF     		.align	2
 1194              	.L56:
 1195 006c 00000000 		.word	HallData
 1196 0070 00000000 		.word	local_hall_params
 1197 0074 00000000 		.word	.LC6
 1198              		.cfi_endproc
 1199              	.LFE69:
 1201              		.section	.rodata.immediate_sensors.str1.4,"aMS",%progbits,1
 1202              		.align	2
 1203              	.LC7:
 1204 0000 4C3A204F 		.ascii	"L: OK:%d Foot:%d Angle:%d Roll:%d Accel:%d\015\012R"
 1204      4B3A2564 
 1204      20466F6F 
 1204      743A2564 
 1204      20416E67 
 1205 002d 3A204F4B 		.ascii	": OK:%d Foot:%d Angle:%d Roll:%d Accel:%d\015\012\000"
 1205      3A256420 
 1205      466F6F74 
 1205      3A256420 
 1205      416E676C 
 1206              		.section	.text.immediate_sensors,"ax",%progbits
 1207              		.align	1
 1208              		.global	immediate_sensors
 1209              		.syntax unified
 1210              		.thumb
 1211              		.thumb_func
 1213              	immediate_sensors:
 1214              	.LVL93:
 1215              	.LFB70:
 221:src/ascii_proto_funcs.c **** 
 222:src/ascii_proto_funcs.c **** int immediate_sensors(PROTOCOL_STAT *s, char byte, char *ascii_out) {
 1216              		.loc 1 222 69 is_stmt 1 view -0
 1217              		.cfi_startproc
 1218              		@ args = 0, pretend = 0, frame = 0
 1219              		@ frame_needed = 0, uses_anonymous_args = 0
 1220              		.loc 1 222 69 is_stmt 0 view .LVU245
 1221 0000 F0B5     		push	{r4, r5, r6, r7, lr}
 1222              	.LCFI11:
 1223              		.cfi_def_cfa_offset 20
 1224              		.cfi_offset 4, -20
 1225              		.cfi_offset 5, -16
 1226              		.cfi_offset 6, -12
 1227              		.cfi_offset 7, -8
ARM GAS  /tmp/ccidYgsI.s 			page 29


 1228              		.cfi_offset 14, -4
 1229 0002 89B0     		sub	sp, sp, #36
 1230              	.LCFI12:
 1231              		.cfi_def_cfa_offset 56
 1232 0004 1046     		mov	r0, r2
 1233              	.LVL94:
 223:src/ascii_proto_funcs.c **** #ifdef CONTROL_SENSOR
 224:src/ascii_proto_funcs.c ****     sprintf(ascii_out,
 1234              		.loc 1 224 5 is_stmt 1 view .LVU246
 225:src/ascii_proto_funcs.c ****         "L: OK:%d Foot:%d Angle:%d Roll:%d Accel:%d\r\n"\
 226:src/ascii_proto_funcs.c ****         "R: OK:%d Foot:%d Angle:%d Roll:%d Accel:%d\r\n",
 227:src/ascii_proto_funcs.c ****         sensor_data[0].sensor_ok, (sensor_data[0].complete.AA_55 == 0x55)?1:0, sensor_data[0].compl
 1235              		.loc 1 227 59 is_stmt 0 view .LVU247
 1236 0006 164A     		ldr	r2, .L60
 1237              	.LVL95:
 1238              		.loc 1 227 59 view .LVU248
 1239 0008 92F82130 		ldrb	r3, [r2, #33]	@ zero_extendqisi2
 1240              		.loc 1 227 103 view .LVU249
 1241 000c B2F91D40 		ldrsh	r4, [r2, #29]	@ unaligned
 1242              		.loc 1 227 134 view .LVU250
 1243 0010 B2F92450 		ldrsh	r5, [r2, #36]	@ unaligned
 1244              		.loc 1 227 164 view .LVU251
 1245 0014 92F82260 		ldrb	r6, [r2, #34]	@ zero_extendqisi2
 228:src/ascii_proto_funcs.c ****         sensor_data[1].sensor_ok, (sensor_data[1].complete.AA_55 == 0x55)?1:0, sensor_data[1].compl
 1246              		.loc 1 228 59 view .LVU252
 1247 0018 92F86B10 		ldrb	r1, [r2, #107]	@ zero_extendqisi2
 1248              	.LVL96:
 1249              		.loc 1 228 103 view .LVU253
 1250 001c B2F96770 		ldrsh	r7, [r2, #103]	@ unaligned
 1251              		.loc 1 228 134 view .LVU254
 1252 0020 B2F96EC0 		ldrsh	ip, [r2, #110]	@ unaligned
 1253              		.loc 1 228 164 view .LVU255
 1254 0024 92F86CE0 		ldrb	lr, [r2, #108]	@ zero_extendqisi2
 224:src/ascii_proto_funcs.c ****         "L: OK:%d Foot:%d Angle:%d Roll:%d Accel:%d\r\n"\
 1255              		.loc 1 224 5 view .LVU256
 1256 0028 CDF81CE0 		str	lr, [sp, #28]
 1257 002c CDF818C0 		str	ip, [sp, #24]
 1258 0030 0597     		str	r7, [sp, #20]
 1259 0032 5529     		cmp	r1, #85
 1260 0034 14BF     		ite	ne
 1261 0036 0021     		movne	r1, #0
 1262 0038 0121     		moveq	r1, #1
 1263 003a 0491     		str	r1, [sp, #16]
 1264 003c 116F     		ldr	r1, [r2, #112]	@ unaligned
 1265 003e 0391     		str	r1, [sp, #12]
 1266 0040 0296     		str	r6, [sp, #8]
 1267 0042 0195     		str	r5, [sp, #4]
 1268 0044 0094     		str	r4, [sp]
 1269 0046 552B     		cmp	r3, #85
 1270 0048 14BF     		ite	ne
 1271 004a 0023     		movne	r3, #0
 1272 004c 0123     		moveq	r3, #1
 1273 004e D2F82620 		ldr	r2, [r2, #38]	@ unaligned
 1274 0052 0449     		ldr	r1, .L60+4
 1275 0054 FFF7FEFF 		bl	sprintf
 1276              	.LVL97:
 229:src/ascii_proto_funcs.c ****     );
ARM GAS  /tmp/ccidYgsI.s 			page 30


 230:src/ascii_proto_funcs.c **** #else
 231:src/ascii_proto_funcs.c ****     sprintf(ascii_out, "Sensor Data not available\r\n");
 232:src/ascii_proto_funcs.c **** #endif
 233:src/ascii_proto_funcs.c ****     return 1;
 1277              		.loc 1 233 5 is_stmt 1 view .LVU257
 234:src/ascii_proto_funcs.c **** }
 1278              		.loc 1 234 1 is_stmt 0 view .LVU258
 1279 0058 0120     		movs	r0, #1
 1280 005a 09B0     		add	sp, sp, #36
 1281              	.LCFI13:
 1282              		.cfi_def_cfa_offset 20
 1283              		@ sp needed
 1284 005c F0BD     		pop	{r4, r5, r6, r7, pc}
 1285              	.L61:
 1286 005e 00BF     		.align	2
 1287              	.L60:
 1288 0060 00000000 		.word	sensor_data
 1289 0064 00000000 		.word	.LC7
 1290              		.cfi_endproc
 1291              	.LFE70:
 1293              		.section	.text.line_sensors,"ax",%progbits
 1294              		.align	1
 1295              		.global	line_sensors
 1296              		.syntax unified
 1297              		.thumb
 1298              		.thumb_func
 1300              	line_sensors:
 1301              	.LVL98:
 1302              	.LFB84:
 235:src/ascii_proto_funcs.c **** 
 236:src/ascii_proto_funcs.c **** int immediate_electrical(PROTOCOL_STAT *s, char byte, char *ascii_out) {
 237:src/ascii_proto_funcs.c ****     sprintf(ascii_out,
 238:src/ascii_proto_funcs.c ****         "Bat: %dmV(%d) Temp:%dC(%d)\r\n"
 239:src/ascii_proto_funcs.c ****         "L: Current:%dmA Avg:%dmA r1:%d r2:%d\r\n"\
 240:src/ascii_proto_funcs.c ****         "R: Current:%dmA Avg:%dmA r1:%d r2:%d\r\n",
 241:src/ascii_proto_funcs.c ****         (int)(electrical_measurements.batteryVoltage*1000), electrical_measurements.bat_raw,
 242:src/ascii_proto_funcs.c ****         (int)electrical_measurements.board_temp_deg_c, electrical_measurements.board_temp_raw,
 243:src/ascii_proto_funcs.c ****         (int)(electrical_measurements.motors[0].dcAmps*1000.0), (int)(electrical_measurements.motor
 244:src/ascii_proto_funcs.c ****         (int)(electrical_measurements.motors[1].dcAmps*1000.0), (int)(electrical_measurements.motor
 245:src/ascii_proto_funcs.c ****     );
 246:src/ascii_proto_funcs.c ****     return 1;
 247:src/ascii_proto_funcs.c **** }
 248:src/ascii_proto_funcs.c **** 
 249:src/ascii_proto_funcs.c **** int immediate_stm32(PROTOCOL_STAT *s, char byte, char *ascii_out) {
 250:src/ascii_proto_funcs.c **** //        case 'G':
 251:src/ascii_proto_funcs.c ****     sprintf(ascii_out,
 252:src/ascii_proto_funcs.c ****         "A:%04X B:%04X C:%04X D:%04X E:%04X\r\n"\
 253:src/ascii_proto_funcs.c ****         "Button: %d Charge:%d\r\n",
 254:src/ascii_proto_funcs.c ****         (int)GPIOA->IDR, (int)GPIOB->IDR, (int)GPIOC->IDR, (int)GPIOD->IDR, (int)GPIOE->IDR,
 255:src/ascii_proto_funcs.c ****         (int)(BUTTON_PORT->IDR & BUTTON_PIN)?1:0,
 256:src/ascii_proto_funcs.c ****         (int)(CHARGER_PORT->IDR & CHARGER_PIN)?1:0
 257:src/ascii_proto_funcs.c ****     );
 258:src/ascii_proto_funcs.c ****     return 1;
 259:src/ascii_proto_funcs.c **** }
 260:src/ascii_proto_funcs.c **** 
 261:src/ascii_proto_funcs.c **** int immediate_toggle_control(PROTOCOL_STAT *s, char byte, char *ascii_out) {
 262:src/ascii_proto_funcs.c **** //case 'O':
ARM GAS  /tmp/ccidYgsI.s 			page 31


 263:src/ascii_proto_funcs.c ****     int control_old = control_type;
 264:src/ascii_proto_funcs.c ****     //stop all
 265:src/ascii_proto_funcs.c ****     immediate_stop(s, byte, ascii_out);
 266:src/ascii_proto_funcs.c ****     ascii_out += strlen(ascii_out);
 267:src/ascii_proto_funcs.c ****     control_type = (control_old+1) % CONTROL_TYPE_MAX;
 268:src/ascii_proto_funcs.c ****     sprintf(ascii_out, "control type now %d (%s)\r\n", control_type, control_types[control_type]);
 269:src/ascii_proto_funcs.c ****     return 1;
 270:src/ascii_proto_funcs.c **** }
 271:src/ascii_proto_funcs.c **** 
 272:src/ascii_proto_funcs.c **** int line_set_alarm(PROTOCOL_STAT *s, char *cmd, char *ascii_out) {
 273:src/ascii_proto_funcs.c **** //case 'A':
 274:src/ascii_proto_funcs.c ****     int a = 0;
 275:src/ascii_proto_funcs.c ****     int b = 0;
 276:src/ascii_proto_funcs.c ****     int c = 0;
 277:src/ascii_proto_funcs.c ****     if (strlen(cmd) > 1){
 278:src/ascii_proto_funcs.c ****         sscanf(cmd+1, "%d %d %d", &a, &b, &c);
 279:src/ascii_proto_funcs.c ****     }
 280:src/ascii_proto_funcs.c ****     if (a && (0==c)){
 281:src/ascii_proto_funcs.c ****         c = 1000;
 282:src/ascii_proto_funcs.c ****     }
 283:src/ascii_proto_funcs.c **** 
 284:src/ascii_proto_funcs.c ****     buzzerFreq = a;
 285:src/ascii_proto_funcs.c ****     buzzerPattern = b;
 286:src/ascii_proto_funcs.c ****     buzzerLen = c/5; // roughly 5ms per main loop, so 1s default
 287:src/ascii_proto_funcs.c ****     sprintf(ascii_out, "Alarm set to %d %d %d\r\n", a, b, c);
 288:src/ascii_proto_funcs.c ****     return 1;
 289:src/ascii_proto_funcs.c **** }
 290:src/ascii_proto_funcs.c **** 
 291:src/ascii_proto_funcs.c **** int line_toggle_sensor_control(PROTOCOL_STAT *s, char *cmd, char *ascii_out) {
 292:src/ascii_proto_funcs.c **** #ifdef CONTROL_SENSOR
 293:src/ascii_proto_funcs.c **** //case 'B':
 294:src/ascii_proto_funcs.c ****     sensor_control ^= 1;
 295:src/ascii_proto_funcs.c ****     control_type = 0;
 296:src/ascii_proto_funcs.c ****     speedB = 0;
 297:src/ascii_proto_funcs.c ****     steerB = 0;
 298:src/ascii_proto_funcs.c ****     SpeedData.wanted_speed_mm_per_sec[0] = SpeedData.wanted_speed_mm_per_sec[1] = speedB;
 299:src/ascii_proto_funcs.c ****     PosnData.wanted_posn_mm[0] = HallData[0].HallPosn_mm;
 300:src/ascii_proto_funcs.c ****     PosnData.wanted_posn_mm[1] = HallData[1].HallPosn_mm;
 301:src/ascii_proto_funcs.c ****     sprintf(ascii_out, "Sensor control now %d\r\n", sensor_control);
 302:src/ascii_proto_funcs.c **** #endif
 303:src/ascii_proto_funcs.c ****     return 1;
 304:src/ascii_proto_funcs.c **** }
 305:src/ascii_proto_funcs.c **** 
 306:src/ascii_proto_funcs.c **** 
 307:src/ascii_proto_funcs.c **** int line_electrical(PROTOCOL_STAT *s, char *cmd, char *ascii_out) {
 308:src/ascii_proto_funcs.c **** //case 'c':
 309:src/ascii_proto_funcs.c ****     immediate_electrical(s, *cmd, ascii_out);
 310:src/ascii_proto_funcs.c ****     return 1;
 311:src/ascii_proto_funcs.c **** }
 312:src/ascii_proto_funcs.c **** 
 313:src/ascii_proto_funcs.c **** int line_main_timing_stats(PROTOCOL_STAT *s, char *cmd, char *ascii_out) {
 314:src/ascii_proto_funcs.c **** //case 's': // display stats from main timing
 315:src/ascii_proto_funcs.c ****     // we don't have float printing
 316:src/ascii_proto_funcs.c ****     sprintf(ascii_out, "Main loop interval_us %d; lates %d, processing_us %d\r\n",
 317:src/ascii_proto_funcs.c ****         (int)(timeStats.main_interval_ms * 1000), timeStats.main_late_count, (int)(timeStats.main_p
 318:src/ascii_proto_funcs.c ****     return 1;
 319:src/ascii_proto_funcs.c **** }
ARM GAS  /tmp/ccidYgsI.s 			page 32


 320:src/ascii_proto_funcs.c **** 
 321:src/ascii_proto_funcs.c **** 
 322:src/ascii_proto_funcs.c **** int line_debug_control(PROTOCOL_STAT *s, char *cmd, char *ascii_out) {
 323:src/ascii_proto_funcs.c **** //case 'E':
 324:src/ascii_proto_funcs.c ****     if (strlen(cmd) == 1){
 325:src/ascii_proto_funcs.c ****         debug_out = 0;
 326:src/ascii_proto_funcs.c ****         enablescope = 0;
 327:src/ascii_proto_funcs.c ****     } else {
 328:src/ascii_proto_funcs.c ****         if ((cmd[1] | 0x20) == 's'){
 329:src/ascii_proto_funcs.c ****             enablescope = 1;
 330:src/ascii_proto_funcs.c ****             debug_out = 1;
 331:src/ascii_proto_funcs.c ****         }
 332:src/ascii_proto_funcs.c ****         if ((cmd[1] | 0x20) == 'c'){
 333:src/ascii_proto_funcs.c ****             debug_out = 1;
 334:src/ascii_proto_funcs.c ****         }
 335:src/ascii_proto_funcs.c ****     }
 336:src/ascii_proto_funcs.c ****     sprintf(ascii_out, "debug_out now %d\r\nenablescope now %d\r\n", debug_out, enablescope);
 337:src/ascii_proto_funcs.c ****     return 1;
 338:src/ascii_proto_funcs.c **** }
 339:src/ascii_proto_funcs.c **** 
 340:src/ascii_proto_funcs.c **** 
 341:src/ascii_proto_funcs.c **** 
 342:src/ascii_proto_funcs.c **** // NOTE: needs params
 343:src/ascii_proto_funcs.c **** int line_generic_var(PROTOCOL_STAT *s, char *cmd, char *ascii_out) {
 344:src/ascii_proto_funcs.c **** //case 'f': // setting any parameter marked with uistr
 345:src/ascii_proto_funcs.c ****     int len = strlen(cmd);
 346:src/ascii_proto_funcs.c ****     if (len == 1){
 347:src/ascii_proto_funcs.c ****         sprintf(ascii_out, "no flash var given\r\n");
 348:src/ascii_proto_funcs.c ****     } else {
 349:src/ascii_proto_funcs.c ****         if ((cmd[1] | 0x20) == 'i'){ // initilaise
 350:src/ascii_proto_funcs.c ****             memset(&FlashContent, 0, sizeof(FlashContent));
 351:src/ascii_proto_funcs.c ****             memcpy(&FlashContent, &FlashDefaults, (sizeof(FlashContent) < sizeof(FlashDefaults))?si
 352:src/ascii_proto_funcs.c ****             writeFlash( (unsigned char *)&FlashContent, sizeof(FlashContent) );
 353:src/ascii_proto_funcs.c ****             sprintf(ascii_out, "Flash initialised\r\n");
 354:src/ascii_proto_funcs.c ****         } else {
 355:src/ascii_proto_funcs.c ****             if ((cmd[1] | 0x20) == 'a'){
 356:src/ascii_proto_funcs.c ****                 // read all
 357:src/ascii_proto_funcs.c ****                 for (int i = 0; i < (sizeof(s->params)/sizeof(s->params[0])); i++){
 358:src/ascii_proto_funcs.c ****                     if(s->params[i] != NULL) {
 359:src/ascii_proto_funcs.c ****                         if (s->params[i]->uistr){
 360:src/ascii_proto_funcs.c ****                             switch (s->params[i]->ui_type){
 361:src/ascii_proto_funcs.c ****                                 case UI_SHORT:
 362:src/ascii_proto_funcs.c ****                                 {
 363:src/ascii_proto_funcs.c ****                                     // read it
 364:src/ascii_proto_funcs.c **** 
 365:src/ascii_proto_funcs.c ****                                     PROTOCOL_MSG3full newMsg;
 366:src/ascii_proto_funcs.c ****                                     memset((void*)&newMsg,0x00,sizeof(PROTOCOL_MSG3full));
 367:src/ascii_proto_funcs.c **** 
 368:src/ascii_proto_funcs.c ****                                     if (s->params[i]->fn) s->params[i]->fn( s, s->params[i], PROTOC
 369:src/ascii_proto_funcs.c **** 
 370:src/ascii_proto_funcs.c ****                                     sprintf(ascii_out, "%s(%s): %d\r\n",
 371:src/ascii_proto_funcs.c ****                                             (s->params[i]->description)?s->params[i]->description:"
 372:src/ascii_proto_funcs.c ****                                             s->params[i]->uistr,
 373:src/ascii_proto_funcs.c ****                                             (int)*(short *)newMsg.content);
 374:src/ascii_proto_funcs.c ****                                     s->send_serial_data_wait((unsigned char *)ascii_out, strlen(asc
 375:src/ascii_proto_funcs.c ****                                     ascii_out[0] = 0; // don't print last one twice
 376:src/ascii_proto_funcs.c ****                                     break;
ARM GAS  /tmp/ccidYgsI.s 			page 33


 377:src/ascii_proto_funcs.c ****                                 }
 378:src/ascii_proto_funcs.c ****                                 default:
 379:src/ascii_proto_funcs.c ****                                     break;
 380:src/ascii_proto_funcs.c ****                             }
 381:src/ascii_proto_funcs.c ****                         }
 382:src/ascii_proto_funcs.c ****                     }
 383:src/ascii_proto_funcs.c ****                 }
 384:src/ascii_proto_funcs.c ****             } else {
 385:src/ascii_proto_funcs.c ****                 int i = 0;
 386:src/ascii_proto_funcs.c ****                 int count = (sizeof(s->params)/sizeof(s->params[0]));
 387:src/ascii_proto_funcs.c ****                 for (i = 0; i < count; i++){
 388:src/ascii_proto_funcs.c ****                     if(s->params[i] != NULL) {
 389:src/ascii_proto_funcs.c ****                         if (s->params[i]->uistr){
 390:src/ascii_proto_funcs.c ****                             if (!strncmp(s->params[i]->uistr, &cmd[1], strlen(s->params[i]->uistr))
 391:src/ascii_proto_funcs.c ****                                 switch (s->params[i]->ui_type){
 392:src/ascii_proto_funcs.c ****                                     case UI_SHORT:
 393:src/ascii_proto_funcs.c ****                                         // if number supplied, write
 394:src/ascii_proto_funcs.c ****                                         if ((cmd[1+strlen(s->params[i]->uistr)] >= '0') && (cmd[1+s
 395:src/ascii_proto_funcs.c **** 
 396:src/ascii_proto_funcs.c ****                                             PROTOCOL_MSG3full newMsg;
 397:src/ascii_proto_funcs.c ****                                             memset((void*)&newMsg,0x00,sizeof(PROTOCOL_MSG3full));
 398:src/ascii_proto_funcs.c **** 
 399:src/ascii_proto_funcs.c ****                                             *((short *)newMsg.content) = atoi(&cmd[1+strlen(s->para
 400:src/ascii_proto_funcs.c ****                                             newMsg.code = s->params[i]->code;
 401:src/ascii_proto_funcs.c ****                                             newMsg.cmd = PROTOCOL_CMD_READVALRESPONSE;
 402:src/ascii_proto_funcs.c **** 
 403:src/ascii_proto_funcs.c ****                                             if (s->params[i]->fn) s->params[i]->fn( s, s->params[i]
 404:src/ascii_proto_funcs.c **** 
 405:src/ascii_proto_funcs.c **** 
 406:src/ascii_proto_funcs.c ****                                             sprintf(ascii_out, "flash var %s(%s) now %d\r\n",
 407:src/ascii_proto_funcs.c ****                                                 (s->params[i]->description)?s->params[i]->descripti
 408:src/ascii_proto_funcs.c ****                                                 s->params[i]->uistr,
 409:src/ascii_proto_funcs.c ****                                                 (int)*(short *)s->params[i]->ptr);
 410:src/ascii_proto_funcs.c ****                                         } else {
 411:src/ascii_proto_funcs.c ****                                             // read it
 412:src/ascii_proto_funcs.c ****                                             PROTOCOL_MSG3full newMsg;
 413:src/ascii_proto_funcs.c ****                                             memset((void*)&newMsg,0x00,sizeof(PROTOCOL_MSG3full));
 414:src/ascii_proto_funcs.c **** 
 415:src/ascii_proto_funcs.c ****                                             if (s->params[i]->fn) s->params[i]->fn( s, s->params[i]
 416:src/ascii_proto_funcs.c **** 
 417:src/ascii_proto_funcs.c ****                                             sprintf(ascii_out, "%s(%s): %d\r\n",
 418:src/ascii_proto_funcs.c ****                                                     (s->params[i]->description)?s->params[i]->descr
 419:src/ascii_proto_funcs.c ****                                                     s->params[i]->uistr,
 420:src/ascii_proto_funcs.c ****                                                     (int)*(short *)s->params[i]->ptr
 421:src/ascii_proto_funcs.c ****                                             );
 422:src/ascii_proto_funcs.c ****                                             s->send_serial_data_wait((unsigned char *)ascii_out, st
 423:src/ascii_proto_funcs.c ****                                             ascii_out[0] = 0; // don't print last one twice
 424:src/ascii_proto_funcs.c ****                                         }
 425:src/ascii_proto_funcs.c ****                                         break;
 426:src/ascii_proto_funcs.c ****                                     default:
 427:src/ascii_proto_funcs.c ****                                         sprintf(ascii_out, "flash var %s(%s) unsupported type\r\n",
 428:src/ascii_proto_funcs.c ****                                                 (s->params[i]->description)?s->params[i]->descripti
 429:src/ascii_proto_funcs.c ****                                                 s->params[i]->uistr
 430:src/ascii_proto_funcs.c ****                                         );
 431:src/ascii_proto_funcs.c ****                                         break;
 432:src/ascii_proto_funcs.c ****                                 }
 433:src/ascii_proto_funcs.c ****                                 break; // found our param, now leave
ARM GAS  /tmp/ccidYgsI.s 			page 34


 434:src/ascii_proto_funcs.c ****                             }
 435:src/ascii_proto_funcs.c ****                         }
 436:src/ascii_proto_funcs.c ****                     }
 437:src/ascii_proto_funcs.c ****                 }
 438:src/ascii_proto_funcs.c ****                 if (i == count){
 439:src/ascii_proto_funcs.c ****                     sprintf(ascii_out, "unknown flash data %s\r\n", cmd);
 440:src/ascii_proto_funcs.c ****                 }
 441:src/ascii_proto_funcs.c ****             }
 442:src/ascii_proto_funcs.c ****         }
 443:src/ascii_proto_funcs.c ****     }
 444:src/ascii_proto_funcs.c ****     return 1;
 445:src/ascii_proto_funcs.c **** }
 446:src/ascii_proto_funcs.c **** 
 447:src/ascii_proto_funcs.c **** 
 448:src/ascii_proto_funcs.c **** // must be after all params added?
 449:src/ascii_proto_funcs.c **** char *get_F_description(PROTOCOL_STAT *s) {
 450:src/ascii_proto_funcs.c **** 
 451:src/ascii_proto_funcs.c ****     char *p = NULL;
 452:src/ascii_proto_funcs.c ****     int len = 0;
 453:src/ascii_proto_funcs.c **** 
 454:src/ascii_proto_funcs.c ****     // first loop gets len, 2nd loop makes string
 455:src/ascii_proto_funcs.c ****     for (int l = 0; l < 2; l++) {
 456:src/ascii_proto_funcs.c ****         char *t = "print/set a flash constant (Fa to print all, Fi to default all):\r\n"
 457:src/ascii_proto_funcs.c ****                 "  Fss - print, Fss<n> - set\r\n";
 458:src/ascii_proto_funcs.c **** 
 459:src/ascii_proto_funcs.c ****         len = strlen(t);
 460:src/ascii_proto_funcs.c **** 
 461:src/ascii_proto_funcs.c ****         if (p) strcat(p, t);
 462:src/ascii_proto_funcs.c **** 
 463:src/ascii_proto_funcs.c ****         for (int i = 0; i < (sizeof(s->params)/sizeof(s->params[0])); i++){
 464:src/ascii_proto_funcs.c ****             if(s->params[i] != NULL) {
 465:src/ascii_proto_funcs.c ****                 if (s->params[i]->uistr){
 466:src/ascii_proto_funcs.c ****                     char tmp[256];
 467:src/ascii_proto_funcs.c ****                     snprintf(tmp, sizeof(tmp)-1,
 468:src/ascii_proto_funcs.c ****                         "  F%s<n> - %s\r\n",
 469:src/ascii_proto_funcs.c ****                             s->params[i]->uistr,
 470:src/ascii_proto_funcs.c ****                             (s->params[i]->description)?s->params[i]->description:""
 471:src/ascii_proto_funcs.c ****                         );
 472:src/ascii_proto_funcs.c ****                     len += strlen(tmp);
 473:src/ascii_proto_funcs.c ****                     if (p) strcat(p, tmp);
 474:src/ascii_proto_funcs.c ****                 }
 475:src/ascii_proto_funcs.c ****             }
 476:src/ascii_proto_funcs.c ****         }
 477:src/ascii_proto_funcs.c **** 
 478:src/ascii_proto_funcs.c ****         if (NULL == p) {
 479:src/ascii_proto_funcs.c ****             p = malloc(len+1);
 480:src/ascii_proto_funcs.c ****             *p = 0;
 481:src/ascii_proto_funcs.c ****         }
 482:src/ascii_proto_funcs.c **** 
 483:src/ascii_proto_funcs.c ****     }
 484:src/ascii_proto_funcs.c ****     return p;
 485:src/ascii_proto_funcs.c **** }
 486:src/ascii_proto_funcs.c **** 
 487:src/ascii_proto_funcs.c **** 
 488:src/ascii_proto_funcs.c **** int line_stm32(PROTOCOL_STAT *s, char *cmd, char *ascii_out) {
 489:src/ascii_proto_funcs.c **** //case 'G':
 490:src/ascii_proto_funcs.c ****     immediate_stm32(s, *cmd, ascii_out);
ARM GAS  /tmp/ccidYgsI.s 			page 35


 491:src/ascii_proto_funcs.c ****     return 1;
 492:src/ascii_proto_funcs.c **** }
 493:src/ascii_proto_funcs.c **** 
 494:src/ascii_proto_funcs.c **** int line_hall(PROTOCOL_STAT *s, char *cmd, char *ascii_out) {
 495:src/ascii_proto_funcs.c **** //case 'H':
 496:src/ascii_proto_funcs.c ****     immediate_hall(s, *cmd, ascii_out);
 497:src/ascii_proto_funcs.c ****     return 1;
 498:src/ascii_proto_funcs.c **** }
 499:src/ascii_proto_funcs.c **** 
 500:src/ascii_proto_funcs.c **** int line_immediate(PROTOCOL_STAT *s, char *cmd, char *ascii_out) {
 501:src/ascii_proto_funcs.c **** //case 'I':
 502:src/ascii_proto_funcs.c ****     speedB = 0;
 503:src/ascii_proto_funcs.c ****     steerB = 0;
 504:src/ascii_proto_funcs.c ****     PWMData.pwm[1] = CLAMP(speedB * SPEED_COEFFICIENT -  steerB * STEER_COEFFICIENT, -1000, 1000);
 505:src/ascii_proto_funcs.c ****     PWMData.pwm[0] = CLAMP(speedB * SPEED_COEFFICIENT +  steerB * STEER_COEFFICIENT, -1000, 1000);
 506:src/ascii_proto_funcs.c ****     SpeedData.wanted_speed_mm_per_sec[0] = SpeedData.wanted_speed_mm_per_sec[1] = speedB;
 507:src/ascii_proto_funcs.c ****     dspeeds[0] = dspeeds[1] = speedB;
 508:src/ascii_proto_funcs.c ****     PosnData.wanted_posn_mm[0] = HallData[0].HallPosn_mm;
 509:src/ascii_proto_funcs.c ****     PosnData.wanted_posn_mm[1] = HallData[1].HallPosn_mm;
 510:src/ascii_proto_funcs.c ****     if (strlen(cmd) == 1){
 511:src/ascii_proto_funcs.c ****         s->ascii.enable_immediate = 1;
 512:src/ascii_proto_funcs.c ****         sprintf(ascii_out, "Immediate commands enabled - WASDXHCGQ\r\n>");
 513:src/ascii_proto_funcs.c ****     } else {
 514:src/ascii_proto_funcs.c ****         switch (cmd[1] | 0x20){
 515:src/ascii_proto_funcs.c ****             case 's':
 516:src/ascii_proto_funcs.c ****                 s->ascii.enable_immediate = 1;
 517:src/ascii_proto_funcs.c ****                 control_type = CONTROL_TYPE_SPEED;
 518:src/ascii_proto_funcs.c ****                 sprintf(ascii_out, "Immediate commands enabled - WASDXHCGQ - Speed control\r\n>");
 519:src/ascii_proto_funcs.c ****                 break;
 520:src/ascii_proto_funcs.c ****             case 'p':
 521:src/ascii_proto_funcs.c ****                 s->ascii.enable_immediate = 1;
 522:src/ascii_proto_funcs.c ****                 control_type = CONTROL_TYPE_POSITION;
 523:src/ascii_proto_funcs.c ****                 sprintf(ascii_out, "Immediate commands enabled - WASDXHCGQ - Position control\r\n>"
 524:src/ascii_proto_funcs.c ****                 break;
 525:src/ascii_proto_funcs.c ****             case 'w':
 526:src/ascii_proto_funcs.c ****                 s->ascii.enable_immediate = 1;
 527:src/ascii_proto_funcs.c ****                 control_type = CONTROL_TYPE_PWM;
 528:src/ascii_proto_funcs.c ****                 sprintf(ascii_out, "Immediate commands enabled - WASDXHCGQ - Power (pWm) control\r\
 529:src/ascii_proto_funcs.c ****                 break;
 530:src/ascii_proto_funcs.c ****         }
 531:src/ascii_proto_funcs.c ****     }
 532:src/ascii_proto_funcs.c ****     return 1;
 533:src/ascii_proto_funcs.c **** }
 534:src/ascii_proto_funcs.c **** 
 535:src/ascii_proto_funcs.c **** int line_sensors(PROTOCOL_STAT *s, char *cmd, char *ascii_out) {
 1303              		.loc 1 535 64 is_stmt 1 view -0
 1304              		.cfi_startproc
 1305              		@ args = 0, pretend = 0, frame = 0
 1306              		@ frame_needed = 0, uses_anonymous_args = 0
 1307              		.loc 1 535 64 is_stmt 0 view .LVU260
 1308 0000 08B5     		push	{r3, lr}
 1309              	.LCFI14:
 1310              		.cfi_def_cfa_offset 8
 1311              		.cfi_offset 3, -8
 1312              		.cfi_offset 14, -4
 536:src/ascii_proto_funcs.c **** //case 'N':
 537:src/ascii_proto_funcs.c ****     immediate_sensors(s, *cmd, ascii_out);
ARM GAS  /tmp/ccidYgsI.s 			page 36


 1313              		.loc 1 537 5 is_stmt 1 view .LVU261
 1314 0002 0978     		ldrb	r1, [r1]	@ zero_extendqisi2
 1315              	.LVL99:
 1316              		.loc 1 537 5 is_stmt 0 view .LVU262
 1317 0004 FFF7FEFF 		bl	immediate_sensors
 1318              	.LVL100:
 538:src/ascii_proto_funcs.c ****     return 1;
 1319              		.loc 1 538 5 is_stmt 1 view .LVU263
 539:src/ascii_proto_funcs.c **** }
 1320              		.loc 1 539 1 is_stmt 0 view .LVU264
 1321 0008 0120     		movs	r0, #1
 1322 000a 08BD     		pop	{r3, pc}
 1323              		.cfi_endproc
 1324              	.LFE84:
 1326              		.global	__aeabi_fmul
 1327              		.global	__aeabi_f2d
 1328              		.global	__aeabi_f2iz
 1329              		.section	.rodata.immediate_electrical.str1.4,"aMS",%progbits,1
 1330              		.align	2
 1331              	.LC8:
 1332 0000 4261743A 		.ascii	"Bat: %dmV(%d) Temp:%dC(%d)\015\012L: Current:%dmA A"
 1332      2025646D 
 1332      56282564 
 1332      29205465 
 1332      6D703A25 
 1333 002d 76673A25 		.ascii	"vg:%dmA r1:%d r2:%d\015\012R: Current:%dmA Avg:%dmA"
 1333      646D4120 
 1333      72313A25 
 1333      64207232 
 1333      3A25640D 
 1334 005a 2072313A 		.ascii	" r1:%d r2:%d\015\012\000"
 1334      25642072 
 1334      323A2564 
 1334      0D0A00
 1335              		.section	.text.immediate_electrical,"ax",%progbits
 1336              		.align	1
 1337              		.global	immediate_electrical
 1338              		.syntax unified
 1339              		.thumb
 1340              		.thumb_func
 1342              	immediate_electrical:
 1343              	.LVL101:
 1344              	.LFB71:
 236:src/ascii_proto_funcs.c ****     sprintf(ascii_out,
 1345              		.loc 1 236 72 is_stmt 1 view -0
 1346              		.cfi_startproc
 1347              		@ args = 0, pretend = 0, frame = 40
 1348              		@ frame_needed = 0, uses_anonymous_args = 0
 236:src/ascii_proto_funcs.c ****     sprintf(ascii_out,
 1349              		.loc 1 236 72 is_stmt 0 view .LVU266
 1350 0000 2DE9F04F 		push	{r4, r5, r6, r7, r8, r9, r10, fp, lr}
 1351              	.LCFI15:
 1352              		.cfi_def_cfa_offset 36
 1353              		.cfi_offset 4, -36
 1354              		.cfi_offset 5, -32
 1355              		.cfi_offset 6, -28
 1356              		.cfi_offset 7, -24
ARM GAS  /tmp/ccidYgsI.s 			page 37


 1357              		.cfi_offset 8, -20
 1358              		.cfi_offset 9, -16
 1359              		.cfi_offset 10, -12
 1360              		.cfi_offset 11, -8
 1361              		.cfi_offset 14, -4
 1362 0004 95B0     		sub	sp, sp, #84
 1363              	.LCFI16:
 1364              		.cfi_def_cfa_offset 120
 1365 0006 0B92     		str	r2, [sp, #44]
 237:src/ascii_proto_funcs.c ****         "Bat: %dmV(%d) Temp:%dC(%d)\r\n"
 1366              		.loc 1 237 5 is_stmt 1 view .LVU267
 241:src/ascii_proto_funcs.c ****         (int)electrical_measurements.board_temp_deg_c, electrical_measurements.board_temp_raw,
 1367              		.loc 1 241 38 is_stmt 0 view .LVU268
 1368 0008 314C     		ldr	r4, .L66
 1369 000a 6068     		ldr	r0, [r4, #4]	@ float
 1370              	.LVL102:
 241:src/ascii_proto_funcs.c ****         (int)electrical_measurements.board_temp_deg_c, electrical_measurements.board_temp_raw,
 1371              		.loc 1 241 53 view .LVU269
 1372 000c 3149     		ldr	r1, .L66+4
 1373              	.LVL103:
 241:src/ascii_proto_funcs.c ****         (int)electrical_measurements.board_temp_deg_c, electrical_measurements.board_temp_raw,
 1374              		.loc 1 241 53 view .LVU270
 1375 000e FFF7FEFF 		bl	__aeabi_fmul
 1376              	.LVL104:
 241:src/ascii_proto_funcs.c ****         (int)electrical_measurements.board_temp_deg_c, electrical_measurements.board_temp_raw,
 1377              		.loc 1 241 53 view .LVU271
 1378 0012 0546     		mov	r5, r0
 241:src/ascii_proto_funcs.c ****         (int)electrical_measurements.board_temp_deg_c, electrical_measurements.board_temp_raw,
 1379              		.loc 1 241 84 view .LVU272
 1380 0014 2668     		ldr	r6, [r4]
 242:src/ascii_proto_funcs.c ****         (int)(electrical_measurements.motors[0].dcAmps*1000.0), (int)(electrical_measurements.motor
 1381              		.loc 1 242 37 view .LVU273
 1382 0016 2769     		ldr	r7, [r4, #16]	@ float
 242:src/ascii_proto_funcs.c ****         (int)(electrical_measurements.motors[0].dcAmps*1000.0), (int)(electrical_measurements.motor
 1383              		.loc 1 242 79 view .LVU274
 1384 0018 D4F80880 		ldr	r8, [r4, #8]
 243:src/ascii_proto_funcs.c ****         (int)(electrical_measurements.motors[1].dcAmps*1000.0), (int)(electrical_measurements.motor
 1385              		.loc 1 243 48 view .LVU275
 1386 001c 206A     		ldr	r0, [r4, #32]	@ float
 1387 001e FFF7FEFF 		bl	__aeabi_f2d
 1388              	.LVL105:
 243:src/ascii_proto_funcs.c ****         (int)(electrical_measurements.motors[1].dcAmps*1000.0), (int)(electrical_measurements.motor
 1389              		.loc 1 243 55 view .LVU276
 1390 0022 0022     		movs	r2, #0
 1391 0024 2C4B     		ldr	r3, .L66+8
 1392 0026 FFF7FEFF 		bl	__aeabi_dmul
 1393              	.LVL106:
 1394 002a CDE90C01 		strd	r0, [sp, #48]
 243:src/ascii_proto_funcs.c ****         (int)(electrical_measurements.motors[1].dcAmps*1000.0), (int)(electrical_measurements.motor
 1395              		.loc 1 243 104 view .LVU277
 1396 002e A06A     		ldr	r0, [r4, #40]	@ float
 1397 0030 FFF7FEFF 		bl	__aeabi_f2d
 1398              	.LVL107:
 243:src/ascii_proto_funcs.c ****         (int)(electrical_measurements.motors[1].dcAmps*1000.0), (int)(electrical_measurements.motor
 1399              		.loc 1 243 114 view .LVU278
 1400 0034 0022     		movs	r2, #0
 1401 0036 284B     		ldr	r3, .L66+8
ARM GAS  /tmp/ccidYgsI.s 			page 38


 1402 0038 FFF7FEFF 		bl	__aeabi_dmul
 1403              	.LVL108:
 1404 003c CDE90E01 		strd	r0, [sp, #56]
 243:src/ascii_proto_funcs.c ****         (int)(electrical_measurements.motors[1].dcAmps*1000.0), (int)(electrical_measurements.motor
 1405              		.loc 1 243 157 view .LVU279
 1406 0040 D4F82C90 		ldr	r9, [r4, #44]
 243:src/ascii_proto_funcs.c ****         (int)(electrical_measurements.motors[1].dcAmps*1000.0), (int)(electrical_measurements.motor
 1407              		.loc 1 243 195 view .LVU280
 1408 0044 D4F830A0 		ldr	r10, [r4, #48]
 244:src/ascii_proto_funcs.c ****     );
 1409              		.loc 1 244 48 view .LVU281
 1410 0048 E06C     		ldr	r0, [r4, #76]	@ float
 1411 004a FFF7FEFF 		bl	__aeabi_f2d
 1412              	.LVL109:
 244:src/ascii_proto_funcs.c ****     );
 1413              		.loc 1 244 55 view .LVU282
 1414 004e 0022     		movs	r2, #0
 1415 0050 214B     		ldr	r3, .L66+8
 1416 0052 FFF7FEFF 		bl	__aeabi_dmul
 1417              	.LVL110:
 1418 0056 CDE91001 		strd	r0, [sp, #64]
 244:src/ascii_proto_funcs.c ****     );
 1419              		.loc 1 244 104 view .LVU283
 1420 005a 606D     		ldr	r0, [r4, #84]	@ float
 1421 005c FFF7FEFF 		bl	__aeabi_f2d
 1422              	.LVL111:
 244:src/ascii_proto_funcs.c ****     );
 1423              		.loc 1 244 114 view .LVU284
 1424 0060 0022     		movs	r2, #0
 1425 0062 1D4B     		ldr	r3, .L66+8
 1426 0064 FFF7FEFF 		bl	__aeabi_dmul
 1427              	.LVL112:
 1428 0068 CDE91201 		strd	r0, [sp, #72]
 244:src/ascii_proto_funcs.c ****     );
 1429              		.loc 1 244 157 view .LVU285
 1430 006c D4F858B0 		ldr	fp, [r4, #88]
 244:src/ascii_proto_funcs.c ****     );
 1431              		.loc 1 244 195 view .LVU286
 1432 0070 E46D     		ldr	r4, [r4, #92]
 237:src/ascii_proto_funcs.c ****         "Bat: %dmV(%d) Temp:%dC(%d)\r\n"
 1433              		.loc 1 237 5 view .LVU287
 1434 0072 2846     		mov	r0, r5
 1435 0074 FFF7FEFF 		bl	__aeabi_f2iz
 1436              	.LVL113:
 1437 0078 0546     		mov	r5, r0
 1438 007a 0994     		str	r4, [sp, #36]
 1439 007c CDF820B0 		str	fp, [sp, #32]
 1440 0080 DDE91201 		ldrd	r0, [sp, #72]
 1441 0084 FFF7FEFF 		bl	__aeabi_d2iz
 1442              	.LVL114:
 1443 0088 0790     		str	r0, [sp, #28]
 1444 008a DDE91001 		ldrd	r0, [sp, #64]
 1445 008e FFF7FEFF 		bl	__aeabi_d2iz
 1446              	.LVL115:
 1447 0092 0690     		str	r0, [sp, #24]
 1448 0094 CDF814A0 		str	r10, [sp, #20]
 1449 0098 CDF81090 		str	r9, [sp, #16]
ARM GAS  /tmp/ccidYgsI.s 			page 39


 1450 009c DDE90E01 		ldrd	r0, [sp, #56]
 1451 00a0 FFF7FEFF 		bl	__aeabi_d2iz
 1452              	.LVL116:
 1453 00a4 0390     		str	r0, [sp, #12]
 1454 00a6 DDE90C01 		ldrd	r0, [sp, #48]
 1455 00aa FFF7FEFF 		bl	__aeabi_d2iz
 1456              	.LVL117:
 1457 00ae 0290     		str	r0, [sp, #8]
 1458 00b0 CDF80480 		str	r8, [sp, #4]
 1459 00b4 3846     		mov	r0, r7
 1460 00b6 FFF7FEFF 		bl	__aeabi_f2iz
 1461              	.LVL118:
 1462 00ba 0090     		str	r0, [sp]
 1463 00bc 3346     		mov	r3, r6
 1464 00be 2A46     		mov	r2, r5
 1465 00c0 0649     		ldr	r1, .L66+12
 1466 00c2 0B98     		ldr	r0, [sp, #44]
 1467 00c4 FFF7FEFF 		bl	sprintf
 1468              	.LVL119:
 246:src/ascii_proto_funcs.c **** }
 1469              		.loc 1 246 5 is_stmt 1 view .LVU288
 247:src/ascii_proto_funcs.c **** 
 1470              		.loc 1 247 1 is_stmt 0 view .LVU289
 1471 00c8 0120     		movs	r0, #1
 1472 00ca 15B0     		add	sp, sp, #84
 1473              	.LCFI17:
 1474              		.cfi_def_cfa_offset 36
 1475              		@ sp needed
 1476 00cc BDE8F08F 		pop	{r4, r5, r6, r7, r8, r9, r10, fp, pc}
 1477              	.LVL120:
 1478              	.L67:
 247:src/ascii_proto_funcs.c **** 
 1479              		.loc 1 247 1 view .LVU290
 1480              		.align	2
 1481              	.L66:
 1482 00d0 00000000 		.word	electrical_measurements
 1483 00d4 00007A44 		.word	1148846080
 1484 00d8 00408F40 		.word	1083129856
 1485 00dc 00000000 		.word	.LC8
 1486              		.cfi_endproc
 1487              	.LFE71:
 1489              		.section	.text.line_electrical,"ax",%progbits
 1490              		.align	1
 1491              		.global	line_electrical
 1492              		.syntax unified
 1493              		.thumb
 1494              		.thumb_func
 1496              	line_electrical:
 1497              	.LVL121:
 1498              	.LFB76:
 307:src/ascii_proto_funcs.c **** //case 'c':
 1499              		.loc 1 307 67 is_stmt 1 view -0
 1500              		.cfi_startproc
 1501              		@ args = 0, pretend = 0, frame = 0
 1502              		@ frame_needed = 0, uses_anonymous_args = 0
 307:src/ascii_proto_funcs.c **** //case 'c':
 1503              		.loc 1 307 67 is_stmt 0 view .LVU292
ARM GAS  /tmp/ccidYgsI.s 			page 40


 1504 0000 08B5     		push	{r3, lr}
 1505              	.LCFI18:
 1506              		.cfi_def_cfa_offset 8
 1507              		.cfi_offset 3, -8
 1508              		.cfi_offset 14, -4
 309:src/ascii_proto_funcs.c ****     return 1;
 1509              		.loc 1 309 5 is_stmt 1 view .LVU293
 1510 0002 0978     		ldrb	r1, [r1]	@ zero_extendqisi2
 1511              	.LVL122:
 309:src/ascii_proto_funcs.c ****     return 1;
 1512              		.loc 1 309 5 is_stmt 0 view .LVU294
 1513 0004 FFF7FEFF 		bl	immediate_electrical
 1514              	.LVL123:
 310:src/ascii_proto_funcs.c **** }
 1515              		.loc 1 310 5 is_stmt 1 view .LVU295
 311:src/ascii_proto_funcs.c **** 
 1516              		.loc 1 311 1 is_stmt 0 view .LVU296
 1517 0008 0120     		movs	r0, #1
 1518 000a 08BD     		pop	{r3, pc}
 1519              		.cfi_endproc
 1520              	.LFE76:
 1522              		.section	.rodata.immediate_stm32.str1.4,"aMS",%progbits,1
 1523              		.align	2
 1524              	.LC9:
 1525 0000 413A2530 		.ascii	"A:%04X B:%04X C:%04X D:%04X E:%04X\015\012Button: %"
 1525      34582042 
 1525      3A253034 
 1525      5820433A 
 1525      25303458 
 1526 002d 64204368 		.ascii	"d Charge:%d\015\012\000"
 1526      61726765 
 1526      3A25640D 
 1526      0A00
 1527              		.section	.text.immediate_stm32,"ax",%progbits
 1528              		.align	1
 1529              		.global	immediate_stm32
 1530              		.syntax unified
 1531              		.thumb
 1532              		.thumb_func
 1534              	immediate_stm32:
 1535              	.LVL124:
 1536              	.LFB72:
 249:src/ascii_proto_funcs.c **** //        case 'G':
 1537              		.loc 1 249 67 is_stmt 1 view -0
 1538              		.cfi_startproc
 1539              		@ args = 0, pretend = 0, frame = 0
 1540              		@ frame_needed = 0, uses_anonymous_args = 0
 249:src/ascii_proto_funcs.c **** //        case 'G':
 1541              		.loc 1 249 67 is_stmt 0 view .LVU298
 1542 0000 F0B5     		push	{r4, r5, r6, r7, lr}
 1543              	.LCFI19:
 1544              		.cfi_def_cfa_offset 20
 1545              		.cfi_offset 4, -20
 1546              		.cfi_offset 5, -16
 1547              		.cfi_offset 6, -12
 1548              		.cfi_offset 7, -8
 1549              		.cfi_offset 14, -4
ARM GAS  /tmp/ccidYgsI.s 			page 41


 1550 0002 87B0     		sub	sp, sp, #28
 1551              	.LCFI20:
 1552              		.cfi_def_cfa_offset 48
 1553 0004 1046     		mov	r0, r2
 1554              	.LVL125:
 251:src/ascii_proto_funcs.c ****         "A:%04X B:%04X C:%04X D:%04X E:%04X\r\n"\
 1555              		.loc 1 251 5 is_stmt 1 view .LVU299
 254:src/ascii_proto_funcs.c ****         (int)(BUTTON_PORT->IDR & BUTTON_PIN)?1:0,
 1556              		.loc 1 254 19 is_stmt 0 view .LVU300
 1557 0006 0E4C     		ldr	r4, .L72
 1558 0008 A268     		ldr	r2, [r4, #8]
 1559              	.LVL126:
 254:src/ascii_proto_funcs.c ****         (int)(BUTTON_PORT->IDR & BUTTON_PIN)?1:0,
 1560              		.loc 1 254 36 view .LVU301
 1561 000a 0E4B     		ldr	r3, .L72+4
 1562 000c 9B68     		ldr	r3, [r3, #8]
 254:src/ascii_proto_funcs.c ****         (int)(BUTTON_PORT->IDR & BUTTON_PIN)?1:0,
 1563              		.loc 1 254 53 view .LVU302
 1564 000e 0E49     		ldr	r1, .L72+8
 1565              	.LVL127:
 254:src/ascii_proto_funcs.c ****         (int)(BUTTON_PORT->IDR & BUTTON_PIN)?1:0,
 1566              		.loc 1 254 53 view .LVU303
 1567 0010 8D68     		ldr	r5, [r1, #8]
 254:src/ascii_proto_funcs.c ****         (int)(BUTTON_PORT->IDR & BUTTON_PIN)?1:0,
 1568              		.loc 1 254 70 view .LVU304
 1569 0012 01F58061 		add	r1, r1, #1024
 1570 0016 8E68     		ldr	r6, [r1, #8]
 254:src/ascii_proto_funcs.c ****         (int)(BUTTON_PORT->IDR & BUTTON_PIN)?1:0,
 1571              		.loc 1 254 87 view .LVU305
 1572 0018 01F58061 		add	r1, r1, #1024
 1573 001c 8F68     		ldr	r7, [r1, #8]
 255:src/ascii_proto_funcs.c ****         (int)(CHARGER_PORT->IDR & CHARGER_PIN)?1:0
 1574              		.loc 1 255 26 view .LVU306
 1575 001e A168     		ldr	r1, [r4, #8]
 256:src/ascii_proto_funcs.c ****     );
 1576              		.loc 1 256 27 view .LVU307
 1577 0020 A468     		ldr	r4, [r4, #8]
 251:src/ascii_proto_funcs.c ****         "A:%04X B:%04X C:%04X D:%04X E:%04X\r\n"\
 1578              		.loc 1 251 5 view .LVU308
 1579 0022 C4F30034 		ubfx	r4, r4, #12, #1
 1580 0026 0494     		str	r4, [sp, #16]
 1581 0028 C1F34001 		ubfx	r1, r1, #1, #1
 1582 002c 0391     		str	r1, [sp, #12]
 1583 002e 0297     		str	r7, [sp, #8]
 1584 0030 0196     		str	r6, [sp, #4]
 1585 0032 0095     		str	r5, [sp]
 1586 0034 0549     		ldr	r1, .L72+12
 1587 0036 FFF7FEFF 		bl	sprintf
 1588              	.LVL128:
 258:src/ascii_proto_funcs.c **** }
 1589              		.loc 1 258 5 is_stmt 1 view .LVU309
 259:src/ascii_proto_funcs.c **** 
 1590              		.loc 1 259 1 is_stmt 0 view .LVU310
 1591 003a 0120     		movs	r0, #1
 1592 003c 07B0     		add	sp, sp, #28
 1593              	.LCFI21:
 1594              		.cfi_def_cfa_offset 20
ARM GAS  /tmp/ccidYgsI.s 			page 42


 1595              		@ sp needed
 1596 003e F0BD     		pop	{r4, r5, r6, r7, pc}
 1597              	.L73:
 1598              		.align	2
 1599              	.L72:
 1600 0040 00080140 		.word	1073809408
 1601 0044 000C0140 		.word	1073810432
 1602 0048 00100140 		.word	1073811456
 1603 004c 00000000 		.word	.LC9
 1604              		.cfi_endproc
 1605              	.LFE72:
 1607              		.section	.text.line_stm32,"ax",%progbits
 1608              		.align	1
 1609              		.global	line_stm32
 1610              		.syntax unified
 1611              		.thumb
 1612              		.thumb_func
 1614              	line_stm32:
 1615              	.LVL129:
 1616              	.LFB81:
 488:src/ascii_proto_funcs.c **** //case 'G':
 1617              		.loc 1 488 62 is_stmt 1 view -0
 1618              		.cfi_startproc
 1619              		@ args = 0, pretend = 0, frame = 0
 1620              		@ frame_needed = 0, uses_anonymous_args = 0
 488:src/ascii_proto_funcs.c **** //case 'G':
 1621              		.loc 1 488 62 is_stmt 0 view .LVU312
 1622 0000 08B5     		push	{r3, lr}
 1623              	.LCFI22:
 1624              		.cfi_def_cfa_offset 8
 1625              		.cfi_offset 3, -8
 1626              		.cfi_offset 14, -4
 490:src/ascii_proto_funcs.c ****     return 1;
 1627              		.loc 1 490 5 is_stmt 1 view .LVU313
 1628 0002 0978     		ldrb	r1, [r1]	@ zero_extendqisi2
 1629              	.LVL130:
 490:src/ascii_proto_funcs.c ****     return 1;
 1630              		.loc 1 490 5 is_stmt 0 view .LVU314
 1631 0004 FFF7FEFF 		bl	immediate_stm32
 1632              	.LVL131:
 491:src/ascii_proto_funcs.c **** }
 1633              		.loc 1 491 5 is_stmt 1 view .LVU315
 492:src/ascii_proto_funcs.c **** 
 1634              		.loc 1 492 1 is_stmt 0 view .LVU316
 1635 0008 0120     		movs	r0, #1
 1636 000a 08BD     		pop	{r3, pc}
 1637              		.cfi_endproc
 1638              	.LFE81:
 1640              		.section	.rodata.line_toggle_sensor_control.str1.4,"aMS",%progbits,1
 1641              		.align	2
 1642              	.LC10:
 1643 0000 53656E73 		.ascii	"Sensor control now %d\015\012\000"
 1643      6F722063 
 1643      6F6E7472 
 1643      6F6C206E 
 1643      6F772025 
 1644              		.section	.text.line_toggle_sensor_control,"ax",%progbits
ARM GAS  /tmp/ccidYgsI.s 			page 43


 1645              		.align	1
 1646              		.global	line_toggle_sensor_control
 1647              		.syntax unified
 1648              		.thumb
 1649              		.thumb_func
 1651              	line_toggle_sensor_control:
 1652              	.LVL132:
 1653              	.LFB75:
 291:src/ascii_proto_funcs.c **** #ifdef CONTROL_SENSOR
 1654              		.loc 1 291 78 is_stmt 1 view -0
 1655              		.cfi_startproc
 1656              		@ args = 0, pretend = 0, frame = 0
 1657              		@ frame_needed = 0, uses_anonymous_args = 0
 291:src/ascii_proto_funcs.c **** #ifdef CONTROL_SENSOR
 1658              		.loc 1 291 78 is_stmt 0 view .LVU318
 1659 0000 10B5     		push	{r4, lr}
 1660              	.LCFI23:
 1661              		.cfi_def_cfa_offset 8
 1662              		.cfi_offset 4, -8
 1663              		.cfi_offset 14, -4
 1664 0002 1046     		mov	r0, r2
 1665              	.LVL133:
 294:src/ascii_proto_funcs.c ****     control_type = 0;
 1666              		.loc 1 294 5 is_stmt 1 view .LVU319
 294:src/ascii_proto_funcs.c ****     control_type = 0;
 1667              		.loc 1 294 20 is_stmt 0 view .LVU320
 1668 0004 0C4B     		ldr	r3, .L78
 1669 0006 1A68     		ldr	r2, [r3]
 1670              	.LVL134:
 294:src/ascii_proto_funcs.c ****     control_type = 0;
 1671              		.loc 1 294 20 view .LVU321
 1672 0008 82F00102 		eor	r2, r2, #1
 1673 000c 1A60     		str	r2, [r3]
 295:src/ascii_proto_funcs.c ****     speedB = 0;
 1674              		.loc 1 295 5 is_stmt 1 view .LVU322
 295:src/ascii_proto_funcs.c ****     speedB = 0;
 1675              		.loc 1 295 18 is_stmt 0 view .LVU323
 1676 000e 0023     		movs	r3, #0
 1677 0010 0A49     		ldr	r1, .L78+4
 1678              	.LVL135:
 295:src/ascii_proto_funcs.c ****     speedB = 0;
 1679              		.loc 1 295 18 view .LVU324
 1680 0012 0B60     		str	r3, [r1]
 296:src/ascii_proto_funcs.c ****     steerB = 0;
 1681              		.loc 1 296 5 is_stmt 1 view .LVU325
 296:src/ascii_proto_funcs.c ****     steerB = 0;
 1682              		.loc 1 296 12 is_stmt 0 view .LVU326
 1683 0014 0A49     		ldr	r1, .L78+8
 1684 0016 0B60     		str	r3, [r1]
 297:src/ascii_proto_funcs.c ****     SpeedData.wanted_speed_mm_per_sec[0] = SpeedData.wanted_speed_mm_per_sec[1] = speedB;
 1685              		.loc 1 297 5 is_stmt 1 view .LVU327
 297:src/ascii_proto_funcs.c ****     SpeedData.wanted_speed_mm_per_sec[0] = SpeedData.wanted_speed_mm_per_sec[1] = speedB;
 1686              		.loc 1 297 12 is_stmt 0 view .LVU328
 1687 0018 0A49     		ldr	r1, .L78+12
 1688 001a 0B60     		str	r3, [r1]
 298:src/ascii_proto_funcs.c ****     PosnData.wanted_posn_mm[0] = HallData[0].HallPosn_mm;
 1689              		.loc 1 298 5 is_stmt 1 view .LVU329
ARM GAS  /tmp/ccidYgsI.s 			page 44


 298:src/ascii_proto_funcs.c ****     PosnData.wanted_posn_mm[0] = HallData[0].HallPosn_mm;
 1690              		.loc 1 298 81 is_stmt 0 view .LVU330
 1691 001c 0A49     		ldr	r1, .L78+16
 1692 001e 4B60     		str	r3, [r1, #4]
 298:src/ascii_proto_funcs.c ****     PosnData.wanted_posn_mm[0] = HallData[0].HallPosn_mm;
 1693              		.loc 1 298 42 view .LVU331
 1694 0020 0B60     		str	r3, [r1]
 299:src/ascii_proto_funcs.c ****     PosnData.wanted_posn_mm[1] = HallData[1].HallPosn_mm;
 1695              		.loc 1 299 5 is_stmt 1 view .LVU332
 299:src/ascii_proto_funcs.c ****     PosnData.wanted_posn_mm[1] = HallData[1].HallPosn_mm;
 1696              		.loc 1 299 45 is_stmt 0 view .LVU333
 1697 0022 0A49     		ldr	r1, .L78+20
 1698 0024 0C69     		ldr	r4, [r1, #16]
 299:src/ascii_proto_funcs.c ****     PosnData.wanted_posn_mm[1] = HallData[1].HallPosn_mm;
 1699              		.loc 1 299 32 view .LVU334
 1700 0026 0A4B     		ldr	r3, .L78+24
 1701 0028 1C60     		str	r4, [r3]
 300:src/ascii_proto_funcs.c ****     sprintf(ascii_out, "Sensor control now %d\r\n", sensor_control);
 1702              		.loc 1 300 5 is_stmt 1 view .LVU335
 300:src/ascii_proto_funcs.c ****     sprintf(ascii_out, "Sensor control now %d\r\n", sensor_control);
 1703              		.loc 1 300 45 is_stmt 0 view .LVU336
 1704 002a 496B     		ldr	r1, [r1, #52]
 300:src/ascii_proto_funcs.c ****     sprintf(ascii_out, "Sensor control now %d\r\n", sensor_control);
 1705              		.loc 1 300 32 view .LVU337
 1706 002c 5960     		str	r1, [r3, #4]
 301:src/ascii_proto_funcs.c **** #endif
 1707              		.loc 1 301 5 is_stmt 1 view .LVU338
 1708 002e 0949     		ldr	r1, .L78+28
 1709 0030 FFF7FEFF 		bl	sprintf
 1710              	.LVL136:
 303:src/ascii_proto_funcs.c **** }
 1711              		.loc 1 303 5 view .LVU339
 304:src/ascii_proto_funcs.c **** 
 1712              		.loc 1 304 1 is_stmt 0 view .LVU340
 1713 0034 0120     		movs	r0, #1
 1714 0036 10BD     		pop	{r4, pc}
 1715              	.L79:
 1716              		.align	2
 1717              	.L78:
 1718 0038 00000000 		.word	sensor_control
 1719 003c 00000000 		.word	control_type
 1720 0040 00000000 		.word	speedB
 1721 0044 00000000 		.word	steerB
 1722 0048 00000000 		.word	SpeedData
 1723 004c 00000000 		.word	HallData
 1724 0050 00000000 		.word	PosnData
 1725 0054 00000000 		.word	.LC10
 1726              		.cfi_endproc
 1727              	.LFE75:
 1729              		.section	.rodata.line_main_timing_stats.str1.4,"aMS",%progbits,1
 1730              		.align	2
 1731              	.LC11:
 1732 0000 4D61696E 		.ascii	"Main loop interval_us %d; lates %d, processing_us %"
 1732      206C6F6F 
 1732      7020696E 
 1732      74657276 
 1732      616C5F75 
ARM GAS  /tmp/ccidYgsI.s 			page 45


 1733 0033 640D0A00 		.ascii	"d\015\012\000"
 1734              		.section	.text.line_main_timing_stats,"ax",%progbits
 1735              		.align	1
 1736              		.global	line_main_timing_stats
 1737              		.syntax unified
 1738              		.thumb
 1739              		.thumb_func
 1741              	line_main_timing_stats:
 1742              	.LVL137:
 1743              	.LFB77:
 313:src/ascii_proto_funcs.c **** //case 's': // display stats from main timing
 1744              		.loc 1 313 74 is_stmt 1 view -0
 1745              		.cfi_startproc
 1746              		@ args = 0, pretend = 0, frame = 0
 1747              		@ frame_needed = 0, uses_anonymous_args = 0
 313:src/ascii_proto_funcs.c **** //case 's': // display stats from main timing
 1748              		.loc 1 313 74 is_stmt 0 view .LVU342
 1749 0000 10B5     		push	{r4, lr}
 1750              	.LCFI24:
 1751              		.cfi_def_cfa_offset 8
 1752              		.cfi_offset 4, -8
 1753              		.cfi_offset 14, -4
 1754 0002 82B0     		sub	sp, sp, #8
 1755              	.LCFI25:
 1756              		.cfi_def_cfa_offset 16
 1757 0004 1046     		mov	r0, r2
 1758              	.LVL138:
 316:src/ascii_proto_funcs.c ****         (int)(timeStats.main_interval_ms * 1000), timeStats.main_late_count, (int)(timeStats.main_p
 1759              		.loc 1 316 5 is_stmt 1 view .LVU343
 317:src/ascii_proto_funcs.c ****     return 1;
 1760              		.loc 1 317 24 is_stmt 0 view .LVU344
 1761 0006 084B     		ldr	r3, .L82
 1762 0008 DC6C     		ldr	r4, [r3, #76]
 317:src/ascii_proto_funcs.c ****     return 1;
 1763              		.loc 1 317 42 view .LVU345
 1764 000a 4FF47A72 		mov	r2, #1000
 1765              	.LVL139:
 317:src/ascii_proto_funcs.c ****     return 1;
 1766              		.loc 1 317 93 view .LVU346
 1767 000e 996D     		ldr	r1, [r3, #88]
 1768              	.LVL140:
 317:src/ascii_proto_funcs.c ****     return 1;
 1769              		.loc 1 317 112 view .LVU347
 1770 0010 02FB01F1 		mul	r1, r2, r1
 316:src/ascii_proto_funcs.c ****         (int)(timeStats.main_interval_ms * 1000), timeStats.main_late_count, (int)(timeStats.main_p
 1771              		.loc 1 316 5 view .LVU348
 1772 0014 0091     		str	r1, [sp]
 1773 0016 9B6E     		ldr	r3, [r3, #104]
 1774 0018 04FB02F2 		mul	r2, r4, r2
 1775 001c 0349     		ldr	r1, .L82+4
 1776 001e FFF7FEFF 		bl	sprintf
 1777              	.LVL141:
 318:src/ascii_proto_funcs.c **** }
 1778              		.loc 1 318 5 is_stmt 1 view .LVU349
 319:src/ascii_proto_funcs.c **** 
 1779              		.loc 1 319 1 is_stmt 0 view .LVU350
 1780 0022 0120     		movs	r0, #1
ARM GAS  /tmp/ccidYgsI.s 			page 46


 1781 0024 02B0     		add	sp, sp, #8
 1782              	.LCFI26:
 1783              		.cfi_def_cfa_offset 8
 1784              		@ sp needed
 1785 0026 10BD     		pop	{r4, pc}
 1786              	.L83:
 1787              		.align	2
 1788              	.L82:
 1789 0028 00000000 		.word	timeStats
 1790 002c 00000000 		.word	.LC11
 1791              		.cfi_endproc
 1792              	.LFE77:
 1794              		.section	.rodata.immediate_toggle_control.str1.4,"aMS",%progbits,1
 1795              		.align	2
 1796              	.LC12:
 1797 0000 636F6E74 		.ascii	"control type now %d (%s)\015\012\000"
 1797      726F6C20 
 1797      74797065 
 1797      206E6F77 
 1797      20256420 
 1798              		.section	.text.immediate_toggle_control,"ax",%progbits
 1799              		.align	1
 1800              		.global	immediate_toggle_control
 1801              		.syntax unified
 1802              		.thumb
 1803              		.thumb_func
 1805              	immediate_toggle_control:
 1806              	.LVL142:
 1807              	.LFB73:
 261:src/ascii_proto_funcs.c **** //case 'O':
 1808              		.loc 1 261 76 is_stmt 1 view -0
 1809              		.cfi_startproc
 1810              		@ args = 0, pretend = 0, frame = 0
 1811              		@ frame_needed = 0, uses_anonymous_args = 0
 261:src/ascii_proto_funcs.c **** //case 'O':
 1812              		.loc 1 261 76 is_stmt 0 view .LVU352
 1813 0000 70B5     		push	{r4, r5, r6, lr}
 1814              	.LCFI27:
 1815              		.cfi_def_cfa_offset 16
 1816              		.cfi_offset 4, -16
 1817              		.cfi_offset 5, -12
 1818              		.cfi_offset 6, -8
 1819              		.cfi_offset 14, -4
 1820 0002 1546     		mov	r5, r2
 263:src/ascii_proto_funcs.c ****     //stop all
 1821              		.loc 1 263 5 is_stmt 1 view .LVU353
 263:src/ascii_proto_funcs.c ****     //stop all
 1822              		.loc 1 263 9 is_stmt 0 view .LVU354
 1823 0004 0C4E     		ldr	r6, .L86
 1824 0006 3468     		ldr	r4, [r6]
 1825              	.LVL143:
 265:src/ascii_proto_funcs.c ****     ascii_out += strlen(ascii_out);
 1826              		.loc 1 265 5 is_stmt 1 view .LVU355
 1827 0008 FFF7FEFF 		bl	immediate_stop
 1828              	.LVL144:
 266:src/ascii_proto_funcs.c ****     control_type = (control_old+1) % CONTROL_TYPE_MAX;
 1829              		.loc 1 266 5 view .LVU356
ARM GAS  /tmp/ccidYgsI.s 			page 47


 266:src/ascii_proto_funcs.c ****     control_type = (control_old+1) % CONTROL_TYPE_MAX;
 1830              		.loc 1 266 18 is_stmt 0 view .LVU357
 1831 000c 2846     		mov	r0, r5
 1832 000e FFF7FEFF 		bl	strlen
 1833              	.LVL145:
 267:src/ascii_proto_funcs.c ****     sprintf(ascii_out, "control type now %d (%s)\r\n", control_type, control_types[control_type]);
 1834              		.loc 1 267 5 is_stmt 1 view .LVU358
 267:src/ascii_proto_funcs.c ****     sprintf(ascii_out, "control type now %d (%s)\r\n", control_type, control_types[control_type]);
 1835              		.loc 1 267 32 is_stmt 0 view .LVU359
 1836 0012 621C     		adds	r2, r4, #1
 267:src/ascii_proto_funcs.c ****     sprintf(ascii_out, "control type now %d (%s)\r\n", control_type, control_types[control_type]);
 1837              		.loc 1 267 36 view .LVU360
 1838 0014 5342     		rsbs	r3, r2, #0
 1839 0016 02F00302 		and	r2, r2, #3
 1840 001a 03F00303 		and	r3, r3, #3
 1841 001e 58BF     		it	pl
 1842 0020 5A42     		rsbpl	r2, r3, #0
 267:src/ascii_proto_funcs.c ****     sprintf(ascii_out, "control type now %d (%s)\r\n", control_type, control_types[control_type]);
 1843              		.loc 1 267 18 view .LVU361
 1844 0022 3260     		str	r2, [r6]
 268:src/ascii_proto_funcs.c ****     return 1;
 1845              		.loc 1 268 5 is_stmt 1 view .LVU362
 1846 0024 054B     		ldr	r3, .L86+4
 1847 0026 53F82230 		ldr	r3, [r3, r2, lsl #2]
 1848 002a 0549     		ldr	r1, .L86+8
 1849 002c 2844     		add	r0, r0, r5
 1850              	.LVL146:
 268:src/ascii_proto_funcs.c ****     return 1;
 1851              		.loc 1 268 5 is_stmt 0 view .LVU363
 1852 002e FFF7FEFF 		bl	sprintf
 1853              	.LVL147:
 269:src/ascii_proto_funcs.c **** }
 1854              		.loc 1 269 5 is_stmt 1 view .LVU364
 270:src/ascii_proto_funcs.c **** 
 1855              		.loc 1 270 1 is_stmt 0 view .LVU365
 1856 0032 0120     		movs	r0, #1
 1857 0034 70BD     		pop	{r4, r5, r6, pc}
 1858              	.LVL148:
 1859              	.L87:
 270:src/ascii_proto_funcs.c **** 
 1860              		.loc 1 270 1 view .LVU366
 1861 0036 00BF     		.align	2
 1862              	.L86:
 1863 0038 00000000 		.word	control_type
 1864 003c 00000000 		.word	control_types
 1865 0040 00000000 		.word	.LC12
 1866              		.cfi_endproc
 1867              	.LFE73:
 1869              		.section	.rodata.line_debug_control.str1.4,"aMS",%progbits,1
 1870              		.align	2
 1871              	.LC13:
 1872 0000 64656275 		.ascii	"debug_out now %d\015\012enablescope now %d\015\012\000"
 1872      675F6F75 
 1872      74206E6F 
 1872      77202564 
 1872      0D0A656E 
 1873              		.section	.text.line_debug_control,"ax",%progbits
ARM GAS  /tmp/ccidYgsI.s 			page 48


 1874              		.align	1
 1875              		.global	line_debug_control
 1876              		.syntax unified
 1877              		.thumb
 1878              		.thumb_func
 1880              	line_debug_control:
 1881              	.LVL149:
 1882              	.LFB78:
 322:src/ascii_proto_funcs.c **** //case 'E':
 1883              		.loc 1 322 70 is_stmt 1 view -0
 1884              		.cfi_startproc
 1885              		@ args = 0, pretend = 0, frame = 0
 1886              		@ frame_needed = 0, uses_anonymous_args = 0
 322:src/ascii_proto_funcs.c **** //case 'E':
 1887              		.loc 1 322 70 is_stmt 0 view .LVU368
 1888 0000 38B5     		push	{r3, r4, r5, lr}
 1889              	.LCFI28:
 1890              		.cfi_def_cfa_offset 16
 1891              		.cfi_offset 3, -16
 1892              		.cfi_offset 4, -12
 1893              		.cfi_offset 5, -8
 1894              		.cfi_offset 14, -4
 1895 0002 0C46     		mov	r4, r1
 1896 0004 1546     		mov	r5, r2
 324:src/ascii_proto_funcs.c ****         debug_out = 0;
 1897              		.loc 1 324 5 is_stmt 1 view .LVU369
 324:src/ascii_proto_funcs.c ****         debug_out = 0;
 1898              		.loc 1 324 9 is_stmt 0 view .LVU370
 1899 0006 0846     		mov	r0, r1
 1900              	.LVL150:
 324:src/ascii_proto_funcs.c ****         debug_out = 0;
 1901              		.loc 1 324 9 view .LVU371
 1902 0008 FFF7FEFF 		bl	strlen
 1903              	.LVL151:
 324:src/ascii_proto_funcs.c ****         debug_out = 0;
 1904              		.loc 1 324 8 discriminator 1 view .LVU372
 1905 000c 0128     		cmp	r0, #1
 1906 000e 10D0     		beq	.L93
 328:src/ascii_proto_funcs.c ****             enablescope = 1;
 1907              		.loc 1 328 9 is_stmt 1 view .LVU373
 328:src/ascii_proto_funcs.c ****             enablescope = 1;
 1908              		.loc 1 328 17 is_stmt 0 view .LVU374
 1909 0010 6378     		ldrb	r3, [r4, #1]	@ zero_extendqisi2
 328:src/ascii_proto_funcs.c ****             enablescope = 1;
 1910              		.loc 1 328 29 view .LVU375
 1911 0012 43F02003 		orr	r3, r3, #32
 328:src/ascii_proto_funcs.c ****             enablescope = 1;
 1912              		.loc 1 328 12 view .LVU376
 1913 0016 732B     		cmp	r3, #115
 1914 0018 11D0     		beq	.L94
 1915              	.L91:
 332:src/ascii_proto_funcs.c ****             debug_out = 1;
 1916              		.loc 1 332 9 is_stmt 1 view .LVU377
 332:src/ascii_proto_funcs.c ****             debug_out = 1;
 1917              		.loc 1 332 12 is_stmt 0 view .LVU378
 1918 001a 632B     		cmp	r3, #99
 1919 001c 15D0     		beq	.L95
ARM GAS  /tmp/ccidYgsI.s 			page 49


 1920              	.L90:
 336:src/ascii_proto_funcs.c ****     return 1;
 1921              		.loc 1 336 5 is_stmt 1 view .LVU379
 1922 001e 0D4B     		ldr	r3, .L96
 1923 0020 1B78     		ldrb	r3, [r3]	@ zero_extendqisi2
 1924 0022 0D4A     		ldr	r2, .L96+4
 1925 0024 1278     		ldrb	r2, [r2]	@ zero_extendqisi2
 1926 0026 0D49     		ldr	r1, .L96+8
 1927 0028 2846     		mov	r0, r5
 1928 002a FFF7FEFF 		bl	sprintf
 1929              	.LVL152:
 337:src/ascii_proto_funcs.c **** }
 1930              		.loc 1 337 5 view .LVU380
 338:src/ascii_proto_funcs.c **** 
 1931              		.loc 1 338 1 is_stmt 0 view .LVU381
 1932 002e 0120     		movs	r0, #1
 1933 0030 38BD     		pop	{r3, r4, r5, pc}
 1934              	.LVL153:
 1935              	.L93:
 325:src/ascii_proto_funcs.c ****         enablescope = 0;
 1936              		.loc 1 325 9 is_stmt 1 view .LVU382
 325:src/ascii_proto_funcs.c ****         enablescope = 0;
 1937              		.loc 1 325 19 is_stmt 0 view .LVU383
 1938 0032 0023     		movs	r3, #0
 1939 0034 084A     		ldr	r2, .L96+4
 1940 0036 1370     		strb	r3, [r2]
 326:src/ascii_proto_funcs.c ****     } else {
 1941              		.loc 1 326 9 is_stmt 1 view .LVU384
 326:src/ascii_proto_funcs.c ****     } else {
 1942              		.loc 1 326 21 is_stmt 0 view .LVU385
 1943 0038 064A     		ldr	r2, .L96
 1944 003a 1370     		strb	r3, [r2]
 1945 003c EFE7     		b	.L90
 1946              	.L94:
 329:src/ascii_proto_funcs.c ****             debug_out = 1;
 1947              		.loc 1 329 13 is_stmt 1 view .LVU386
 329:src/ascii_proto_funcs.c ****             debug_out = 1;
 1948              		.loc 1 329 25 is_stmt 0 view .LVU387
 1949 003e 0122     		movs	r2, #1
 1950 0040 0449     		ldr	r1, .L96
 1951 0042 0A70     		strb	r2, [r1]
 330:src/ascii_proto_funcs.c ****         }
 1952              		.loc 1 330 13 is_stmt 1 view .LVU388
 330:src/ascii_proto_funcs.c ****         }
 1953              		.loc 1 330 23 is_stmt 0 view .LVU389
 1954 0044 0449     		ldr	r1, .L96+4
 1955 0046 0A70     		strb	r2, [r1]
 1956 0048 E7E7     		b	.L91
 1957              	.L95:
 333:src/ascii_proto_funcs.c ****         }
 1958              		.loc 1 333 13 is_stmt 1 view .LVU390
 333:src/ascii_proto_funcs.c ****         }
 1959              		.loc 1 333 23 is_stmt 0 view .LVU391
 1960 004a 034B     		ldr	r3, .L96+4
 1961 004c 0122     		movs	r2, #1
 1962 004e 1A70     		strb	r2, [r3]
 1963 0050 E5E7     		b	.L90
ARM GAS  /tmp/ccidYgsI.s 			page 50


 1964              	.L97:
 1965 0052 00BF     		.align	2
 1966              	.L96:
 1967 0054 00000000 		.word	enablescope
 1968 0058 00000000 		.word	debug_out
 1969 005c 00000000 		.word	.LC13
 1970              		.cfi_endproc
 1971              	.LFE78:
 1973              		.section	.rodata.line_immediate.str1.4,"aMS",%progbits,1
 1974              		.align	2
 1975              	.LC14:
 1976 0000 496D6D65 		.ascii	"Immediate commands enabled - WASDXHCGQ\015\012>\000"
 1976      64696174 
 1976      6520636F 
 1976      6D6D616E 
 1976      64732065 
 1977 002a 0000     		.align	2
 1978              	.LC15:
 1979 002c 496D6D65 		.ascii	"Immediate commands enabled - WASDXHCGQ - Speed cont"
 1979      64696174 
 1979      6520636F 
 1979      6D6D616E 
 1979      64732065 
 1980 005f 726F6C0D 		.ascii	"rol\015\012>\000"
 1980      0A3E00
 1981 0066 0000     		.align	2
 1982              	.LC16:
 1983 0068 496D6D65 		.ascii	"Immediate commands enabled - WASDXHCGQ - Position c"
 1983      64696174 
 1983      6520636F 
 1983      6D6D616E 
 1983      64732065 
 1984 009b 6F6E7472 		.ascii	"ontrol\015\012>\000"
 1984      6F6C0D0A 
 1984      3E00
 1985 00a5 000000   		.align	2
 1986              	.LC17:
 1987 00a8 496D6D65 		.ascii	"Immediate commands enabled - WASDXHCGQ - Power (pWm"
 1987      64696174 
 1987      6520636F 
 1987      6D6D616E 
 1987      64732065 
 1988 00db 2920636F 		.ascii	") control\015\012>\000"
 1988      6E74726F 
 1988      6C0D0A3E 
 1988      00
 1989              		.section	.text.line_immediate,"ax",%progbits
 1990              		.align	1
 1991              		.global	line_immediate
 1992              		.syntax unified
 1993              		.thumb
 1994              		.thumb_func
 1996              	line_immediate:
 1997              	.LVL154:
 1998              	.LFB83:
 500:src/ascii_proto_funcs.c **** //case 'I':
 1999              		.loc 1 500 66 is_stmt 1 view -0
ARM GAS  /tmp/ccidYgsI.s 			page 51


 2000              		.cfi_startproc
 2001              		@ args = 0, pretend = 0, frame = 0
 2002              		@ frame_needed = 0, uses_anonymous_args = 0
 500:src/ascii_proto_funcs.c **** //case 'I':
 2003              		.loc 1 500 66 is_stmt 0 view .LVU393
 2004 0000 70B5     		push	{r4, r5, r6, lr}
 2005              	.LCFI29:
 2006              		.cfi_def_cfa_offset 16
 2007              		.cfi_offset 4, -16
 2008              		.cfi_offset 5, -12
 2009              		.cfi_offset 6, -8
 2010              		.cfi_offset 14, -4
 2011 0002 0446     		mov	r4, r0
 2012 0004 0D46     		mov	r5, r1
 2013 0006 1646     		mov	r6, r2
 502:src/ascii_proto_funcs.c ****     steerB = 0;
 2014              		.loc 1 502 5 is_stmt 1 view .LVU394
 502:src/ascii_proto_funcs.c ****     steerB = 0;
 2015              		.loc 1 502 12 is_stmt 0 view .LVU395
 2016 0008 0023     		movs	r3, #0
 2017 000a 524A     		ldr	r2, .L110
 2018              	.LVL155:
 502:src/ascii_proto_funcs.c ****     steerB = 0;
 2019              		.loc 1 502 12 view .LVU396
 2020 000c 1360     		str	r3, [r2]
 503:src/ascii_proto_funcs.c ****     PWMData.pwm[1] = CLAMP(speedB * SPEED_COEFFICIENT -  steerB * STEER_COEFFICIENT, -1000, 1000);
 2021              		.loc 1 503 5 is_stmt 1 view .LVU397
 503:src/ascii_proto_funcs.c ****     PWMData.pwm[1] = CLAMP(speedB * SPEED_COEFFICIENT -  steerB * STEER_COEFFICIENT, -1000, 1000);
 2022              		.loc 1 503 12 is_stmt 0 view .LVU398
 2023 000e 524A     		ldr	r2, .L110+4
 2024 0010 1360     		str	r3, [r2]
 504:src/ascii_proto_funcs.c ****     PWMData.pwm[0] = CLAMP(speedB * SPEED_COEFFICIENT +  steerB * STEER_COEFFICIENT, -1000, 1000);
 2025              		.loc 1 504 5 is_stmt 1 view .LVU399
 504:src/ascii_proto_funcs.c ****     PWMData.pwm[0] = CLAMP(speedB * SPEED_COEFFICIENT +  steerB * STEER_COEFFICIENT, -1000, 1000);
 2026              		.loc 1 504 20 is_stmt 0 discriminator 8 view .LVU400
 2027 0012 524A     		ldr	r2, .L110+8
 2028 0014 5360     		str	r3, [r2, #4]
 505:src/ascii_proto_funcs.c ****     SpeedData.wanted_speed_mm_per_sec[0] = SpeedData.wanted_speed_mm_per_sec[1] = speedB;
 2029              		.loc 1 505 5 is_stmt 1 view .LVU401
 505:src/ascii_proto_funcs.c ****     SpeedData.wanted_speed_mm_per_sec[0] = SpeedData.wanted_speed_mm_per_sec[1] = speedB;
 2030              		.loc 1 505 20 is_stmt 0 discriminator 8 view .LVU402
 2031 0016 1360     		str	r3, [r2]
 506:src/ascii_proto_funcs.c ****     dspeeds[0] = dspeeds[1] = speedB;
 2032              		.loc 1 506 5 is_stmt 1 view .LVU403
 506:src/ascii_proto_funcs.c ****     dspeeds[0] = dspeeds[1] = speedB;
 2033              		.loc 1 506 81 is_stmt 0 view .LVU404
 2034 0018 514A     		ldr	r2, .L110+12
 2035 001a 5360     		str	r3, [r2, #4]
 506:src/ascii_proto_funcs.c ****     dspeeds[0] = dspeeds[1] = speedB;
 2036              		.loc 1 506 42 view .LVU405
 2037 001c 1360     		str	r3, [r2]
 507:src/ascii_proto_funcs.c ****     PosnData.wanted_posn_mm[0] = HallData[0].HallPosn_mm;
 2038              		.loc 1 507 5 is_stmt 1 view .LVU406
 507:src/ascii_proto_funcs.c ****     PosnData.wanted_posn_mm[0] = HallData[0].HallPosn_mm;
 2039              		.loc 1 507 29 is_stmt 0 view .LVU407
 2040 001e 514A     		ldr	r2, .L110+16
 2041 0020 5360     		str	r3, [r2, #4]
ARM GAS  /tmp/ccidYgsI.s 			page 52


 507:src/ascii_proto_funcs.c ****     PosnData.wanted_posn_mm[0] = HallData[0].HallPosn_mm;
 2042              		.loc 1 507 16 view .LVU408
 2043 0022 1360     		str	r3, [r2]
 508:src/ascii_proto_funcs.c ****     PosnData.wanted_posn_mm[1] = HallData[1].HallPosn_mm;
 2044              		.loc 1 508 5 is_stmt 1 view .LVU409
 508:src/ascii_proto_funcs.c ****     PosnData.wanted_posn_mm[1] = HallData[1].HallPosn_mm;
 2045              		.loc 1 508 45 is_stmt 0 view .LVU410
 2046 0024 504A     		ldr	r2, .L110+20
 2047 0026 1169     		ldr	r1, [r2, #16]
 2048              	.LVL156:
 508:src/ascii_proto_funcs.c ****     PosnData.wanted_posn_mm[1] = HallData[1].HallPosn_mm;
 2049              		.loc 1 508 32 view .LVU411
 2050 0028 504B     		ldr	r3, .L110+24
 2051 002a 1960     		str	r1, [r3]
 509:src/ascii_proto_funcs.c ****     if (strlen(cmd) == 1){
 2052              		.loc 1 509 5 is_stmt 1 view .LVU412
 509:src/ascii_proto_funcs.c ****     if (strlen(cmd) == 1){
 2053              		.loc 1 509 45 is_stmt 0 view .LVU413
 2054 002c 526B     		ldr	r2, [r2, #52]
 509:src/ascii_proto_funcs.c ****     if (strlen(cmd) == 1){
 2055              		.loc 1 509 32 view .LVU414
 2056 002e 5A60     		str	r2, [r3, #4]
 510:src/ascii_proto_funcs.c ****         s->ascii.enable_immediate = 1;
 2057              		.loc 1 510 5 is_stmt 1 view .LVU415
 510:src/ascii_proto_funcs.c ****         s->ascii.enable_immediate = 1;
 2058              		.loc 1 510 9 is_stmt 0 view .LVU416
 2059 0030 2846     		mov	r0, r5
 2060              	.LVL157:
 510:src/ascii_proto_funcs.c ****         s->ascii.enable_immediate = 1;
 2061              		.loc 1 510 9 view .LVU417
 2062 0032 FFF7FEFF 		bl	strlen
 2063              	.LVL158:
 510:src/ascii_proto_funcs.c ****         s->ascii.enable_immediate = 1;
 2064              		.loc 1 510 8 discriminator 1 view .LVU418
 2065 0036 0128     		cmp	r0, #1
 2066 0038 2CD0     		beq	.L109
 514:src/ascii_proto_funcs.c ****             case 's':
 2067              		.loc 1 514 9 is_stmt 1 view .LVU419
 514:src/ascii_proto_funcs.c ****             case 's':
 2068              		.loc 1 514 20 is_stmt 0 view .LVU420
 2069 003a 6B78     		ldrb	r3, [r5, #1]	@ zero_extendqisi2
 514:src/ascii_proto_funcs.c ****             case 's':
 2070              		.loc 1 514 24 view .LVU421
 2071 003c 43F02003 		orr	r3, r3, #32
 514:src/ascii_proto_funcs.c ****             case 's':
 2072              		.loc 1 514 9 view .LVU422
 2073 0040 732B     		cmp	r3, #115
 2074 0042 48D0     		beq	.L102
 2075 0044 772B     		cmp	r3, #119
 2076 0046 69D0     		beq	.L103
 2077 0048 702B     		cmp	r3, #112
 2078 004a 42D1     		bne	.L101
 521:src/ascii_proto_funcs.c ****                 control_type = CONTROL_TYPE_POSITION;
 2079              		.loc 1 521 17 is_stmt 1 view .LVU423
 521:src/ascii_proto_funcs.c ****                 control_type = CONTROL_TYPE_POSITION;
 2080              		.loc 1 521 43 is_stmt 0 view .LVU424
 2081 004c 04F58054 		add	r4, r4, #4096
ARM GAS  /tmp/ccidYgsI.s 			page 53


 2082              	.LVL159:
 521:src/ascii_proto_funcs.c ****                 control_type = CONTROL_TYPE_POSITION;
 2083              		.loc 1 521 43 view .LVU425
 2084 0050 0123     		movs	r3, #1
 2085 0052 E362     		str	r3, [r4, #44]
 522:src/ascii_proto_funcs.c ****                 sprintf(ascii_out, "Immediate commands enabled - WASDXHCGQ - Position control\r\n>"
 2086              		.loc 1 522 17 is_stmt 1 view .LVU426
 522:src/ascii_proto_funcs.c ****                 sprintf(ascii_out, "Immediate commands enabled - WASDXHCGQ - Position control\r\n>"
 2087              		.loc 1 522 30 is_stmt 0 view .LVU427
 2088 0054 464A     		ldr	r2, .L110+28
 2089 0056 1360     		str	r3, [r2]
 523:src/ascii_proto_funcs.c ****                 break;
 2090              		.loc 1 523 17 is_stmt 1 view .LVU428
 2091 0058 464C     		ldr	r4, .L110+32
 2092              	.LVL160:
 523:src/ascii_proto_funcs.c ****                 break;
 2093              		.loc 1 523 17 is_stmt 0 view .LVU429
 2094 005a B446     		mov	ip, r6
 2095 005c 04F13006 		add	r6, r4, #48
 2096              	.LVL161:
 2097              	.L106:
 523:src/ascii_proto_funcs.c ****                 break;
 2098              		.loc 1 523 17 view .LVU430
 2099 0060 2546     		mov	r5, r4
 2100 0062 0FCD     		ldmia	r5!, {r0, r1, r2, r3}
 2101 0064 CCF80000 		str	r0, [ip]	@ unaligned
 2102 0068 CCF80410 		str	r1, [ip, #4]	@ unaligned
 2103 006c CCF80820 		str	r2, [ip, #8]	@ unaligned
 2104 0070 CCF80C30 		str	r3, [ip, #12]	@ unaligned
 2105 0074 2C46     		mov	r4, r5
 2106 0076 0CF1100C 		add	ip, ip, #16
 2107 007a B542     		cmp	r5, r6
 2108 007c F0D1     		bne	.L106
 2109 007e 07CC     		ldmia	r4!, {r0, r1, r2}
 2110 0080 CCF80000 		str	r0, [ip]	@ unaligned
 2111 0084 CCF80410 		str	r1, [ip, #4]	@ unaligned
 2112 0088 CCF80820 		str	r2, [ip, #8]	@ unaligned
 2113 008c 2378     		ldrb	r3, [r4]	@ zero_extendqisi2
 2114 008e 8CF80C30 		strb	r3, [ip, #12]
 524:src/ascii_proto_funcs.c ****             case 'w':
 2115              		.loc 1 524 17 is_stmt 1 view .LVU431
 2116 0092 1EE0     		b	.L101
 2117              	.LVL162:
 2118              	.L109:
 511:src/ascii_proto_funcs.c ****         sprintf(ascii_out, "Immediate commands enabled - WASDXHCGQ\r\n>");
 2119              		.loc 1 511 9 view .LVU432
 511:src/ascii_proto_funcs.c ****         sprintf(ascii_out, "Immediate commands enabled - WASDXHCGQ\r\n>");
 2120              		.loc 1 511 35 is_stmt 0 view .LVU433
 2121 0094 04F58054 		add	r4, r4, #4096
 2122              	.LVL163:
 511:src/ascii_proto_funcs.c ****         sprintf(ascii_out, "Immediate commands enabled - WASDXHCGQ\r\n>");
 2123              		.loc 1 511 35 view .LVU434
 2124 0098 0123     		movs	r3, #1
 2125 009a E362     		str	r3, [r4, #44]
 512:src/ascii_proto_funcs.c ****     } else {
 2126              		.loc 1 512 9 is_stmt 1 view .LVU435
 2127 009c 364C     		ldr	r4, .L110+36
ARM GAS  /tmp/ccidYgsI.s 			page 54


 2128              	.LVL164:
 512:src/ascii_proto_funcs.c ****     } else {
 2129              		.loc 1 512 9 is_stmt 0 view .LVU436
 2130 009e B446     		mov	ip, r6
 2131 00a0 04F12006 		add	r6, r4, #32
 2132              	.LVL165:
 2133              	.L100:
 512:src/ascii_proto_funcs.c ****     } else {
 2134              		.loc 1 512 9 view .LVU437
 2135 00a4 2546     		mov	r5, r4
 2136 00a6 0FCD     		ldmia	r5!, {r0, r1, r2, r3}
 2137 00a8 CCF80000 		str	r0, [ip]	@ unaligned
 2138 00ac CCF80410 		str	r1, [ip, #4]	@ unaligned
 2139 00b0 CCF80820 		str	r2, [ip, #8]	@ unaligned
 2140 00b4 CCF80C30 		str	r3, [ip, #12]	@ unaligned
 2141 00b8 2C46     		mov	r4, r5
 2142 00ba 0CF1100C 		add	ip, ip, #16
 2143 00be B542     		cmp	r5, r6
 2144 00c0 F0D1     		bne	.L100
 2145 00c2 03CC     		ldmia	r4!, {r0, r1}
 2146 00c4 CCF80000 		str	r0, [ip]	@ unaligned
 2147 00c8 CCF80410 		str	r1, [ip, #4]	@ unaligned
 2148 00cc 2388     		ldrh	r3, [r4]	@ unaligned
 2149 00ce ACF80830 		strh	r3, [ip, #8]	@ unaligned
 2150              	.L101:
 532:src/ascii_proto_funcs.c **** }
 2151              		.loc 1 532 5 is_stmt 1 view .LVU438
 533:src/ascii_proto_funcs.c **** 
 2152              		.loc 1 533 1 is_stmt 0 view .LVU439
 2153 00d2 0120     		movs	r0, #1
 2154 00d4 70BD     		pop	{r4, r5, r6, pc}
 2155              	.LVL166:
 2156              	.L102:
 516:src/ascii_proto_funcs.c ****                 control_type = CONTROL_TYPE_SPEED;
 2157              		.loc 1 516 17 is_stmt 1 view .LVU440
 516:src/ascii_proto_funcs.c ****                 control_type = CONTROL_TYPE_SPEED;
 2158              		.loc 1 516 43 is_stmt 0 view .LVU441
 2159 00d6 04F58054 		add	r4, r4, #4096
 2160              	.LVL167:
 516:src/ascii_proto_funcs.c ****                 control_type = CONTROL_TYPE_SPEED;
 2161              		.loc 1 516 43 view .LVU442
 2162 00da 0123     		movs	r3, #1
 2163 00dc E362     		str	r3, [r4, #44]
 517:src/ascii_proto_funcs.c ****                 sprintf(ascii_out, "Immediate commands enabled - WASDXHCGQ - Speed control\r\n>");
 2164              		.loc 1 517 17 is_stmt 1 view .LVU443
 517:src/ascii_proto_funcs.c ****                 sprintf(ascii_out, "Immediate commands enabled - WASDXHCGQ - Speed control\r\n>");
 2165              		.loc 1 517 30 is_stmt 0 view .LVU444
 2166 00de 244B     		ldr	r3, .L110+28
 2167 00e0 0222     		movs	r2, #2
 2168 00e2 1A60     		str	r2, [r3]
 518:src/ascii_proto_funcs.c ****                 break;
 2169              		.loc 1 518 17 is_stmt 1 view .LVU445
 2170 00e4 254C     		ldr	r4, .L110+40
 2171              	.LVL168:
 518:src/ascii_proto_funcs.c ****                 break;
 2172              		.loc 1 518 17 is_stmt 0 view .LVU446
 2173 00e6 B446     		mov	ip, r6
ARM GAS  /tmp/ccidYgsI.s 			page 55


 2174 00e8 04F13006 		add	r6, r4, #48
 2175              	.LVL169:
 2176              	.L105:
 518:src/ascii_proto_funcs.c ****                 break;
 2177              		.loc 1 518 17 view .LVU447
 2178 00ec 2546     		mov	r5, r4
 2179 00ee 0FCD     		ldmia	r5!, {r0, r1, r2, r3}
 2180 00f0 CCF80000 		str	r0, [ip]	@ unaligned
 2181 00f4 CCF80410 		str	r1, [ip, #4]	@ unaligned
 2182 00f8 CCF80820 		str	r2, [ip, #8]	@ unaligned
 2183 00fc CCF80C30 		str	r3, [ip, #12]	@ unaligned
 2184 0100 2C46     		mov	r4, r5
 2185 0102 0CF1100C 		add	ip, ip, #16
 2186 0106 B542     		cmp	r5, r6
 2187 0108 F0D1     		bne	.L105
 2188 010a 03CC     		ldmia	r4!, {r0, r1}
 2189 010c CCF80000 		str	r0, [ip]	@ unaligned
 2190 0110 CCF80410 		str	r1, [ip, #4]	@ unaligned
 2191 0114 2388     		ldrh	r3, [r4]	@ unaligned
 2192 0116 ACF80830 		strh	r3, [ip, #8]	@ unaligned
 519:src/ascii_proto_funcs.c ****             case 'p':
 2193              		.loc 1 519 17 is_stmt 1 view .LVU448
 2194 011a DAE7     		b	.L101
 2195              	.LVL170:
 2196              	.L103:
 526:src/ascii_proto_funcs.c ****                 control_type = CONTROL_TYPE_PWM;
 2197              		.loc 1 526 17 view .LVU449
 526:src/ascii_proto_funcs.c ****                 control_type = CONTROL_TYPE_PWM;
 2198              		.loc 1 526 43 is_stmt 0 view .LVU450
 2199 011c 04F58054 		add	r4, r4, #4096
 2200              	.LVL171:
 526:src/ascii_proto_funcs.c ****                 control_type = CONTROL_TYPE_PWM;
 2201              		.loc 1 526 43 view .LVU451
 2202 0120 0123     		movs	r3, #1
 2203 0122 E362     		str	r3, [r4, #44]
 527:src/ascii_proto_funcs.c ****                 sprintf(ascii_out, "Immediate commands enabled - WASDXHCGQ - Power (pWm) control\r\
 2204              		.loc 1 527 17 is_stmt 1 view .LVU452
 527:src/ascii_proto_funcs.c ****                 sprintf(ascii_out, "Immediate commands enabled - WASDXHCGQ - Power (pWm) control\r\
 2205              		.loc 1 527 30 is_stmt 0 view .LVU453
 2206 0124 124B     		ldr	r3, .L110+28
 2207 0126 0322     		movs	r2, #3
 2208 0128 1A60     		str	r2, [r3]
 528:src/ascii_proto_funcs.c ****                 break;
 2209              		.loc 1 528 17 is_stmt 1 view .LVU454
 2210 012a 154D     		ldr	r5, .L110+44
 2211              	.LVL172:
 528:src/ascii_proto_funcs.c ****                 break;
 2212              		.loc 1 528 17 is_stmt 0 view .LVU455
 2213 012c B446     		mov	ip, r6
 2214 012e 05F14006 		add	r6, r5, #64
 2215              	.LVL173:
 2216              	.L107:
 528:src/ascii_proto_funcs.c ****                 break;
 2217              		.loc 1 528 17 view .LVU456
 2218 0132 2C46     		mov	r4, r5
 2219 0134 0FCC     		ldmia	r4!, {r0, r1, r2, r3}
 2220 0136 CCF80000 		str	r0, [ip]	@ unaligned
ARM GAS  /tmp/ccidYgsI.s 			page 56


 2221 013a CCF80410 		str	r1, [ip, #4]	@ unaligned
 2222 013e CCF80820 		str	r2, [ip, #8]	@ unaligned
 2223 0142 CCF80C30 		str	r3, [ip, #12]	@ unaligned
 2224 0146 2546     		mov	r5, r4
 2225 0148 0CF1100C 		add	ip, ip, #16
 2226 014c B442     		cmp	r4, r6
 2227 014e F0D1     		bne	.L107
 2228 0150 BFE7     		b	.L101
 2229              	.L111:
 2230 0152 00BF     		.align	2
 2231              	.L110:
 2232 0154 00000000 		.word	speedB
 2233 0158 00000000 		.word	steerB
 2234 015c 00000000 		.word	PWMData
 2235 0160 00000000 		.word	SpeedData
 2236 0164 00000000 		.word	dspeeds
 2237 0168 00000000 		.word	HallData
 2238 016c 00000000 		.word	PosnData
 2239 0170 00000000 		.word	control_type
 2240 0174 68000000 		.word	.LC16
 2241 0178 00000000 		.word	.LC14
 2242 017c 2C000000 		.word	.LC15
 2243 0180 A8000000 		.word	.LC17
 2244              		.cfi_endproc
 2245              	.LFE83:
 2247              		.section	.rodata.line_set_alarm.str1.4,"aMS",%progbits,1
 2248              		.align	2
 2249              	.LC18:
 2250 0000 25642025 		.ascii	"%d %d %d\000"
 2250      64202564 
 2250      00
 2251 0009 000000   		.align	2
 2252              	.LC19:
 2253 000c 416C6172 		.ascii	"Alarm set to %d %d %d\015\012\000"
 2253      6D207365 
 2253      7420746F 
 2253      20256420 
 2253      25642025 
 2254              		.section	.text.line_set_alarm,"ax",%progbits
 2255              		.align	1
 2256              		.global	line_set_alarm
 2257              		.syntax unified
 2258              		.thumb
 2259              		.thumb_func
 2261              	line_set_alarm:
 2262              	.LVL174:
 2263              	.LFB74:
 272:src/ascii_proto_funcs.c **** //case 'A':
 2264              		.loc 1 272 66 is_stmt 1 view -0
 2265              		.cfi_startproc
 2266              		@ args = 0, pretend = 0, frame = 16
 2267              		@ frame_needed = 0, uses_anonymous_args = 0
 272:src/ascii_proto_funcs.c **** //case 'A':
 2268              		.loc 1 272 66 is_stmt 0 view .LVU458
 2269 0000 30B5     		push	{r4, r5, lr}
 2270              	.LCFI30:
 2271              		.cfi_def_cfa_offset 12
ARM GAS  /tmp/ccidYgsI.s 			page 57


 2272              		.cfi_offset 4, -12
 2273              		.cfi_offset 5, -8
 2274              		.cfi_offset 14, -4
 2275 0002 87B0     		sub	sp, sp, #28
 2276              	.LCFI31:
 2277              		.cfi_def_cfa_offset 40
 2278 0004 0C46     		mov	r4, r1
 2279 0006 1546     		mov	r5, r2
 274:src/ascii_proto_funcs.c ****     int b = 0;
 2280              		.loc 1 274 5 is_stmt 1 view .LVU459
 274:src/ascii_proto_funcs.c ****     int b = 0;
 2281              		.loc 1 274 9 is_stmt 0 view .LVU460
 2282 0008 0023     		movs	r3, #0
 2283 000a 0593     		str	r3, [sp, #20]
 275:src/ascii_proto_funcs.c ****     int c = 0;
 2284              		.loc 1 275 5 is_stmt 1 view .LVU461
 275:src/ascii_proto_funcs.c ****     int c = 0;
 2285              		.loc 1 275 9 is_stmt 0 view .LVU462
 2286 000c 0493     		str	r3, [sp, #16]
 276:src/ascii_proto_funcs.c ****     if (strlen(cmd) > 1){
 2287              		.loc 1 276 5 is_stmt 1 view .LVU463
 276:src/ascii_proto_funcs.c ****     if (strlen(cmd) > 1){
 2288              		.loc 1 276 9 is_stmt 0 view .LVU464
 2289 000e 0393     		str	r3, [sp, #12]
 277:src/ascii_proto_funcs.c ****         sscanf(cmd+1, "%d %d %d", &a, &b, &c);
 2290              		.loc 1 277 5 is_stmt 1 view .LVU465
 277:src/ascii_proto_funcs.c ****         sscanf(cmd+1, "%d %d %d", &a, &b, &c);
 2291              		.loc 1 277 9 is_stmt 0 view .LVU466
 2292 0010 0846     		mov	r0, r1
 2293              	.LVL175:
 277:src/ascii_proto_funcs.c ****         sscanf(cmd+1, "%d %d %d", &a, &b, &c);
 2294              		.loc 1 277 9 view .LVU467
 2295 0012 FFF7FEFF 		bl	strlen
 2296              	.LVL176:
 277:src/ascii_proto_funcs.c ****         sscanf(cmd+1, "%d %d %d", &a, &b, &c);
 2297              		.loc 1 277 8 discriminator 1 view .LVU468
 2298 0016 0128     		cmp	r0, #1
 2299 0018 1CD8     		bhi	.L116
 2300              	.L113:
 280:src/ascii_proto_funcs.c ****         c = 1000;
 2301              		.loc 1 280 5 is_stmt 1 view .LVU469
 280:src/ascii_proto_funcs.c ****         c = 1000;
 2302              		.loc 1 280 9 is_stmt 0 view .LVU470
 2303 001a 059A     		ldr	r2, [sp, #20]
 280:src/ascii_proto_funcs.c ****         c = 1000;
 2304              		.loc 1 280 8 view .LVU471
 2305 001c 22B1     		cbz	r2, .L114
 280:src/ascii_proto_funcs.c ****         c = 1000;
 2306              		.loc 1 280 16 discriminator 1 view .LVU472
 2307 001e 039B     		ldr	r3, [sp, #12]
 280:src/ascii_proto_funcs.c ****         c = 1000;
 2308              		.loc 1 280 11 discriminator 1 view .LVU473
 2309 0020 13B9     		cbnz	r3, .L114
 281:src/ascii_proto_funcs.c ****     }
 2310              		.loc 1 281 9 is_stmt 1 view .LVU474
 281:src/ascii_proto_funcs.c ****     }
 2311              		.loc 1 281 11 is_stmt 0 view .LVU475
ARM GAS  /tmp/ccidYgsI.s 			page 58


 2312 0022 4FF47A73 		mov	r3, #1000
 2313 0026 0393     		str	r3, [sp, #12]
 2314              	.L114:
 284:src/ascii_proto_funcs.c ****     buzzerPattern = b;
 2315              		.loc 1 284 5 is_stmt 1 view .LVU476
 284:src/ascii_proto_funcs.c ****     buzzerPattern = b;
 2316              		.loc 1 284 16 is_stmt 0 view .LVU477
 2317 0028 0F4B     		ldr	r3, .L117
 2318 002a 1A70     		strb	r2, [r3]
 285:src/ascii_proto_funcs.c ****     buzzerLen = c/5; // roughly 5ms per main loop, so 1s default
 2319              		.loc 1 285 5 is_stmt 1 view .LVU478
 285:src/ascii_proto_funcs.c ****     buzzerLen = c/5; // roughly 5ms per main loop, so 1s default
 2320              		.loc 1 285 19 is_stmt 0 view .LVU479
 2321 002c 049B     		ldr	r3, [sp, #16]
 2322 002e 0F49     		ldr	r1, .L117+4
 2323 0030 0B70     		strb	r3, [r1]
 286:src/ascii_proto_funcs.c ****     sprintf(ascii_out, "Alarm set to %d %d %d\r\n", a, b, c);
 2324              		.loc 1 286 5 is_stmt 1 view .LVU480
 286:src/ascii_proto_funcs.c ****     sprintf(ascii_out, "Alarm set to %d %d %d\r\n", a, b, c);
 2325              		.loc 1 286 18 is_stmt 0 view .LVU481
 2326 0032 0399     		ldr	r1, [sp, #12]
 2327 0034 0E4C     		ldr	r4, .L117+8
 2328              	.LVL177:
 286:src/ascii_proto_funcs.c ****     sprintf(ascii_out, "Alarm set to %d %d %d\r\n", a, b, c);
 2329              		.loc 1 286 18 view .LVU482
 2330 0036 84FB0104 		smull	r0, r4, r4, r1
 2331 003a C817     		asrs	r0, r1, #31
 2332 003c C0EB6400 		rsb	r0, r0, r4, asr #1
 286:src/ascii_proto_funcs.c ****     sprintf(ascii_out, "Alarm set to %d %d %d\r\n", a, b, c);
 2333              		.loc 1 286 15 view .LVU483
 2334 0040 0C4C     		ldr	r4, .L117+12
 2335 0042 2080     		strh	r0, [r4]	@ movhi
 287:src/ascii_proto_funcs.c ****     return 1;
 2336              		.loc 1 287 5 is_stmt 1 view .LVU484
 2337 0044 0091     		str	r1, [sp]
 2338 0046 0C49     		ldr	r1, .L117+16
 2339 0048 2846     		mov	r0, r5
 2340 004a FFF7FEFF 		bl	sprintf
 2341              	.LVL178:
 288:src/ascii_proto_funcs.c **** }
 2342              		.loc 1 288 5 view .LVU485
 289:src/ascii_proto_funcs.c **** 
 2343              		.loc 1 289 1 is_stmt 0 view .LVU486
 2344 004e 0120     		movs	r0, #1
 2345 0050 07B0     		add	sp, sp, #28
 2346              	.LCFI32:
 2347              		.cfi_remember_state
 2348              		.cfi_def_cfa_offset 12
 2349              		@ sp needed
 2350 0052 30BD     		pop	{r4, r5, pc}
 2351              	.LVL179:
 2352              	.L116:
 2353              	.LCFI33:
 2354              		.cfi_restore_state
 278:src/ascii_proto_funcs.c ****     }
 2355              		.loc 1 278 9 is_stmt 1 view .LVU487
 2356 0054 03AB     		add	r3, sp, #12
ARM GAS  /tmp/ccidYgsI.s 			page 59


 2357 0056 0093     		str	r3, [sp]
 2358 0058 04AB     		add	r3, sp, #16
 2359 005a 05AA     		add	r2, sp, #20
 2360 005c 0749     		ldr	r1, .L117+20
 2361 005e 601C     		adds	r0, r4, #1
 2362 0060 FFF7FEFF 		bl	sscanf
 2363              	.LVL180:
 2364 0064 D9E7     		b	.L113
 2365              	.L118:
 2366 0066 00BF     		.align	2
 2367              	.L117:
 2368 0068 00000000 		.word	buzzerFreq
 2369 006c 00000000 		.word	buzzerPattern
 2370 0070 67666666 		.word	1717986919
 2371 0074 00000000 		.word	buzzerLen
 2372 0078 0C000000 		.word	.LC19
 2373 007c 00000000 		.word	.LC18
 2374              		.cfi_endproc
 2375              	.LFE74:
 2377              		.section	.rodata.line_generic_var.str1.4,"aMS",%progbits,1
 2378              		.align	2
 2379              	.LC20:
 2380 0000 00       		.ascii	"\000"
 2381 0001 000000   		.align	2
 2382              	.LC21:
 2383 0004 6E6F2066 		.ascii	"no flash var given\015\012\000"
 2383      6C617368 
 2383      20766172 
 2383      20676976 
 2383      656E0D0A 
 2384 0019 000000   		.align	2
 2385              	.LC22:
 2386 001c 466C6173 		.ascii	"Flash initialised\015\012\000"
 2386      6820696E 
 2386      69746961 
 2386      6C697365 
 2386      640D0A00 
 2387              		.align	2
 2388              	.LC23:
 2389 0030 25732825 		.ascii	"%s(%s): %d\015\012\000"
 2389      73293A20 
 2389      25640D0A 
 2389      00
 2390 003d 000000   		.align	2
 2391              	.LC24:
 2392 0040 666C6173 		.ascii	"flash var %s(%s) now %d\015\012\000"
 2392      68207661 
 2392      72202573 
 2392      28257329 
 2392      206E6F77 
 2393 005a 0000     		.align	2
 2394              	.LC25:
 2395 005c 666C6173 		.ascii	"flash var %s(%s) unsupported type\015\012\000"
 2395      68207661 
 2395      72202573 
 2395      28257329 
 2395      20756E73 
ARM GAS  /tmp/ccidYgsI.s 			page 60


 2396              		.align	2
 2397              	.LC26:
 2398 0080 756E6B6E 		.ascii	"unknown flash data %s\015\012\000"
 2398      6F776E20 
 2398      666C6173 
 2398      68206461 
 2398      74612025 
 2399              		.section	.text.line_generic_var,"ax",%progbits
 2400              		.align	1
 2401              		.global	line_generic_var
 2402              		.syntax unified
 2403              		.thumb
 2404              		.thumb_func
 2406              	line_generic_var:
 2407              	.LVL181:
 2408              	.LFB79:
 343:src/ascii_proto_funcs.c **** //case 'f': // setting any parameter marked with uistr
 2409              		.loc 1 343 68 view -0
 2410              		.cfi_startproc
 2411              		@ args = 0, pretend = 0, frame = 264
 2412              		@ frame_needed = 0, uses_anonymous_args = 0
 343:src/ascii_proto_funcs.c **** //case 'f': // setting any parameter marked with uistr
 2413              		.loc 1 343 68 is_stmt 0 view .LVU489
 2414 0000 2DE9F04F 		push	{r4, r5, r6, r7, r8, r9, r10, fp, lr}
 2415              	.LCFI34:
 2416              		.cfi_def_cfa_offset 36
 2417              		.cfi_offset 4, -36
 2418              		.cfi_offset 5, -32
 2419              		.cfi_offset 6, -28
 2420              		.cfi_offset 7, -24
 2421              		.cfi_offset 8, -20
 2422              		.cfi_offset 9, -16
 2423              		.cfi_offset 10, -12
 2424              		.cfi_offset 11, -8
 2425              		.cfi_offset 14, -4
 2426 0004 C5B0     		sub	sp, sp, #276
 2427              	.LCFI35:
 2428              		.cfi_def_cfa_offset 312
 2429 0006 0646     		mov	r6, r0
 2430 0008 8946     		mov	r9, r1
 2431 000a 1746     		mov	r7, r2
 345:src/ascii_proto_funcs.c ****     if (len == 1){
 2432              		.loc 1 345 5 is_stmt 1 view .LVU490
 345:src/ascii_proto_funcs.c ****     if (len == 1){
 2433              		.loc 1 345 15 is_stmt 0 view .LVU491
 2434 000c 0846     		mov	r0, r1
 2435              	.LVL182:
 345:src/ascii_proto_funcs.c ****     if (len == 1){
 2436              		.loc 1 345 15 view .LVU492
 2437 000e FFF7FEFF 		bl	strlen
 2438              	.LVL183:
 346:src/ascii_proto_funcs.c ****         sprintf(ascii_out, "no flash var given\r\n");
 2439              		.loc 1 346 5 is_stmt 1 view .LVU493
 346:src/ascii_proto_funcs.c ****         sprintf(ascii_out, "no flash var given\r\n");
 2440              		.loc 1 346 8 is_stmt 0 view .LVU494
 2441 0012 0128     		cmp	r0, #1
 2442 0014 09D0     		beq	.L141
ARM GAS  /tmp/ccidYgsI.s 			page 61


 349:src/ascii_proto_funcs.c ****             memset(&FlashContent, 0, sizeof(FlashContent));
 2443              		.loc 1 349 9 is_stmt 1 view .LVU495
 349:src/ascii_proto_funcs.c ****             memset(&FlashContent, 0, sizeof(FlashContent));
 2444              		.loc 1 349 17 is_stmt 0 view .LVU496
 2445 0016 99F80130 		ldrb	r3, [r9, #1]	@ zero_extendqisi2
 349:src/ascii_proto_funcs.c ****             memset(&FlashContent, 0, sizeof(FlashContent));
 2446              		.loc 1 349 29 view .LVU497
 2447 001a 43F02003 		orr	r3, r3, #32
 349:src/ascii_proto_funcs.c ****             memset(&FlashContent, 0, sizeof(FlashContent));
 2448              		.loc 1 349 12 view .LVU498
 2449 001e 692B     		cmp	r3, #105
 2450 0020 0ED0     		beq	.L142
 355:src/ascii_proto_funcs.c ****                 // read all
 2451              		.loc 1 355 13 is_stmt 1 view .LVU499
 355:src/ascii_proto_funcs.c ****                 // read all
 2452              		.loc 1 355 16 is_stmt 0 view .LVU500
 2453 0022 612B     		cmp	r3, #97
 2454 0024 62D0     		beq	.L139
 2455              	.LBB2:
 387:src/ascii_proto_funcs.c ****                     if(s->params[i] != NULL) {
 2456              		.loc 1 387 24 view .LVU501
 2457 0026 0024     		movs	r4, #0
 2458 0028 CEE0     		b	.L124
 2459              	.L141:
 2460              	.LBE2:
 347:src/ascii_proto_funcs.c ****     } else {
 2461              		.loc 1 347 9 is_stmt 1 view .LVU502
 2462 002a 814C     		ldr	r4, .L149
 2463 002c 0FCC     		ldmia	r4!, {r0, r1, r2, r3}
 2464              	.LVL184:
 347:src/ascii_proto_funcs.c ****     } else {
 2465              		.loc 1 347 9 is_stmt 0 view .LVU503
 2466 002e 3860     		str	r0, [r7]	@ unaligned
 2467 0030 7960     		str	r1, [r7, #4]	@ unaligned
 2468 0032 BA60     		str	r2, [r7, #8]	@ unaligned
 2469 0034 FB60     		str	r3, [r7, #12]	@ unaligned
 2470 0036 2068     		ldr	r0, [r4]
 2471 0038 3861     		str	r0, [r7, #16]	@ unaligned
 2472 003a 2379     		ldrb	r3, [r4, #4]	@ zero_extendqisi2
 2473 003c 3B75     		strb	r3, [r7, #20]
 2474 003e EDE0     		b	.L121
 2475              	.LVL185:
 2476              	.L142:
 350:src/ascii_proto_funcs.c ****             memcpy(&FlashContent, &FlashDefaults, (sizeof(FlashContent) < sizeof(FlashDefaults))?si
 2477              		.loc 1 350 13 is_stmt 1 view .LVU504
 2478 0040 7C4C     		ldr	r4, .L149+4
 2479 0042 4E25     		movs	r5, #78
 2480 0044 2A46     		mov	r2, r5
 2481 0046 0021     		movs	r1, #0
 2482 0048 2046     		mov	r0, r4
 2483              	.LVL186:
 350:src/ascii_proto_funcs.c ****             memcpy(&FlashContent, &FlashDefaults, (sizeof(FlashContent) < sizeof(FlashDefaults))?si
 2484              		.loc 1 350 13 is_stmt 0 view .LVU505
 2485 004a FFF7FEFF 		bl	memset
 2486              	.LVL187:
 351:src/ascii_proto_funcs.c ****             writeFlash( (unsigned char *)&FlashContent, sizeof(FlashContent) );
 2487              		.loc 1 351 13 is_stmt 1 view .LVU506
ARM GAS  /tmp/ccidYgsI.s 			page 62


 2488 004e 2A46     		mov	r2, r5
 2489 0050 7949     		ldr	r1, .L149+8
 2490 0052 2046     		mov	r0, r4
 2491 0054 FFF7FEFF 		bl	memcpy
 2492              	.LVL188:
 352:src/ascii_proto_funcs.c ****             sprintf(ascii_out, "Flash initialised\r\n");
 2493              		.loc 1 352 13 view .LVU507
 2494 0058 2946     		mov	r1, r5
 2495 005a 2046     		mov	r0, r4
 2496 005c FFF7FEFF 		bl	writeFlash
 2497              	.LVL189:
 353:src/ascii_proto_funcs.c ****         } else {
 2498              		.loc 1 353 13 view .LVU508
 2499 0060 764C     		ldr	r4, .L149+12
 2500 0062 0FCC     		ldmia	r4!, {r0, r1, r2, r3}
 2501 0064 3860     		str	r0, [r7]	@ unaligned
 2502 0066 7960     		str	r1, [r7, #4]	@ unaligned
 2503 0068 BA60     		str	r2, [r7, #8]	@ unaligned
 2504 006a FB60     		str	r3, [r7, #12]	@ unaligned
 2505 006c 2068     		ldr	r0, [r4]
 2506 006e 3861     		str	r0, [r7, #16]	@ unaligned
 2507 0070 D4E0     		b	.L121
 2508              	.LVL190:
 2509              	.L127:
 2510              	.LBB7:
 2511              	.LBB8:
 373:src/ascii_proto_funcs.c ****                                     s->send_serial_data_wait((unsigned char *)ascii_out, strlen(asc
 2512              		.loc 1 373 50 is_stmt 0 view .LVU509
 2513 0072 BDF91110 		ldrsh	r1, [sp, #17]	@ unaligned
 370:src/ascii_proto_funcs.c ****                                             (s->params[i]->description)?s->params[i]->description:"
 2514              		.loc 1 370 37 view .LVU510
 2515 0076 9B68     		ldr	r3, [r3, #8]
 2516 0078 0091     		str	r1, [sp]
 2517 007a 7149     		ldr	r1, .L149+16
 2518 007c 3846     		mov	r0, r7
 2519 007e FFF7FEFF 		bl	sprintf
 2520              	.LVL191:
 374:src/ascii_proto_funcs.c ****                                     ascii_out[0] = 0; // don't print last one twice
 2521              		.loc 1 374 37 is_stmt 1 view .LVU511
 374:src/ascii_proto_funcs.c ****                                     ascii_out[0] = 0; // don't print last one twice
 2522              		.loc 1 374 38 is_stmt 0 view .LVU512
 2523 0082 D6F82451 		ldr	r5, [r6, #292]
 374:src/ascii_proto_funcs.c ****                                     ascii_out[0] = 0; // don't print last one twice
 2524              		.loc 1 374 90 view .LVU513
 2525 0086 3846     		mov	r0, r7
 2526 0088 FFF7FEFF 		bl	strlen
 2527              	.LVL192:
 2528 008c 0146     		mov	r1, r0
 374:src/ascii_proto_funcs.c ****                                     ascii_out[0] = 0; // don't print last one twice
 2529              		.loc 1 374 37 discriminator 1 view .LVU514
 2530 008e 3846     		mov	r0, r7
 2531 0090 A847     		blx	r5
 2532              	.LVL193:
 375:src/ascii_proto_funcs.c ****                                     break;
 2533              		.loc 1 375 37 is_stmt 1 view .LVU515
 375:src/ascii_proto_funcs.c ****                                     break;
 2534              		.loc 1 375 50 is_stmt 0 view .LVU516
ARM GAS  /tmp/ccidYgsI.s 			page 63


 2535 0092 0023     		movs	r3, #0
 2536 0094 3B70     		strb	r3, [r7]
 376:src/ascii_proto_funcs.c ****                                 }
 2537              		.loc 1 376 37 is_stmt 1 view .LVU517
 2538              	.L125:
 376:src/ascii_proto_funcs.c ****                                 }
 2539              		.loc 1 376 37 is_stmt 0 view .LVU518
 2540              	.LBE8:
 357:src/ascii_proto_funcs.c ****                     if(s->params[i] != NULL) {
 2541              		.loc 1 357 80 is_stmt 1 discriminator 2 view .LVU519
 2542 0096 0134     		adds	r4, r4, #1
 2543              	.LVL194:
 2544              	.L123:
 357:src/ascii_proto_funcs.c ****                     if(s->params[i] != NULL) {
 2545              		.loc 1 357 35 discriminator 1 view .LVU520
 2546 0098 FF2C     		cmp	r4, #255
 2547 009a 00F2BF80 		bhi	.L121
 358:src/ascii_proto_funcs.c ****                         if (s->params[i]->uistr){
 2548              		.loc 1 358 21 view .LVU521
 358:src/ascii_proto_funcs.c ****                         if (s->params[i]->uistr){
 2549              		.loc 1 358 33 is_stmt 0 view .LVU522
 2550 009e 04F20A33 		addw	r3, r4, #778
 2551 00a2 06EB8303 		add	r3, r6, r3, lsl #2
 2552 00a6 5D68     		ldr	r5, [r3, #4]
 358:src/ascii_proto_funcs.c ****                         if (s->params[i]->uistr){
 2553              		.loc 1 358 23 view .LVU523
 2554 00a8 002D     		cmp	r5, #0
 2555 00aa F4D0     		beq	.L125
 359:src/ascii_proto_funcs.c ****                             switch (s->params[i]->ui_type){
 2556              		.loc 1 359 25 is_stmt 1 view .LVU524
 359:src/ascii_proto_funcs.c ****                             switch (s->params[i]->ui_type){
 2557              		.loc 1 359 41 is_stmt 0 view .LVU525
 2558 00ac AB68     		ldr	r3, [r5, #8]
 359:src/ascii_proto_funcs.c ****                             switch (s->params[i]->ui_type){
 2559              		.loc 1 359 28 view .LVU526
 2560 00ae 002B     		cmp	r3, #0
 2561 00b0 F1D0     		beq	.L125
 360:src/ascii_proto_funcs.c ****                                 case UI_SHORT:
 2562              		.loc 1 360 29 is_stmt 1 view .LVU527
 360:src/ascii_proto_funcs.c ****                                 case UI_SHORT:
 2563              		.loc 1 360 49 is_stmt 0 view .LVU528
 2564 00b2 2B7B     		ldrb	r3, [r5, #12]	@ zero_extendqisi2
 360:src/ascii_proto_funcs.c ****                                 case UI_SHORT:
 2565              		.loc 1 360 29 view .LVU529
 2566 00b4 122B     		cmp	r3, #18
 2567 00b6 EED1     		bne	.L125
 2568              	.LBB9:
 365:src/ascii_proto_funcs.c ****                                     memset((void*)&newMsg,0x00,sizeof(PROTOCOL_MSG3full));
 2569              		.loc 1 365 37 is_stmt 1 view .LVU530
 366:src/ascii_proto_funcs.c **** 
 2570              		.loc 1 366 37 view .LVU531
 2571 00b8 4FF48172 		mov	r2, #258
 2572 00bc 0021     		movs	r1, #0
 2573 00be 03A8     		add	r0, sp, #12
 2574 00c0 FFF7FEFF 		bl	memset
 2575              	.LVL195:
 368:src/ascii_proto_funcs.c **** 
ARM GAS  /tmp/ccidYgsI.s 			page 64


 2576              		.loc 1 368 37 view .LVU532
 368:src/ascii_proto_funcs.c **** 
 2577              		.loc 1 368 53 is_stmt 0 view .LVU533
 2578 00c4 D5F81880 		ldr	r8, [r5, #24]
 368:src/ascii_proto_funcs.c **** 
 2579              		.loc 1 368 40 view .LVU534
 2580 00c8 B8F1000F 		cmp	r8, #0
 2581 00cc 04D0     		beq	.L126
 368:src/ascii_proto_funcs.c **** 
 2582              		.loc 1 368 59 is_stmt 1 discriminator 1 view .LVU535
 2583 00ce 03AB     		add	r3, sp, #12
 2584 00d0 7322     		movs	r2, #115
 2585 00d2 2946     		mov	r1, r5
 2586 00d4 3046     		mov	r0, r6
 2587 00d6 C047     		blx	r8
 2588              	.LVL196:
 2589              	.L126:
 370:src/ascii_proto_funcs.c ****                                             (s->params[i]->description)?s->params[i]->description:"
 2590              		.loc 1 370 37 view .LVU536
 371:src/ascii_proto_funcs.c ****                                             s->params[i]->uistr,
 2591              		.loc 1 371 55 is_stmt 0 view .LVU537
 2592 00d8 04F20A33 		addw	r3, r4, #778
 2593 00dc 06EB8303 		add	r3, r6, r3, lsl #2
 2594 00e0 5B68     		ldr	r3, [r3, #4]
 371:src/ascii_proto_funcs.c ****                                             s->params[i]->uistr,
 2595              		.loc 1 371 58 view .LVU538
 2596 00e2 5A68     		ldr	r2, [r3, #4]
 370:src/ascii_proto_funcs.c ****                                             (s->params[i]->description)?s->params[i]->description:"
 2597              		.loc 1 370 37 view .LVU539
 2598 00e4 002A     		cmp	r2, #0
 2599 00e6 C4D1     		bne	.L127
 370:src/ascii_proto_funcs.c ****                                             (s->params[i]->description)?s->params[i]->description:"
 2600              		.loc 1 370 37 discriminator 2 view .LVU540
 2601 00e8 564A     		ldr	r2, .L149+20
 2602 00ea C2E7     		b	.L127
 2603              	.LVL197:
 2604              	.L139:
 370:src/ascii_proto_funcs.c ****                                             (s->params[i]->description)?s->params[i]->description:"
 2605              		.loc 1 370 37 discriminator 2 view .LVU541
 2606              	.LBE9:
 357:src/ascii_proto_funcs.c ****                     if(s->params[i] != NULL) {
 2607              		.loc 1 357 26 view .LVU542
 2608 00ec 0024     		movs	r4, #0
 2609 00ee D3E7     		b	.L123
 2610              	.LVL198:
 2611              	.L146:
 357:src/ascii_proto_funcs.c ****                     if(s->params[i] != NULL) {
 2612              		.loc 1 357 26 view .LVU543
 2613              	.LBE7:
 2614              	.LBB10:
 394:src/ascii_proto_funcs.c **** 
 2615              		.loc 1 394 41 is_stmt 1 view .LVU544
 394:src/ascii_proto_funcs.c **** 
 2616              		.loc 1 394 51 is_stmt 0 discriminator 1 view .LVU545
 2617 00f0 0AF1010A 		add	r10, r10, #1
 394:src/ascii_proto_funcs.c **** 
 2618              		.loc 1 394 49 discriminator 1 view .LVU546
ARM GAS  /tmp/ccidYgsI.s 			page 65


 2619 00f4 19F80A30 		ldrb	r3, [r9, r10]	@ zero_extendqisi2
 394:src/ascii_proto_funcs.c **** 
 2620              		.loc 1 394 44 discriminator 1 view .LVU547
 2621 00f8 2F2B     		cmp	r3, #47
 2622 00fa 01D9     		bls	.L131
 394:src/ascii_proto_funcs.c **** 
 2623              		.loc 1 394 89 discriminator 1 view .LVU548
 2624 00fc 392B     		cmp	r3, #57
 2625 00fe 2BD9     		bls	.L143
 2626              	.L131:
 2627              	.LBB3:
 412:src/ascii_proto_funcs.c ****                                             memset((void*)&newMsg,0x00,sizeof(PROTOCOL_MSG3full));
 2628              		.loc 1 412 45 is_stmt 1 view .LVU549
 413:src/ascii_proto_funcs.c **** 
 2629              		.loc 1 413 45 view .LVU550
 2630 0100 4FF48172 		mov	r2, #258
 2631 0104 0021     		movs	r1, #0
 2632 0106 03A8     		add	r0, sp, #12
 2633 0108 FFF7FEFF 		bl	memset
 2634              	.LVL199:
 415:src/ascii_proto_funcs.c **** 
 2635              		.loc 1 415 45 view .LVU551
 415:src/ascii_proto_funcs.c **** 
 2636              		.loc 1 415 61 is_stmt 0 view .LVU552
 2637 010c D5F81880 		ldr	r8, [r5, #24]
 415:src/ascii_proto_funcs.c **** 
 2638              		.loc 1 415 48 view .LVU553
 2639 0110 B8F1000F 		cmp	r8, #0
 2640 0114 04D0     		beq	.L135
 415:src/ascii_proto_funcs.c **** 
 2641              		.loc 1 415 67 is_stmt 1 discriminator 1 view .LVU554
 2642 0116 03AB     		add	r3, sp, #12
 2643 0118 7322     		movs	r2, #115
 2644 011a 2946     		mov	r1, r5
 2645 011c 3046     		mov	r0, r6
 2646 011e C047     		blx	r8
 2647              	.LVL200:
 2648              	.L135:
 417:src/ascii_proto_funcs.c ****                                                     (s->params[i]->description)?s->params[i]->descr
 2649              		.loc 1 417 45 view .LVU555
 418:src/ascii_proto_funcs.c ****                                                     s->params[i]->uistr,
 2650              		.loc 1 418 63 is_stmt 0 view .LVU556
 2651 0120 04F20A33 		addw	r3, r4, #778
 2652 0124 06EB8303 		add	r3, r6, r3, lsl #2
 2653 0128 5B68     		ldr	r3, [r3, #4]
 418:src/ascii_proto_funcs.c ****                                                     s->params[i]->uistr,
 2654              		.loc 1 418 66 view .LVU557
 2655 012a 5A68     		ldr	r2, [r3, #4]
 417:src/ascii_proto_funcs.c ****                                                     (s->params[i]->description)?s->params[i]->descr
 2656              		.loc 1 417 45 view .LVU558
 2657 012c 002A     		cmp	r2, #0
 2658 012e 46D0     		beq	.L144
 2659              	.L136:
 420:src/ascii_proto_funcs.c ****                                             );
 2660              		.loc 1 420 80 view .LVU559
 2661 0130 1969     		ldr	r1, [r3, #16]
 420:src/ascii_proto_funcs.c ****                                             );
ARM GAS  /tmp/ccidYgsI.s 			page 66


 2662              		.loc 1 420 58 view .LVU560
 2663 0132 B1F90010 		ldrsh	r1, [r1]
 417:src/ascii_proto_funcs.c ****                                                     (s->params[i]->description)?s->params[i]->descr
 2664              		.loc 1 417 45 view .LVU561
 2665 0136 9B68     		ldr	r3, [r3, #8]
 2666 0138 0091     		str	r1, [sp]
 2667 013a 4149     		ldr	r1, .L149+16
 2668 013c 3846     		mov	r0, r7
 2669 013e FFF7FEFF 		bl	sprintf
 2670              	.LVL201:
 422:src/ascii_proto_funcs.c ****                                             ascii_out[0] = 0; // don't print last one twice
 2671              		.loc 1 422 45 is_stmt 1 view .LVU562
 422:src/ascii_proto_funcs.c ****                                             ascii_out[0] = 0; // don't print last one twice
 2672              		.loc 1 422 46 is_stmt 0 view .LVU563
 2673 0142 D6F82451 		ldr	r5, [r6, #292]
 422:src/ascii_proto_funcs.c ****                                             ascii_out[0] = 0; // don't print last one twice
 2674              		.loc 1 422 98 view .LVU564
 2675 0146 3846     		mov	r0, r7
 2676 0148 FFF7FEFF 		bl	strlen
 2677              	.LVL202:
 2678 014c 0146     		mov	r1, r0
 422:src/ascii_proto_funcs.c ****                                             ascii_out[0] = 0; // don't print last one twice
 2679              		.loc 1 422 45 discriminator 1 view .LVU565
 2680 014e 3846     		mov	r0, r7
 2681 0150 A847     		blx	r5
 2682              	.LVL203:
 423:src/ascii_proto_funcs.c ****                                         }
 2683              		.loc 1 423 45 is_stmt 1 view .LVU566
 423:src/ascii_proto_funcs.c ****                                         }
 2684              		.loc 1 423 58 is_stmt 0 view .LVU567
 2685 0152 0023     		movs	r3, #0
 2686 0154 3B70     		strb	r3, [r7]
 2687 0156 5EE0     		b	.L134
 2688              	.L143:
 423:src/ascii_proto_funcs.c ****                                         }
 2689              		.loc 1 423 58 view .LVU568
 2690              	.LBE3:
 2691              	.LBB4:
 396:src/ascii_proto_funcs.c ****                                             memset((void*)&newMsg,0x00,sizeof(PROTOCOL_MSG3full));
 2692              		.loc 1 396 45 is_stmt 1 view .LVU569
 397:src/ascii_proto_funcs.c **** 
 2693              		.loc 1 397 45 view .LVU570
 2694 0158 4FF48172 		mov	r2, #258
 2695 015c 0021     		movs	r1, #0
 2696 015e 03A8     		add	r0, sp, #12
 2697 0160 FFF7FEFF 		bl	memset
 2698              	.LVL204:
 399:src/ascii_proto_funcs.c ****                                             newMsg.code = s->params[i]->code;
 2699              		.loc 1 399 45 view .LVU571
 399:src/ascii_proto_funcs.c ****                                             newMsg.code = s->params[i]->code;
 2700              		.loc 1 399 86 is_stmt 0 view .LVU572
 2701 0164 A868     		ldr	r0, [r5, #8]
 2702 0166 FFF7FEFF 		bl	strlen
 2703              	.LVL205:
 399:src/ascii_proto_funcs.c ****                                             newMsg.code = s->params[i]->code;
 2704              		.loc 1 399 85 discriminator 1 view .LVU573
 2705 016a 0130     		adds	r0, r0, #1
ARM GAS  /tmp/ccidYgsI.s 			page 67


 399:src/ascii_proto_funcs.c ****                                             newMsg.code = s->params[i]->code;
 2706              		.loc 1 399 74 discriminator 1 view .LVU574
 2707 016c 4844     		add	r0, r0, r9
 2708 016e FFF7FEFF 		bl	atoi
 2709              	.LVL206:
 399:src/ascii_proto_funcs.c ****                                             newMsg.code = s->params[i]->code;
 2710              		.loc 1 399 72 discriminator 2 view .LVU575
 2711 0172 ADF81100 		strh	r0, [sp, #17]	@ unaligned
 400:src/ascii_proto_funcs.c ****                                             newMsg.cmd = PROTOCOL_CMD_READVALRESPONSE;
 2712              		.loc 1 400 45 is_stmt 1 view .LVU576
 400:src/ascii_proto_funcs.c ****                                             newMsg.cmd = PROTOCOL_CMD_READVALRESPONSE;
 2713              		.loc 1 400 68 is_stmt 0 view .LVU577
 2714 0176 04F20A33 		addw	r3, r4, #778
 2715 017a 06EB8303 		add	r3, r6, r3, lsl #2
 2716 017e 5968     		ldr	r1, [r3, #4]
 400:src/ascii_proto_funcs.c ****                                             newMsg.cmd = PROTOCOL_CMD_READVALRESPONSE;
 2717              		.loc 1 400 71 view .LVU578
 2718 0180 0B78     		ldrb	r3, [r1]	@ zero_extendqisi2
 400:src/ascii_proto_funcs.c ****                                             newMsg.cmd = PROTOCOL_CMD_READVALRESPONSE;
 2719              		.loc 1 400 57 view .LVU579
 2720 0182 8DF81030 		strb	r3, [sp, #16]
 401:src/ascii_proto_funcs.c **** 
 2721              		.loc 1 401 45 is_stmt 1 view .LVU580
 401:src/ascii_proto_funcs.c **** 
 2722              		.loc 1 401 56 is_stmt 0 view .LVU581
 2723 0186 7223     		movs	r3, #114
 2724 0188 8DF80D30 		strb	r3, [sp, #13]
 403:src/ascii_proto_funcs.c **** 
 2725              		.loc 1 403 45 is_stmt 1 view .LVU582
 403:src/ascii_proto_funcs.c **** 
 2726              		.loc 1 403 61 is_stmt 0 view .LVU583
 2727 018c 8D69     		ldr	r5, [r1, #24]
 403:src/ascii_proto_funcs.c **** 
 2728              		.loc 1 403 48 view .LVU584
 2729 018e 1DB1     		cbz	r5, .L132
 403:src/ascii_proto_funcs.c **** 
 2730              		.loc 1 403 67 is_stmt 1 discriminator 1 view .LVU585
 2731 0190 03AB     		add	r3, sp, #12
 2732 0192 7222     		movs	r2, #114
 2733 0194 3046     		mov	r0, r6
 2734 0196 A847     		blx	r5
 2735              	.LVL207:
 2736              	.L132:
 406:src/ascii_proto_funcs.c ****                                                 (s->params[i]->description)?s->params[i]->descripti
 2737              		.loc 1 406 45 view .LVU586
 407:src/ascii_proto_funcs.c ****                                                 s->params[i]->uistr,
 2738              		.loc 1 407 59 is_stmt 0 view .LVU587
 2739 0198 04F20A33 		addw	r3, r4, #778
 2740 019c 06EB8303 		add	r3, r6, r3, lsl #2
 2741 01a0 5B68     		ldr	r3, [r3, #4]
 407:src/ascii_proto_funcs.c ****                                                 s->params[i]->uistr,
 2742              		.loc 1 407 62 view .LVU588
 2743 01a2 5A68     		ldr	r2, [r3, #4]
 406:src/ascii_proto_funcs.c ****                                                 (s->params[i]->description)?s->params[i]->descripti
 2744              		.loc 1 406 45 view .LVU589
 2745 01a4 4AB1     		cbz	r2, .L145
 2746              	.L133:
ARM GAS  /tmp/ccidYgsI.s 			page 68


 409:src/ascii_proto_funcs.c ****                                         } else {
 2747              		.loc 1 409 76 view .LVU590
 2748 01a6 1969     		ldr	r1, [r3, #16]
 409:src/ascii_proto_funcs.c ****                                         } else {
 2749              		.loc 1 409 54 view .LVU591
 2750 01a8 B1F90010 		ldrsh	r1, [r1]
 406:src/ascii_proto_funcs.c ****                                                 (s->params[i]->description)?s->params[i]->descripti
 2751              		.loc 1 406 45 view .LVU592
 2752 01ac 9B68     		ldr	r3, [r3, #8]
 2753 01ae 0091     		str	r1, [sp]
 2754 01b0 2549     		ldr	r1, .L149+24
 2755 01b2 3846     		mov	r0, r7
 2756 01b4 FFF7FEFF 		bl	sprintf
 2757              	.LVL208:
 2758              	.LBE4:
 394:src/ascii_proto_funcs.c **** 
 2759              		.loc 1 394 136 view .LVU593
 2760 01b8 2DE0     		b	.L134
 2761              	.L145:
 2762              	.LBB5:
 406:src/ascii_proto_funcs.c ****                                                 (s->params[i]->description)?s->params[i]->descripti
 2763              		.loc 1 406 45 discriminator 2 view .LVU594
 2764 01ba 224A     		ldr	r2, .L149+20
 2765 01bc F3E7     		b	.L133
 2766              	.L144:
 406:src/ascii_proto_funcs.c ****                                                 (s->params[i]->description)?s->params[i]->descripti
 2767              		.loc 1 406 45 discriminator 2 view .LVU595
 2768              	.LBE5:
 2769              	.LBB6:
 417:src/ascii_proto_funcs.c ****                                                     (s->params[i]->description)?s->params[i]->descr
 2770              		.loc 1 417 45 discriminator 2 view .LVU596
 2771 01be 214A     		ldr	r2, .L149+20
 2772 01c0 B6E7     		b	.L136
 2773              	.L147:
 417:src/ascii_proto_funcs.c ****                                                     (s->params[i]->description)?s->params[i]->descr
 2774              		.loc 1 417 45 discriminator 2 view .LVU597
 2775              	.LBE6:
 427:src/ascii_proto_funcs.c ****                                                 (s->params[i]->description)?s->params[i]->descripti
 2776              		.loc 1 427 41 discriminator 2 view .LVU598
 2777 01c2 204A     		ldr	r2, .L149+20
 2778 01c4 22E0     		b	.L137
 2779              	.L129:
 387:src/ascii_proto_funcs.c ****                     if(s->params[i] != NULL) {
 2780              		.loc 1 387 41 is_stmt 1 discriminator 2 view .LVU599
 2781 01c6 0134     		adds	r4, r4, #1
 2782              	.LVL209:
 2783              	.L124:
 387:src/ascii_proto_funcs.c ****                     if(s->params[i] != NULL) {
 2784              		.loc 1 387 31 discriminator 1 view .LVU600
 2785 01c8 FF2C     		cmp	r4, #255
 2786 01ca 24DC     		bgt	.L134
 388:src/ascii_proto_funcs.c ****                         if (s->params[i]->uistr){
 2787              		.loc 1 388 21 view .LVU601
 388:src/ascii_proto_funcs.c ****                         if (s->params[i]->uistr){
 2788              		.loc 1 388 33 is_stmt 0 view .LVU602
 2789 01cc 04F20A33 		addw	r3, r4, #778
 2790 01d0 06EB8303 		add	r3, r6, r3, lsl #2
ARM GAS  /tmp/ccidYgsI.s 			page 69


 2791 01d4 5D68     		ldr	r5, [r3, #4]
 388:src/ascii_proto_funcs.c ****                         if (s->params[i]->uistr){
 2792              		.loc 1 388 23 view .LVU603
 2793 01d6 002D     		cmp	r5, #0
 2794 01d8 F5D0     		beq	.L129
 389:src/ascii_proto_funcs.c ****                             if (!strncmp(s->params[i]->uistr, &cmd[1], strlen(s->params[i]->uistr))
 2795              		.loc 1 389 25 is_stmt 1 view .LVU604
 389:src/ascii_proto_funcs.c ****                             if (!strncmp(s->params[i]->uistr, &cmd[1], strlen(s->params[i]->uistr))
 2796              		.loc 1 389 41 is_stmt 0 view .LVU605
 2797 01da D5F80880 		ldr	r8, [r5, #8]
 389:src/ascii_proto_funcs.c ****                             if (!strncmp(s->params[i]->uistr, &cmd[1], strlen(s->params[i]->uistr))
 2798              		.loc 1 389 28 view .LVU606
 2799 01de B8F1000F 		cmp	r8, #0
 2800 01e2 F0D0     		beq	.L129
 390:src/ascii_proto_funcs.c ****                                 switch (s->params[i]->ui_type){
 2801              		.loc 1 390 29 is_stmt 1 view .LVU607
 390:src/ascii_proto_funcs.c ****                                 switch (s->params[i]->ui_type){
 2802              		.loc 1 390 63 is_stmt 0 view .LVU608
 2803 01e4 09F1010B 		add	fp, r9, #1
 390:src/ascii_proto_funcs.c ****                                 switch (s->params[i]->ui_type){
 2804              		.loc 1 390 34 view .LVU609
 2805 01e8 4046     		mov	r0, r8
 2806 01ea FFF7FEFF 		bl	strlen
 2807              	.LVL210:
 2808 01ee 8246     		mov	r10, r0
 390:src/ascii_proto_funcs.c ****                                 switch (s->params[i]->ui_type){
 2809              		.loc 1 390 34 discriminator 1 view .LVU610
 2810 01f0 0246     		mov	r2, r0
 2811 01f2 5946     		mov	r1, fp
 2812 01f4 4046     		mov	r0, r8
 2813 01f6 FFF7FEFF 		bl	strncmp
 2814              	.LVL211:
 390:src/ascii_proto_funcs.c ****                                 switch (s->params[i]->ui_type){
 2815              		.loc 1 390 32 discriminator 2 view .LVU611
 2816 01fa 0028     		cmp	r0, #0
 2817 01fc E3D1     		bne	.L129
 391:src/ascii_proto_funcs.c ****                                     case UI_SHORT:
 2818              		.loc 1 391 33 is_stmt 1 view .LVU612
 391:src/ascii_proto_funcs.c ****                                     case UI_SHORT:
 2819              		.loc 1 391 53 is_stmt 0 view .LVU613
 2820 01fe 2B7B     		ldrb	r3, [r5, #12]	@ zero_extendqisi2
 391:src/ascii_proto_funcs.c ****                                     case UI_SHORT:
 2821              		.loc 1 391 33 view .LVU614
 2822 0200 122B     		cmp	r3, #18
 2823 0202 3FF475AF 		beq	.L146
 427:src/ascii_proto_funcs.c ****                                                 (s->params[i]->description)?s->params[i]->descripti
 2824              		.loc 1 427 41 is_stmt 1 view .LVU615
 428:src/ascii_proto_funcs.c ****                                                 s->params[i]->uistr
 2825              		.loc 1 428 62 is_stmt 0 view .LVU616
 2826 0206 6A68     		ldr	r2, [r5, #4]
 427:src/ascii_proto_funcs.c ****                                                 (s->params[i]->description)?s->params[i]->descripti
 2827              		.loc 1 427 41 view .LVU617
 2828 0208 002A     		cmp	r2, #0
 2829 020a DAD0     		beq	.L147
 2830              	.L137:
 427:src/ascii_proto_funcs.c ****                                                 (s->params[i]->description)?s->params[i]->descripti
 2831              		.loc 1 427 41 discriminator 4 view .LVU618
ARM GAS  /tmp/ccidYgsI.s 			page 70


 2832 020c 4346     		mov	r3, r8
 2833 020e 0F49     		ldr	r1, .L149+28
 2834 0210 3846     		mov	r0, r7
 2835 0212 FFF7FEFF 		bl	sprintf
 2836              	.LVL212:
 431:src/ascii_proto_funcs.c ****                                 }
 2837              		.loc 1 431 41 is_stmt 1 view .LVU619
 2838              	.L134:
 438:src/ascii_proto_funcs.c ****                     sprintf(ascii_out, "unknown flash data %s\r\n", cmd);
 2839              		.loc 1 438 17 view .LVU620
 438:src/ascii_proto_funcs.c ****                     sprintf(ascii_out, "unknown flash data %s\r\n", cmd);
 2840              		.loc 1 438 20 is_stmt 0 view .LVU621
 2841 0216 B4F5807F 		cmp	r4, #256
 2842 021a 03D0     		beq	.L148
 2843              	.LVL213:
 2844              	.L121:
 438:src/ascii_proto_funcs.c ****                     sprintf(ascii_out, "unknown flash data %s\r\n", cmd);
 2845              		.loc 1 438 20 view .LVU622
 2846              	.LBE10:
 444:src/ascii_proto_funcs.c **** }
 2847              		.loc 1 444 5 is_stmt 1 view .LVU623
 445:src/ascii_proto_funcs.c **** 
 2848              		.loc 1 445 1 is_stmt 0 view .LVU624
 2849 021c 0120     		movs	r0, #1
 2850 021e 45B0     		add	sp, sp, #276
 2851              	.LCFI36:
 2852              		.cfi_remember_state
 2853              		.cfi_def_cfa_offset 36
 2854              		@ sp needed
 2855 0220 BDE8F08F 		pop	{r4, r5, r6, r7, r8, r9, r10, fp, pc}
 2856              	.LVL214:
 2857              	.L148:
 2858              	.LCFI37:
 2859              		.cfi_restore_state
 2860              	.LBB11:
 439:src/ascii_proto_funcs.c ****                 }
 2861              		.loc 1 439 21 is_stmt 1 view .LVU625
 2862 0224 4A46     		mov	r2, r9
 2863 0226 0A49     		ldr	r1, .L149+32
 2864 0228 3846     		mov	r0, r7
 2865 022a FFF7FEFF 		bl	sprintf
 2866              	.LVL215:
 2867 022e F5E7     		b	.L121
 2868              	.L150:
 2869              		.align	2
 2870              	.L149:
 2871 0230 04000000 		.word	.LC21
 2872 0234 00000000 		.word	FlashContent
 2873 0238 00000000 		.word	FlashDefaults
 2874 023c 1C000000 		.word	.LC22
 2875 0240 30000000 		.word	.LC23
 2876 0244 00000000 		.word	.LC20
 2877 0248 40000000 		.word	.LC24
 2878 024c 5C000000 		.word	.LC25
 2879 0250 80000000 		.word	.LC26
 2880              	.LBE11:
 2881              		.cfi_endproc
ARM GAS  /tmp/ccidYgsI.s 			page 71


 2882              	.LFE79:
 2884              		.section	.rodata.line_poweroff_control.str1.4,"aMS",%progbits,1
 2885              		.align	2
 2886              	.LC27:
 2887 0000 52657365 		.ascii	"Reset in 500ms\015\012\000"
 2887      7420696E 
 2887      20353030 
 2887      6D730D0A 
 2887      00
 2888 0011 000000   		.align	2
 2889              	.LC28:
 2890 0014 256400   		.ascii	"%d\000"
 2891 0017 00       		.align	2
 2892              	.LC29:
 2893 0018 64697361 		.ascii	"disablepoweroff now %d\015\012powerofftimer now %d\015"
 2893      626C6570 
 2893      6F776572 
 2893      6F666620 
 2893      6E6F7720 
 2894 0045 0A00     		.ascii	"\012\000"
 2895              		.section	.text.line_poweroff_control,"ax",%progbits
 2896              		.align	1
 2897              		.global	line_poweroff_control
 2898              		.syntax unified
 2899              		.thumb
 2900              		.thumb_func
 2902              	line_poweroff_control:
 2903              	.LVL216:
 2904              	.LFB85:
 540:src/ascii_proto_funcs.c **** 
 541:src/ascii_proto_funcs.c **** int line_poweroff_control(PROTOCOL_STAT *s, char *cmd, char *ascii_out) {
 2905              		.loc 1 541 73 view -0
 2906              		.cfi_startproc
 2907              		@ args = 0, pretend = 0, frame = 8
 2908              		@ frame_needed = 0, uses_anonymous_args = 0
 2909              		.loc 1 541 73 is_stmt 0 view .LVU627
 2910 0000 F0B5     		push	{r4, r5, r6, r7, lr}
 2911              	.LCFI38:
 2912              		.cfi_def_cfa_offset 20
 2913              		.cfi_offset 4, -20
 2914              		.cfi_offset 5, -16
 2915              		.cfi_offset 6, -12
 2916              		.cfi_offset 7, -8
 2917              		.cfi_offset 14, -4
 2918 0002 83B0     		sub	sp, sp, #12
 2919              	.LCFI39:
 2920              		.cfi_def_cfa_offset 32
 2921 0004 0646     		mov	r6, r0
 2922 0006 0C46     		mov	r4, r1
 2923 0008 1546     		mov	r5, r2
 542:src/ascii_proto_funcs.c **** //case 'P':
 543:src/ascii_proto_funcs.c ****     if (strlen(cmd) == 1){
 2924              		.loc 1 543 5 is_stmt 1 view .LVU628
 2925              		.loc 1 543 9 is_stmt 0 view .LVU629
 2926 000a 0846     		mov	r0, r1
 2927              	.LVL217:
 2928              		.loc 1 543 9 view .LVU630
ARM GAS  /tmp/ccidYgsI.s 			page 72


 2929 000c FFF7FEFF 		bl	strlen
 2930              	.LVL218:
 2931              		.loc 1 543 8 discriminator 1 view .LVU631
 2932 0010 0128     		cmp	r0, #1
 2933 0012 0FD0     		beq	.L159
 544:src/ascii_proto_funcs.c ****         disablepoweroff = 1;
 545:src/ascii_proto_funcs.c ****         powerofftimer = 0;
 546:src/ascii_proto_funcs.c ****     } else {
 547:src/ascii_proto_funcs.c ****         if ((cmd[1] | 0x20) == 'r'){
 2934              		.loc 1 547 9 is_stmt 1 view .LVU632
 2935              		.loc 1 547 17 is_stmt 0 view .LVU633
 2936 0014 6378     		ldrb	r3, [r4, #1]	@ zero_extendqisi2
 2937              		.loc 1 547 29 view .LVU634
 2938 0016 43F02003 		orr	r3, r3, #32
 2939              		.loc 1 547 12 view .LVU635
 2940 001a 722B     		cmp	r3, #114
 2941 001c 1BD0     		beq	.L160
 2942              	.LVL219:
 2943              	.L154:
 548:src/ascii_proto_funcs.c ****             sprintf(ascii_out, "Reset in 500ms\r\n");
 549:src/ascii_proto_funcs.c ****             s->send_serial_data_wait((unsigned char *)ascii_out, strlen(ascii_out));
 550:src/ascii_proto_funcs.c ****             HAL_Delay(500);
 551:src/ascii_proto_funcs.c ****             HAL_NVIC_SystemReset();
 552:src/ascii_proto_funcs.c ****         }
 553:src/ascii_proto_funcs.c **** 
 554:src/ascii_proto_funcs.c ****         if ((cmd[1] | 0x20) == 'e'){
 2944              		.loc 1 554 9 is_stmt 1 view .LVU636
 2945              		.loc 1 554 17 is_stmt 0 view .LVU637
 2946 001e 6378     		ldrb	r3, [r4, #1]	@ zero_extendqisi2
 2947              		.loc 1 554 29 view .LVU638
 2948 0020 43F02003 		orr	r3, r3, #32
 2949              		.loc 1 554 12 view .LVU639
 2950 0024 652B     		cmp	r3, #101
 2951 0026 2DD1     		bne	.L155
 555:src/ascii_proto_funcs.c ****             disablepoweroff = 0;
 2952              		.loc 1 555 13 is_stmt 1 view .LVU640
 2953              		.loc 1 555 29 is_stmt 0 view .LVU641
 2954 0028 0023     		movs	r3, #0
 2955 002a 214A     		ldr	r2, .L161
 2956 002c 1370     		strb	r3, [r2]
 556:src/ascii_proto_funcs.c ****             powerofftimer = 0;
 2957              		.loc 1 556 13 is_stmt 1 view .LVU642
 2958              		.loc 1 556 27 is_stmt 0 view .LVU643
 2959 002e 214A     		ldr	r2, .L161+4
 2960 0030 1360     		str	r3, [r2]
 2961 0032 05E0     		b	.L153
 2962              	.LVL220:
 2963              	.L159:
 544:src/ascii_proto_funcs.c ****         powerofftimer = 0;
 2964              		.loc 1 544 9 is_stmt 1 view .LVU644
 544:src/ascii_proto_funcs.c ****         powerofftimer = 0;
 2965              		.loc 1 544 25 is_stmt 0 view .LVU645
 2966 0034 1E4B     		ldr	r3, .L161
 2967 0036 0122     		movs	r2, #1
 2968 0038 1A70     		strb	r2, [r3]
 545:src/ascii_proto_funcs.c ****     } else {
 2969              		.loc 1 545 9 is_stmt 1 view .LVU646
ARM GAS  /tmp/ccidYgsI.s 			page 73


 545:src/ascii_proto_funcs.c ****     } else {
 2970              		.loc 1 545 23 is_stmt 0 view .LVU647
 2971 003a 1E4B     		ldr	r3, .L161+4
 2972 003c 0022     		movs	r2, #0
 2973 003e 1A60     		str	r2, [r3]
 2974              	.LVL221:
 2975              	.L153:
 557:src/ascii_proto_funcs.c ****         } else {
 558:src/ascii_proto_funcs.c ****             int s = -1;
 559:src/ascii_proto_funcs.c ****             sscanf(cmd+1, "%d", &s);
 560:src/ascii_proto_funcs.c ****             if (s >= 0){
 561:src/ascii_proto_funcs.c ****                 if (s == 0){
 562:src/ascii_proto_funcs.c ****                     powerofftimer = 1; // immediate
 563:src/ascii_proto_funcs.c ****                 } else {
 564:src/ascii_proto_funcs.c ****                     powerofftimer = ((s*1000)/DELAY_IN_MAIN_LOOP);
 565:src/ascii_proto_funcs.c ****                 }
 566:src/ascii_proto_funcs.c ****             }
 567:src/ascii_proto_funcs.c ****         }
 568:src/ascii_proto_funcs.c ****     }
 569:src/ascii_proto_funcs.c ****     sprintf(ascii_out,
 2976              		.loc 1 569 5 is_stmt 1 view .LVU648
 2977 0040 1C4B     		ldr	r3, .L161+4
 2978 0042 1B68     		ldr	r3, [r3]
 2979 0044 1A4A     		ldr	r2, .L161
 2980 0046 1278     		ldrb	r2, [r2]	@ zero_extendqisi2
 2981 0048 1B49     		ldr	r1, .L161+8
 2982 004a 2846     		mov	r0, r5
 2983 004c FFF7FEFF 		bl	sprintf
 2984              	.LVL222:
 570:src/ascii_proto_funcs.c ****         "disablepoweroff now %d\r\n"\
 571:src/ascii_proto_funcs.c ****         "powerofftimer now %d\r\n",
 572:src/ascii_proto_funcs.c ****         disablepoweroff,
 573:src/ascii_proto_funcs.c ****         powerofftimer);
 574:src/ascii_proto_funcs.c ****     return 1;
 2985              		.loc 1 574 5 view .LVU649
 575:src/ascii_proto_funcs.c **** }
 2986              		.loc 1 575 1 is_stmt 0 view .LVU650
 2987 0050 0120     		movs	r0, #1
 2988 0052 03B0     		add	sp, sp, #12
 2989              	.LCFI40:
 2990              		.cfi_remember_state
 2991              		.cfi_def_cfa_offset 20
 2992              		@ sp needed
 2993 0054 F0BD     		pop	{r4, r5, r6, r7, pc}
 2994              	.LVL223:
 2995              	.L160:
 2996              	.LCFI41:
 2997              		.cfi_restore_state
 548:src/ascii_proto_funcs.c ****             s->send_serial_data_wait((unsigned char *)ascii_out, strlen(ascii_out));
 2998              		.loc 1 548 13 is_stmt 1 view .LVU651
 2999 0056 194F     		ldr	r7, .L161+12
 3000 0058 0FCF     		ldmia	r7!, {r0, r1, r2, r3}
 3001 005a 2860     		str	r0, [r5]	@ unaligned
 3002 005c 6960     		str	r1, [r5, #4]	@ unaligned
 3003 005e AA60     		str	r2, [r5, #8]	@ unaligned
 3004 0060 EB60     		str	r3, [r5, #12]	@ unaligned
 3005 0062 3B78     		ldrb	r3, [r7]	@ zero_extendqisi2
ARM GAS  /tmp/ccidYgsI.s 			page 74


 3006 0064 2B74     		strb	r3, [r5, #16]
 549:src/ascii_proto_funcs.c ****             HAL_Delay(500);
 3007              		.loc 1 549 13 view .LVU652
 549:src/ascii_proto_funcs.c ****             HAL_Delay(500);
 3008              		.loc 1 549 14 is_stmt 0 view .LVU653
 3009 0066 D6F82461 		ldr	r6, [r6, #292]
 3010              	.LVL224:
 549:src/ascii_proto_funcs.c ****             HAL_Delay(500);
 3011              		.loc 1 549 66 view .LVU654
 3012 006a 2846     		mov	r0, r5
 3013 006c FFF7FEFF 		bl	strlen
 3014              	.LVL225:
 3015 0070 0146     		mov	r1, r0
 549:src/ascii_proto_funcs.c ****             HAL_Delay(500);
 3016              		.loc 1 549 13 discriminator 1 view .LVU655
 3017 0072 2846     		mov	r0, r5
 3018 0074 B047     		blx	r6
 3019              	.LVL226:
 550:src/ascii_proto_funcs.c ****             HAL_NVIC_SystemReset();
 3020              		.loc 1 550 13 is_stmt 1 view .LVU656
 3021 0076 4FF4FA70 		mov	r0, #500
 3022 007a FFF7FEFF 		bl	HAL_Delay
 3023              	.LVL227:
 551:src/ascii_proto_funcs.c ****         }
 3024              		.loc 1 551 13 view .LVU657
 3025 007e FFF7FEFF 		bl	HAL_NVIC_SystemReset
 3026              	.LVL228:
 3027 0082 CCE7     		b	.L154
 3028              	.L155:
 3029              	.LBB12:
 558:src/ascii_proto_funcs.c ****             sscanf(cmd+1, "%d", &s);
 3030              		.loc 1 558 13 view .LVU658
 558:src/ascii_proto_funcs.c ****             sscanf(cmd+1, "%d", &s);
 3031              		.loc 1 558 17 is_stmt 0 view .LVU659
 3032 0084 4FF0FF33 		mov	r3, #-1
 3033 0088 0193     		str	r3, [sp, #4]
 559:src/ascii_proto_funcs.c ****             if (s >= 0){
 3034              		.loc 1 559 13 is_stmt 1 view .LVU660
 3035 008a 01AA     		add	r2, sp, #4
 3036 008c 0C49     		ldr	r1, .L161+16
 3037 008e 601C     		adds	r0, r4, #1
 3038 0090 FFF7FEFF 		bl	sscanf
 3039              	.LVL229:
 560:src/ascii_proto_funcs.c ****                 if (s == 0){
 3040              		.loc 1 560 13 view .LVU661
 560:src/ascii_proto_funcs.c ****                 if (s == 0){
 3041              		.loc 1 560 19 is_stmt 0 view .LVU662
 3042 0094 019B     		ldr	r3, [sp, #4]
 560:src/ascii_proto_funcs.c ****                 if (s == 0){
 3043              		.loc 1 560 16 view .LVU663
 3044 0096 002B     		cmp	r3, #0
 3045 0098 D2DB     		blt	.L153
 561:src/ascii_proto_funcs.c ****                     powerofftimer = 1; // immediate
 3046              		.loc 1 561 17 is_stmt 1 view .LVU664
 561:src/ascii_proto_funcs.c ****                     powerofftimer = 1; // immediate
 3047              		.loc 1 561 20 is_stmt 0 view .LVU665
 3048 009a 1BB9     		cbnz	r3, .L157
ARM GAS  /tmp/ccidYgsI.s 			page 75


 562:src/ascii_proto_funcs.c ****                 } else {
 3049              		.loc 1 562 21 is_stmt 1 view .LVU666
 562:src/ascii_proto_funcs.c ****                 } else {
 3050              		.loc 1 562 35 is_stmt 0 view .LVU667
 3051 009c 054B     		ldr	r3, .L161+4
 3052 009e 0122     		movs	r2, #1
 3053 00a0 1A60     		str	r2, [r3]
 3054 00a2 CDE7     		b	.L153
 3055              	.L157:
 564:src/ascii_proto_funcs.c ****                 }
 3056              		.loc 1 564 21 is_stmt 1 view .LVU668
 564:src/ascii_proto_funcs.c ****                 }
 3057              		.loc 1 564 46 is_stmt 0 view .LVU669
 3058 00a4 C822     		movs	r2, #200
 3059 00a6 02FB03F3 		mul	r3, r2, r3
 564:src/ascii_proto_funcs.c ****                 }
 3060              		.loc 1 564 35 view .LVU670
 3061 00aa 024A     		ldr	r2, .L161+4
 3062 00ac 1360     		str	r3, [r2]
 3063 00ae C7E7     		b	.L153
 3064              	.L162:
 3065              		.align	2
 3066              	.L161:
 3067 00b0 00000000 		.word	disablepoweroff
 3068 00b4 00000000 		.word	powerofftimer
 3069 00b8 18000000 		.word	.LC29
 3070 00bc 00000000 		.word	.LC27
 3071 00c0 14000000 		.word	.LC28
 3072              	.LBE12:
 3073              		.cfi_endproc
 3074              	.LFE85:
 3076              		.section	.rodata.line_reset_firmware.str1.4,"aMS",%progbits,1
 3077              		.align	2
 3078              	.LC30:
 3079 0000 0D0A2121 		.ascii	"\015\012!!!!!Resetting!!!!!\015\012\000"
 3079      21212152 
 3079      65736574 
 3079      74696E67 
 3079      21212121 
 3080              		.section	.text.line_reset_firmware,"ax",%progbits
 3081              		.align	1
 3082              		.global	line_reset_firmware
 3083              		.syntax unified
 3084              		.thumb
 3085              		.thumb_func
 3087              	line_reset_firmware:
 3088              	.LVL230:
 3089              	.LFB87:
 576:src/ascii_proto_funcs.c **** 
 577:src/ascii_proto_funcs.c **** int line_test_message(PROTOCOL_STAT *s, char *cmd, char *ascii_out) {
 578:src/ascii_proto_funcs.c **** //case 'T':
 579:src/ascii_proto_funcs.c ****     if (strlen(cmd) < 2){
 580:src/ascii_proto_funcs.c ****         sprintf(ascii_out, "Test command needs A N or T qualifier\r\n");
 581:src/ascii_proto_funcs.c ****     } else {
 582:src/ascii_proto_funcs.c ****         // send a test message in machine protocol
 583:src/ascii_proto_funcs.c ****         switch (cmd[1]){
 584:src/ascii_proto_funcs.c ****             case 'A':
ARM GAS  /tmp/ccidYgsI.s 			page 76


 585:src/ascii_proto_funcs.c ****             case 'a':
 586:src/ascii_proto_funcs.c ****                 //protocol_send_ack();
 587:src/ascii_proto_funcs.c ****                 break;
 588:src/ascii_proto_funcs.c ****             case 'N':
 589:src/ascii_proto_funcs.c ****             case 'n':
 590:src/ascii_proto_funcs.c ****                 //protocol_send_nack();
 591:src/ascii_proto_funcs.c ****                 break;
 592:src/ascii_proto_funcs.c ****             case 'T':
 593:src/ascii_proto_funcs.c ****             case 't':{
 594:src/ascii_proto_funcs.c ****                     char tmp[] = { PROTOCOL_SOM_ACK, 0, 5, PROTOCOL_CMD_TEST, 'T', 'e', 's', 't' };
 595:src/ascii_proto_funcs.c ****                     protocol_post(s, (PROTOCOL_MSG3full*)tmp);
 596:src/ascii_proto_funcs.c ****                 }
 597:src/ascii_proto_funcs.c ****                 break;
 598:src/ascii_proto_funcs.c ****         }
 599:src/ascii_proto_funcs.c ****         // CR before prompt.... after message
 600:src/ascii_proto_funcs.c ****         sprintf(ascii_out, "\r\n");
 601:src/ascii_proto_funcs.c ****     }
 602:src/ascii_proto_funcs.c ****     return 1;
 603:src/ascii_proto_funcs.c **** }
 604:src/ascii_proto_funcs.c **** 
 605:src/ascii_proto_funcs.c **** 
 606:src/ascii_proto_funcs.c **** int line_reset_firmware(PROTOCOL_STAT *s, char *cmd, char *ascii_out) {
 3090              		.loc 1 606 71 is_stmt 1 view -0
 3091              		.cfi_startproc
 3092              		@ args = 0, pretend = 0, frame = 0
 3093              		@ frame_needed = 0, uses_anonymous_args = 0
 3094              		.loc 1 606 71 is_stmt 0 view .LVU672
 3095 0000 38B5     		push	{r3, r4, r5, lr}
 3096              	.LCFI42:
 3097              		.cfi_def_cfa_offset 16
 3098              		.cfi_offset 3, -16
 3099              		.cfi_offset 4, -12
 3100              		.cfi_offset 5, -8
 3101              		.cfi_offset 14, -4
 607:src/ascii_proto_funcs.c **** //case 'R':
 608:src/ascii_proto_funcs.c ****     if (cmd[1] == '!'){
 3102              		.loc 1 608 5 is_stmt 1 view .LVU673
 3103              		.loc 1 608 12 is_stmt 0 view .LVU674
 3104 0002 4B78     		ldrb	r3, [r1, #1]	@ zero_extendqisi2
 3105              		.loc 1 608 8 view .LVU675
 3106 0004 212B     		cmp	r3, #33
 3107 0006 01D0     		beq	.L166
 3108              	.LVL231:
 3109              	.L164:
 609:src/ascii_proto_funcs.c ****         sprintf(ascii_out, "\r\n!!!!!Resetting!!!!!\r\n");
 610:src/ascii_proto_funcs.c ****         s->send_serial_data_wait((unsigned char *)ascii_out, strlen(ascii_out));
 611:src/ascii_proto_funcs.c ****         ascii_out[0] = 0;
 612:src/ascii_proto_funcs.c ****         HAL_Delay(500);
 613:src/ascii_proto_funcs.c ****         HAL_NVIC_SystemReset();
 614:src/ascii_proto_funcs.c ****     }
 615:src/ascii_proto_funcs.c ****     return 1;
 3110              		.loc 1 615 5 is_stmt 1 view .LVU676
 616:src/ascii_proto_funcs.c **** }
 3111              		.loc 1 616 1 is_stmt 0 view .LVU677
 3112 0008 0120     		movs	r0, #1
 3113 000a 38BD     		pop	{r3, r4, r5, pc}
 3114              	.LVL232:
ARM GAS  /tmp/ccidYgsI.s 			page 77


 3115              	.L166:
 3116              		.loc 1 616 1 view .LVU678
 3117 000c 8446     		mov	ip, r0
 3118 000e 1446     		mov	r4, r2
 609:src/ascii_proto_funcs.c ****         sprintf(ascii_out, "\r\n!!!!!Resetting!!!!!\r\n");
 3119              		.loc 1 609 9 is_stmt 1 view .LVU679
 3120 0010 0C4D     		ldr	r5, .L167
 3121 0012 0FCD     		ldmia	r5!, {r0, r1, r2, r3}
 3122              	.LVL233:
 609:src/ascii_proto_funcs.c ****         sprintf(ascii_out, "\r\n!!!!!Resetting!!!!!\r\n");
 3123              		.loc 1 609 9 is_stmt 0 view .LVU680
 3124 0014 2060     		str	r0, [r4]	@ unaligned
 3125 0016 6160     		str	r1, [r4, #4]	@ unaligned
 3126 0018 A260     		str	r2, [r4, #8]	@ unaligned
 3127 001a E360     		str	r3, [r4, #12]	@ unaligned
 3128 001c 03CD     		ldmia	r5!, {r0, r1}
 3129 001e 2061     		str	r0, [r4, #16]	@ unaligned
 3130 0020 6161     		str	r1, [r4, #20]	@ unaligned
 610:src/ascii_proto_funcs.c ****         ascii_out[0] = 0;
 3131              		.loc 1 610 9 is_stmt 1 view .LVU681
 610:src/ascii_proto_funcs.c ****         ascii_out[0] = 0;
 3132              		.loc 1 610 10 is_stmt 0 view .LVU682
 3133 0022 DCF82451 		ldr	r5, [ip, #292]
 610:src/ascii_proto_funcs.c ****         ascii_out[0] = 0;
 3134              		.loc 1 610 62 view .LVU683
 3135 0026 2046     		mov	r0, r4
 3136 0028 FFF7FEFF 		bl	strlen
 3137              	.LVL234:
 610:src/ascii_proto_funcs.c ****         ascii_out[0] = 0;
 3138              		.loc 1 610 62 view .LVU684
 3139 002c 0146     		mov	r1, r0
 610:src/ascii_proto_funcs.c ****         ascii_out[0] = 0;
 3140              		.loc 1 610 9 discriminator 1 view .LVU685
 3141 002e 2046     		mov	r0, r4
 3142 0030 A847     		blx	r5
 3143              	.LVL235:
 611:src/ascii_proto_funcs.c ****         HAL_Delay(500);
 3144              		.loc 1 611 9 is_stmt 1 view .LVU686
 611:src/ascii_proto_funcs.c ****         HAL_Delay(500);
 3145              		.loc 1 611 22 is_stmt 0 view .LVU687
 3146 0032 0023     		movs	r3, #0
 3147 0034 2370     		strb	r3, [r4]
 612:src/ascii_proto_funcs.c ****         HAL_NVIC_SystemReset();
 3148              		.loc 1 612 9 is_stmt 1 view .LVU688
 3149 0036 4FF4FA70 		mov	r0, #500
 3150 003a FFF7FEFF 		bl	HAL_Delay
 3151              	.LVL236:
 613:src/ascii_proto_funcs.c ****     }
 3152              		.loc 1 613 9 view .LVU689
 3153 003e FFF7FEFF 		bl	HAL_NVIC_SystemReset
 3154              	.LVL237:
 3155 0042 E1E7     		b	.L164
 3156              	.L168:
 3157              		.align	2
 3158              	.L167:
 3159 0044 00000000 		.word	.LC30
 3160              		.cfi_endproc
ARM GAS  /tmp/ccidYgsI.s 			page 78


 3161              	.LFE87:
 3163              		.section	.rodata.line_test_message.str1.4,"aMS",%progbits,1
 3164              		.align	2
 3165              	.LC31:
 3166 0000 54657374 		.ascii	"Test command needs A N or T qualifier\015\012\000"
 3166      20636F6D 
 3166      6D616E64 
 3166      206E6565 
 3166      64732041 
 3167              		.align	2
 3168              	.LC33:
 3169 0028 0D0A00   		.ascii	"\015\012\000"
 3170              		.section	.text.line_test_message,"ax",%progbits
 3171              		.align	1
 3172              		.global	line_test_message
 3173              		.syntax unified
 3174              		.thumb
 3175              		.thumb_func
 3177              	line_test_message:
 3178              	.LVL238:
 3179              	.LFB86:
 577:src/ascii_proto_funcs.c **** //case 'T':
 3180              		.loc 1 577 69 view -0
 3181              		.cfi_startproc
 3182              		@ args = 0, pretend = 0, frame = 8
 3183              		@ frame_needed = 0, uses_anonymous_args = 0
 577:src/ascii_proto_funcs.c **** //case 'T':
 3184              		.loc 1 577 69 is_stmt 0 view .LVU691
 3185 0000 70B5     		push	{r4, r5, r6, lr}
 3186              	.LCFI43:
 3187              		.cfi_def_cfa_offset 16
 3188              		.cfi_offset 4, -16
 3189              		.cfi_offset 5, -12
 3190              		.cfi_offset 6, -8
 3191              		.cfi_offset 14, -4
 3192 0002 82B0     		sub	sp, sp, #8
 3193              	.LCFI44:
 3194              		.cfi_def_cfa_offset 24
 3195 0004 0646     		mov	r6, r0
 3196 0006 0D46     		mov	r5, r1
 3197 0008 1446     		mov	r4, r2
 579:src/ascii_proto_funcs.c ****         sprintf(ascii_out, "Test command needs A N or T qualifier\r\n");
 3198              		.loc 1 579 5 is_stmt 1 view .LVU692
 579:src/ascii_proto_funcs.c ****         sprintf(ascii_out, "Test command needs A N or T qualifier\r\n");
 3199              		.loc 1 579 9 is_stmt 0 view .LVU693
 3200 000a 0846     		mov	r0, r1
 3201              	.LVL239:
 579:src/ascii_proto_funcs.c ****         sprintf(ascii_out, "Test command needs A N or T qualifier\r\n");
 3202              		.loc 1 579 9 view .LVU694
 3203 000c FFF7FEFF 		bl	strlen
 3204              	.LVL240:
 579:src/ascii_proto_funcs.c ****         sprintf(ascii_out, "Test command needs A N or T qualifier\r\n");
 3205              		.loc 1 579 8 discriminator 1 view .LVU695
 3206 0010 0128     		cmp	r0, #1
 3207 0012 0CD9     		bls	.L176
 583:src/ascii_proto_funcs.c ****             case 'A':
 3208              		.loc 1 583 9 is_stmt 1 view .LVU696
ARM GAS  /tmp/ccidYgsI.s 			page 79


 583:src/ascii_proto_funcs.c ****             case 'A':
 3209              		.loc 1 583 20 is_stmt 0 view .LVU697
 3210 0014 6B78     		ldrb	r3, [r5, #1]	@ zero_extendqisi2
 583:src/ascii_proto_funcs.c ****             case 'A':
 3211              		.loc 1 583 9 view .LVU698
 3212 0016 542B     		cmp	r3, #84
 3213 0018 22D0     		beq	.L173
 3214 001a 742B     		cmp	r3, #116
 3215 001c 20D0     		beq	.L173
 3216              	.L174:
 600:src/ascii_proto_funcs.c ****     }
 3217              		.loc 1 600 9 is_stmt 1 view .LVU699
 3218 001e 164B     		ldr	r3, .L177
 3219 0020 1A88     		ldrh	r2, [r3]	@ unaligned
 3220 0022 9B78     		ldrb	r3, [r3, #2]	@ zero_extendqisi2
 3221 0024 2280     		strh	r2, [r4]	@ unaligned
 3222 0026 A370     		strb	r3, [r4, #2]
 3223              	.LVL241:
 3224              	.L172:
 602:src/ascii_proto_funcs.c **** }
 3225              		.loc 1 602 5 view .LVU700
 603:src/ascii_proto_funcs.c **** 
 3226              		.loc 1 603 1 is_stmt 0 view .LVU701
 3227 0028 0120     		movs	r0, #1
 3228 002a 02B0     		add	sp, sp, #8
 3229              	.LCFI45:
 3230              		.cfi_remember_state
 3231              		.cfi_def_cfa_offset 16
 3232              		@ sp needed
 3233 002c 70BD     		pop	{r4, r5, r6, pc}
 3234              	.LVL242:
 3235              	.L176:
 3236              	.LCFI46:
 3237              		.cfi_restore_state
 580:src/ascii_proto_funcs.c ****     } else {
 3238              		.loc 1 580 9 is_stmt 1 view .LVU702
 3239 002e 134D     		ldr	r5, .L177+4
 3240              	.LVL243:
 580:src/ascii_proto_funcs.c ****     } else {
 3241              		.loc 1 580 9 is_stmt 0 view .LVU703
 3242 0030 A446     		mov	ip, r4
 3243 0032 05F12006 		add	r6, r5, #32
 3244              	.LVL244:
 3245              	.L171:
 580:src/ascii_proto_funcs.c ****     } else {
 3246              		.loc 1 580 9 view .LVU704
 3247 0036 2C46     		mov	r4, r5
 3248 0038 0FCC     		ldmia	r4!, {r0, r1, r2, r3}
 3249 003a CCF80000 		str	r0, [ip]	@ unaligned
 3250 003e CCF80410 		str	r1, [ip, #4]	@ unaligned
 3251 0042 CCF80820 		str	r2, [ip, #8]	@ unaligned
 3252 0046 CCF80C30 		str	r3, [ip, #12]	@ unaligned
 3253 004a 2546     		mov	r5, r4
 3254 004c 0CF1100C 		add	ip, ip, #16
 3255 0050 B442     		cmp	r4, r6
 3256 0052 F0D1     		bne	.L171
 3257 0054 03CD     		ldmia	r5!, {r0, r1}
ARM GAS  /tmp/ccidYgsI.s 			page 80


 3258 0056 CCF80000 		str	r0, [ip]	@ unaligned
 3259 005a CCF80410 		str	r1, [ip, #4]	@ unaligned
 3260 005e E3E7     		b	.L172
 3261              	.LVL245:
 3262              	.L173:
 3263              	.LBB13:
 594:src/ascii_proto_funcs.c ****                     protocol_post(s, (PROTOCOL_MSG3full*)tmp);
 3264              		.loc 1 594 21 is_stmt 1 view .LVU705
 594:src/ascii_proto_funcs.c ****                     protocol_post(s, (PROTOCOL_MSG3full*)tmp);
 3265              		.loc 1 594 26 is_stmt 0 view .LVU706
 3266 0060 074A     		ldr	r2, .L177+8
 3267 0062 6B46     		mov	r3, sp
 3268 0064 92E80300 		ldm	r2, {r0, r1}
 3269 0068 83E80300 		stm	r3, {r0, r1}
 595:src/ascii_proto_funcs.c ****                 }
 3270              		.loc 1 595 21 is_stmt 1 view .LVU707
 3271 006c 1946     		mov	r1, r3
 3272 006e 3046     		mov	r0, r6
 3273 0070 FFF7FEFF 		bl	protocol_post
 3274              	.LVL246:
 3275              	.LBE13:
 597:src/ascii_proto_funcs.c ****         }
 3276              		.loc 1 597 17 view .LVU708
 3277 0074 D3E7     		b	.L174
 3278              	.L178:
 3279 0076 00BF     		.align	2
 3280              	.L177:
 3281 0078 28000000 		.word	.LC33
 3282 007c 00000000 		.word	.LC31
 3283 0080 00000000 		.word	.LANCHOR0
 3284              		.cfi_endproc
 3285              	.LFE86:
 3287              		.section	.rodata.line_read_memory.str1.4,"aMS",%progbits,1
 3288              		.align	2
 3289              	.LC34:
 3290 0000 256C782C 		.ascii	"%lx,%x\000"
 3290      257800
 3291 0007 00       		.align	2
 3292              	.LC35:
 3293 0008 25322E32 		.ascii	"%2.2X \000"
 3293      582000
 3294              		.section	.text.line_read_memory,"ax",%progbits
 3295              		.align	1
 3296              		.global	line_read_memory
 3297              		.syntax unified
 3298              		.thumb
 3299              		.thumb_func
 3301              	line_read_memory:
 3302              	.LVL247:
 3303              	.LFB88:
 617:src/ascii_proto_funcs.c **** 
 618:src/ascii_proto_funcs.c **** int line_read_memory(PROTOCOL_STAT *s, char *cmd, char *ascii_out) {
 3304              		.loc 1 618 68 view -0
 3305              		.cfi_startproc
 3306              		@ args = 0, pretend = 0, frame = 120
 3307              		@ frame_needed = 0, uses_anonymous_args = 0
 3308              		.loc 1 618 68 is_stmt 0 view .LVU710
ARM GAS  /tmp/ccidYgsI.s 			page 81


 3309 0000 F0B5     		push	{r4, r5, r6, r7, lr}
 3310              	.LCFI47:
 3311              		.cfi_def_cfa_offset 20
 3312              		.cfi_offset 4, -20
 3313              		.cfi_offset 5, -16
 3314              		.cfi_offset 6, -12
 3315              		.cfi_offset 7, -8
 3316              		.cfi_offset 14, -4
 3317 0002 9FB0     		sub	sp, sp, #124
 3318              	.LCFI48:
 3319              		.cfi_def_cfa_offset 144
 3320 0004 0646     		mov	r6, r0
 3321 0006 1546     		mov	r5, r2
 619:src/ascii_proto_funcs.c **** // memory read hex address
 620:src/ascii_proto_funcs.c **** //case 'M':
 621:src/ascii_proto_funcs.c ****     unsigned char tmp[100];
 3322              		.loc 1 621 5 is_stmt 1 view .LVU711
 622:src/ascii_proto_funcs.c ****     unsigned char *addr = 0;
 3323              		.loc 1 622 5 view .LVU712
 3324              		.loc 1 622 20 is_stmt 0 view .LVU713
 3325 0008 0023     		movs	r3, #0
 3326 000a 0493     		str	r3, [sp, #16]
 623:src/ascii_proto_funcs.c ****     unsigned int len = 4;
 3327              		.loc 1 623 5 is_stmt 1 view .LVU714
 3328              		.loc 1 623 18 is_stmt 0 view .LVU715
 3329 000c 0423     		movs	r3, #4
 3330 000e 0393     		str	r3, [sp, #12]
 624:src/ascii_proto_funcs.c ****     if (cmd[1] == 'f') {
 3331              		.loc 1 624 5 is_stmt 1 view .LVU716
 3332              		.loc 1 624 12 is_stmt 0 view .LVU717
 3333 0010 4B78     		ldrb	r3, [r1, #1]	@ zero_extendqisi2
 3334              		.loc 1 624 8 view .LVU718
 3335 0012 662B     		cmp	r3, #102
 3336 0014 35D0     		beq	.L186
 3337 0016 0846     		mov	r0, r1
 3338              	.LVL248:
 625:src/ascii_proto_funcs.c ****         int res = readFlash( tmp, 100 );
 626:src/ascii_proto_funcs.c ****         if (res > 0) {
 627:src/ascii_proto_funcs.c ****             addr = tmp;
 628:src/ascii_proto_funcs.c ****             len = res;
 629:src/ascii_proto_funcs.c ****         }
 630:src/ascii_proto_funcs.c ****     } else {
 631:src/ascii_proto_funcs.c ****         sscanf(&cmd[1], "%lx,%x", (uint32_t *)&addr, &len);
 3339              		.loc 1 631 9 is_stmt 1 view .LVU719
 3340 0018 03AB     		add	r3, sp, #12
 3341 001a 04AA     		add	r2, sp, #16
 3342              	.LVL249:
 3343              		.loc 1 631 9 is_stmt 0 view .LVU720
 3344 001c 2449     		ldr	r1, .L188
 3345              	.LVL250:
 3346              		.loc 1 631 9 view .LVU721
 3347 001e 0130     		adds	r0, r0, #1
 3348              	.LVL251:
 3349              		.loc 1 631 9 view .LVU722
 3350 0020 FFF7FEFF 		bl	sscanf
 3351              	.LVL252:
 3352              	.L181:
ARM GAS  /tmp/ccidYgsI.s 			page 82


 632:src/ascii_proto_funcs.c ****     }
 633:src/ascii_proto_funcs.c ****     strcat( ascii_out, "\r\n" );
 3353              		.loc 1 633 5 is_stmt 1 view .LVU723
 3354 0024 2846     		mov	r0, r5
 3355 0026 FFF7FEFF 		bl	strlen
 3356              	.LVL253:
 3357              		.loc 1 633 5 is_stmt 0 discriminator 1 view .LVU724
 3358 002a 2A18     		adds	r2, r5, r0
 3359 002c 214B     		ldr	r3, .L188+4
 3360 002e 1988     		ldrh	r1, [r3]	@ unaligned
 3361 0030 9B78     		ldrb	r3, [r3, #2]	@ zero_extendqisi2
 3362 0032 2952     		strh	r1, [r5, r0]	@ unaligned
 3363 0034 9370     		strb	r3, [r2, #2]
 634:src/ascii_proto_funcs.c ****     for (int a = 0; a < len; a++) {
 3364              		.loc 1 634 5 is_stmt 1 view .LVU725
 3365              	.LBB14:
 3366              		.loc 1 634 10 view .LVU726
 3367              	.LVL254:
 3368              		.loc 1 634 14 is_stmt 0 view .LVU727
 3369 0036 0024     		movs	r4, #0
 3370              	.LVL255:
 3371              	.L182:
 3372              		.loc 1 634 23 is_stmt 1 discriminator 1 view .LVU728
 3373 0038 039B     		ldr	r3, [sp, #12]
 3374 003a 9C42     		cmp	r4, r3
 3375 003c 2BD2     		bcs	.L187
 3376              	.LBB15:
 635:src/ascii_proto_funcs.c ****         char t[5];
 3377              		.loc 1 635 9 view .LVU729
 636:src/ascii_proto_funcs.c ****         sprintf(t, "%2.2X ", *(addr+a));
 3378              		.loc 1 636 9 view .LVU730
 3379 003e 049B     		ldr	r3, [sp, #16]
 3380 0040 1A5D     		ldrb	r2, [r3, r4]	@ zero_extendqisi2
 3381 0042 1D49     		ldr	r1, .L188+8
 3382 0044 01A8     		add	r0, sp, #4
 3383 0046 FFF7FEFF 		bl	sprintf
 3384              	.LVL256:
 637:src/ascii_proto_funcs.c ****         strcat( ascii_out, t );
 3385              		.loc 1 637 9 view .LVU731
 3386 004a 01A9     		add	r1, sp, #4
 3387 004c 2846     		mov	r0, r5
 3388 004e FFF7FEFF 		bl	strcat
 3389              	.LVL257:
 638:src/ascii_proto_funcs.c ****         if (!((a+1)&0xf)){
 3390              		.loc 1 638 9 view .LVU732
 3391              		.loc 1 638 17 is_stmt 0 view .LVU733
 3392 0052 0134     		adds	r4, r4, #1
 3393              	.LVL258:
 3394              		.loc 1 638 12 view .LVU734
 3395 0054 14F00F0F 		tst	r4, #15
 3396 0058 EED1     		bne	.L182
 639:src/ascii_proto_funcs.c ****             strcat( ascii_out, "\r\n" );
 3397              		.loc 1 639 13 is_stmt 1 view .LVU735
 3398 005a 2846     		mov	r0, r5
 3399 005c FFF7FEFF 		bl	strlen
 3400              	.LVL259:
 3401              		.loc 1 639 13 is_stmt 0 discriminator 1 view .LVU736
ARM GAS  /tmp/ccidYgsI.s 			page 83


 3402 0060 2A18     		adds	r2, r5, r0
 3403 0062 144B     		ldr	r3, .L188+4
 3404 0064 1988     		ldrh	r1, [r3]	@ unaligned
 3405 0066 9B78     		ldrb	r3, [r3, #2]	@ zero_extendqisi2
 3406 0068 2952     		strh	r1, [r5, r0]	@ unaligned
 3407 006a 9370     		strb	r3, [r2, #2]
 640:src/ascii_proto_funcs.c ****             s->send_serial_data_wait((unsigned char *)ascii_out, strlen(ascii_out));
 3408              		.loc 1 640 13 is_stmt 1 view .LVU737
 3409              		.loc 1 640 14 is_stmt 0 view .LVU738
 3410 006c D6F82471 		ldr	r7, [r6, #292]
 3411              		.loc 1 640 66 view .LVU739
 3412 0070 2846     		mov	r0, r5
 3413 0072 FFF7FEFF 		bl	strlen
 3414              	.LVL260:
 3415 0076 0146     		mov	r1, r0
 3416              		.loc 1 640 13 discriminator 1 view .LVU740
 3417 0078 2846     		mov	r0, r5
 3418 007a B847     		blx	r7
 3419              	.LVL261:
 641:src/ascii_proto_funcs.c ****             ascii_out[0] = 0;
 3420              		.loc 1 641 13 is_stmt 1 view .LVU741
 3421              		.loc 1 641 26 is_stmt 0 view .LVU742
 3422 007c 0023     		movs	r3, #0
 3423 007e 2B70     		strb	r3, [r5]
 3424              	.LBE15:
 634:src/ascii_proto_funcs.c ****         char t[5];
 3425              		.loc 1 634 31 is_stmt 1 discriminator 2 view .LVU743
 3426              	.LVL262:
 634:src/ascii_proto_funcs.c ****         char t[5];
 3427              		.loc 1 634 31 is_stmt 0 discriminator 2 view .LVU744
 3428 0080 DAE7     		b	.L182
 3429              	.LVL263:
 3430              	.L186:
 634:src/ascii_proto_funcs.c ****         char t[5];
 3431              		.loc 1 634 31 discriminator 2 view .LVU745
 3432              	.LBE14:
 3433              	.LBB16:
 625:src/ascii_proto_funcs.c ****         if (res > 0) {
 3434              		.loc 1 625 9 is_stmt 1 view .LVU746
 625:src/ascii_proto_funcs.c ****         if (res > 0) {
 3435              		.loc 1 625 19 is_stmt 0 view .LVU747
 3436 0082 6421     		movs	r1, #100
 3437              	.LVL264:
 625:src/ascii_proto_funcs.c ****         if (res > 0) {
 3438              		.loc 1 625 19 view .LVU748
 3439 0084 05A8     		add	r0, sp, #20
 3440              	.LVL265:
 625:src/ascii_proto_funcs.c ****         if (res > 0) {
 3441              		.loc 1 625 19 view .LVU749
 3442 0086 FFF7FEFF 		bl	readFlash
 3443              	.LVL266:
 626:src/ascii_proto_funcs.c ****             addr = tmp;
 3444              		.loc 1 626 9 is_stmt 1 view .LVU750
 626:src/ascii_proto_funcs.c ****             addr = tmp;
 3445              		.loc 1 626 12 is_stmt 0 view .LVU751
 3446 008a 0028     		cmp	r0, #0
 626:src/ascii_proto_funcs.c ****             addr = tmp;
ARM GAS  /tmp/ccidYgsI.s 			page 84


 3447              		.loc 1 626 12 view .LVU752
 3448 008c CADD     		ble	.L181
 627:src/ascii_proto_funcs.c ****             len = res;
 3449              		.loc 1 627 13 is_stmt 1 view .LVU753
 627:src/ascii_proto_funcs.c ****             len = res;
 3450              		.loc 1 627 18 is_stmt 0 view .LVU754
 3451 008e 05AB     		add	r3, sp, #20
 3452 0090 0493     		str	r3, [sp, #16]
 628:src/ascii_proto_funcs.c ****         }
 3453              		.loc 1 628 13 is_stmt 1 view .LVU755
 628:src/ascii_proto_funcs.c ****         }
 3454              		.loc 1 628 17 is_stmt 0 view .LVU756
 3455 0092 0390     		str	r0, [sp, #12]
 3456 0094 C6E7     		b	.L181
 3457              	.LVL267:
 3458              	.L187:
 628:src/ascii_proto_funcs.c ****         }
 3459              		.loc 1 628 17 view .LVU757
 3460              	.LBE16:
 642:src/ascii_proto_funcs.c ****         }
 643:src/ascii_proto_funcs.c ****     }
 644:src/ascii_proto_funcs.c ****     strcat( ascii_out, "\r\n" );
 3461              		.loc 1 644 5 is_stmt 1 view .LVU758
 3462 0096 2846     		mov	r0, r5
 3463 0098 FFF7FEFF 		bl	strlen
 3464              	.LVL268:
 3465              		.loc 1 644 5 is_stmt 0 discriminator 1 view .LVU759
 3466 009c 2A18     		adds	r2, r5, r0
 3467 009e 054B     		ldr	r3, .L188+4
 3468 00a0 1988     		ldrh	r1, [r3]	@ unaligned
 3469 00a2 9B78     		ldrb	r3, [r3, #2]	@ zero_extendqisi2
 3470 00a4 2952     		strh	r1, [r5, r0]	@ unaligned
 3471 00a6 9370     		strb	r3, [r2, #2]
 645:src/ascii_proto_funcs.c ****     return 1;
 3472              		.loc 1 645 5 is_stmt 1 view .LVU760
 646:src/ascii_proto_funcs.c **** }
 3473              		.loc 1 646 1 is_stmt 0 view .LVU761
 3474 00a8 0120     		movs	r0, #1
 3475 00aa 1FB0     		add	sp, sp, #124
 3476              	.LCFI49:
 3477              		.cfi_def_cfa_offset 20
 3478              		@ sp needed
 3479 00ac F0BD     		pop	{r4, r5, r6, r7, pc}
 3480              	.LVL269:
 3481              	.L189:
 3482              		.loc 1 646 1 view .LVU762
 3483 00ae 00BF     		.align	2
 3484              	.L188:
 3485 00b0 00000000 		.word	.LC34
 3486 00b4 28000000 		.word	.LC33
 3487 00b8 08000000 		.word	.LC35
 3488              		.cfi_endproc
 3489              	.LFE88:
 3491              		.section	.rodata.get_F_description.str1.4,"aMS",%progbits,1
 3492              		.align	2
 3493              	.LC36:
 3494 0000 7072696E 		.ascii	"print/set a flash constant (Fa to print all, Fi to "
ARM GAS  /tmp/ccidYgsI.s 			page 85


 3494      742F7365 
 3494      74206120 
 3494      666C6173 
 3494      6820636F 
 3495 0033 64656661 		.ascii	"default all):\015\012  Fss - print, Fss<n> - set\015"
 3495      756C7420 
 3495      616C6C29 
 3495      3A0D0A20 
 3495      20467373 
 3496 005e 0A00     		.ascii	"\012\000"
 3497              		.align	2
 3498              	.LC37:
 3499 0060 20204625 		.ascii	"  F%s<n> - %s\015\012\000"
 3499      733C6E3E 
 3499      202D2025 
 3499      730D0A00 
 3500              		.section	.text.get_F_description,"ax",%progbits
 3501              		.align	1
 3502              		.global	get_F_description
 3503              		.syntax unified
 3504              		.thumb
 3505              		.thumb_func
 3507              	get_F_description:
 3508              	.LVL270:
 3509              	.LFB80:
 449:src/ascii_proto_funcs.c **** 
 3510              		.loc 1 449 43 is_stmt 1 view -0
 3511              		.cfi_startproc
 3512              		@ args = 0, pretend = 0, frame = 256
 3513              		@ frame_needed = 0, uses_anonymous_args = 0
 449:src/ascii_proto_funcs.c **** 
 3514              		.loc 1 449 43 is_stmt 0 view .LVU764
 3515 0000 2DE9F041 		push	{r4, r5, r6, r7, r8, lr}
 3516              	.LCFI50:
 3517              		.cfi_def_cfa_offset 24
 3518              		.cfi_offset 4, -24
 3519              		.cfi_offset 5, -20
 3520              		.cfi_offset 6, -16
 3521              		.cfi_offset 7, -12
 3522              		.cfi_offset 8, -8
 3523              		.cfi_offset 14, -4
 3524 0004 C2B0     		sub	sp, sp, #264
 3525              	.LCFI51:
 3526              		.cfi_def_cfa_offset 288
 3527 0006 0546     		mov	r5, r0
 451:src/ascii_proto_funcs.c ****     int len = 0;
 3528              		.loc 1 451 5 is_stmt 1 view .LVU765
 3529              	.LVL271:
 452:src/ascii_proto_funcs.c **** 
 3530              		.loc 1 452 5 view .LVU766
 455:src/ascii_proto_funcs.c ****         char *t = "print/set a flash constant (Fa to print all, Fi to default all):\r\n"
 3531              		.loc 1 455 5 view .LVU767
 3532              	.LBB17:
 455:src/ascii_proto_funcs.c ****         char *t = "print/set a flash constant (Fa to print all, Fi to default all):\r\n"
 3533              		.loc 1 455 10 view .LVU768
 455:src/ascii_proto_funcs.c ****         char *t = "print/set a flash constant (Fa to print all, Fi to default all):\r\n"
 3534              		.loc 1 455 14 is_stmt 0 view .LVU769
ARM GAS  /tmp/ccidYgsI.s 			page 86


 3535 0008 4FF00008 		mov	r8, #0
 3536              	.LBE17:
 451:src/ascii_proto_funcs.c ****     int len = 0;
 3537              		.loc 1 451 11 view .LVU770
 3538 000c 4746     		mov	r7, r8
 3539              	.LBB25:
 455:src/ascii_proto_funcs.c ****         char *t = "print/set a flash constant (Fa to print all, Fi to default all):\r\n"
 3540              		.loc 1 455 5 view .LVU771
 3541 000e 25E0     		b	.L191
 3542              	.LVL272:
 3543              	.L202:
 3544              	.LBB18:
 3545              	.LBB19:
 3546              	.LBB20:
 467:src/ascii_proto_funcs.c ****                         "  F%s<n> - %s\r\n",
 3547              		.loc 1 467 21 discriminator 2 view .LVU772
 3548 0010 1F4A     		ldr	r2, .L205
 3549 0012 0FE0     		b	.L195
 3550              	.L194:
 467:src/ascii_proto_funcs.c ****                         "  F%s<n> - %s\r\n",
 3551              		.loc 1 467 21 discriminator 2 view .LVU773
 3552              	.LBE20:
 463:src/ascii_proto_funcs.c ****             if(s->params[i] != NULL) {
 3553              		.loc 1 463 72 is_stmt 1 discriminator 2 view .LVU774
 3554 0014 0134     		adds	r4, r4, #1
 3555              	.LVL273:
 3556              	.L193:
 463:src/ascii_proto_funcs.c ****             if(s->params[i] != NULL) {
 3557              		.loc 1 463 27 discriminator 1 view .LVU775
 3558 0016 FF2C     		cmp	r4, #255
 3559 0018 1DD8     		bhi	.L201
 464:src/ascii_proto_funcs.c ****                 if (s->params[i]->uistr){
 3560              		.loc 1 464 13 view .LVU776
 464:src/ascii_proto_funcs.c ****                 if (s->params[i]->uistr){
 3561              		.loc 1 464 25 is_stmt 0 view .LVU777
 3562 001a 04F20A33 		addw	r3, r4, #778
 3563 001e 05EB8303 		add	r3, r5, r3, lsl #2
 3564 0022 5A68     		ldr	r2, [r3, #4]
 464:src/ascii_proto_funcs.c ****                 if (s->params[i]->uistr){
 3565              		.loc 1 464 15 view .LVU778
 3566 0024 002A     		cmp	r2, #0
 3567 0026 F5D0     		beq	.L194
 465:src/ascii_proto_funcs.c ****                     char tmp[256];
 3568              		.loc 1 465 17 is_stmt 1 view .LVU779
 465:src/ascii_proto_funcs.c ****                     char tmp[256];
 3569              		.loc 1 465 33 is_stmt 0 view .LVU780
 3570 0028 9368     		ldr	r3, [r2, #8]
 465:src/ascii_proto_funcs.c ****                     char tmp[256];
 3571              		.loc 1 465 20 view .LVU781
 3572 002a 002B     		cmp	r3, #0
 3573 002c F2D0     		beq	.L194
 3574              	.LBB21:
 466:src/ascii_proto_funcs.c ****                     snprintf(tmp, sizeof(tmp)-1,
 3575              		.loc 1 466 21 is_stmt 1 view .LVU782
 467:src/ascii_proto_funcs.c ****                         "  F%s<n> - %s\r\n",
 3576              		.loc 1 467 21 view .LVU783
 470:src/ascii_proto_funcs.c ****                         );
ARM GAS  /tmp/ccidYgsI.s 			page 87


 3577              		.loc 1 470 42 is_stmt 0 view .LVU784
 3578 002e 5268     		ldr	r2, [r2, #4]
 467:src/ascii_proto_funcs.c ****                         "  F%s<n> - %s\r\n",
 3579              		.loc 1 467 21 view .LVU785
 3580 0030 002A     		cmp	r2, #0
 3581 0032 EDD0     		beq	.L202
 3582              	.L195:
 467:src/ascii_proto_funcs.c ****                         "  F%s<n> - %s\r\n",
 3583              		.loc 1 467 21 discriminator 4 view .LVU786
 3584 0034 0092     		str	r2, [sp]
 3585 0036 174A     		ldr	r2, .L205+4
 3586 0038 FF21     		movs	r1, #255
 3587 003a 02A8     		add	r0, sp, #8
 3588 003c FFF7FEFF 		bl	snprintf
 3589              	.LVL274:
 472:src/ascii_proto_funcs.c ****                     if (p) strcat(p, tmp);
 3590              		.loc 1 472 21 is_stmt 1 view .LVU787
 472:src/ascii_proto_funcs.c ****                     if (p) strcat(p, tmp);
 3591              		.loc 1 472 28 is_stmt 0 view .LVU788
 3592 0040 02A8     		add	r0, sp, #8
 3593 0042 FFF7FEFF 		bl	strlen
 3594              	.LVL275:
 472:src/ascii_proto_funcs.c ****                     if (p) strcat(p, tmp);
 3595              		.loc 1 472 25 discriminator 1 view .LVU789
 3596 0046 0644     		add	r6, r6, r0
 3597              	.LVL276:
 473:src/ascii_proto_funcs.c ****                 }
 3598              		.loc 1 473 21 is_stmt 1 view .LVU790
 473:src/ascii_proto_funcs.c ****                 }
 3599              		.loc 1 473 24 is_stmt 0 view .LVU791
 3600 0048 002F     		cmp	r7, #0
 3601 004a E3D0     		beq	.L194
 473:src/ascii_proto_funcs.c ****                 }
 3602              		.loc 1 473 28 is_stmt 1 discriminator 1 view .LVU792
 3603 004c 02A9     		add	r1, sp, #8
 3604 004e 3846     		mov	r0, r7
 3605 0050 FFF7FEFF 		bl	strcat
 3606              	.LVL277:
 3607 0054 DEE7     		b	.L194
 3608              	.L201:
 473:src/ascii_proto_funcs.c ****                 }
 3609              		.loc 1 473 28 is_stmt 0 discriminator 1 view .LVU793
 3610              	.LBE21:
 3611              	.LBE19:
 478:src/ascii_proto_funcs.c ****             p = malloc(len+1);
 3612              		.loc 1 478 9 is_stmt 1 view .LVU794
 478:src/ascii_proto_funcs.c ****             p = malloc(len+1);
 3613              		.loc 1 478 12 is_stmt 0 view .LVU795
 3614 0056 87B1     		cbz	r7, .L203
 3615              	.L198:
 478:src/ascii_proto_funcs.c ****             p = malloc(len+1);
 3616              		.loc 1 478 12 view .LVU796
 3617              	.LBE18:
 455:src/ascii_proto_funcs.c ****         char *t = "print/set a flash constant (Fa to print all, Fi to default all):\r\n"
 3618              		.loc 1 455 29 is_stmt 1 discriminator 2 view .LVU797
 3619 0058 08F10108 		add	r8, r8, #1
 3620              	.LVL278:
ARM GAS  /tmp/ccidYgsI.s 			page 88


 3621              	.L191:
 455:src/ascii_proto_funcs.c ****         char *t = "print/set a flash constant (Fa to print all, Fi to default all):\r\n"
 3622              		.loc 1 455 23 discriminator 1 view .LVU798
 3623 005c B8F1010F 		cmp	r8, #1
 3624 0060 12DC     		bgt	.L204
 3625              	.LBB24:
 456:src/ascii_proto_funcs.c ****                 "  Fss - print, Fss<n> - set\r\n";
 3626              		.loc 1 456 9 view .LVU799
 3627              	.LVL279:
 459:src/ascii_proto_funcs.c **** 
 3628              		.loc 1 459 9 view .LVU800
 461:src/ascii_proto_funcs.c **** 
 3629              		.loc 1 461 9 view .LVU801
 461:src/ascii_proto_funcs.c **** 
 3630              		.loc 1 461 12 is_stmt 0 view .LVU802
 3631 0062 3FB1     		cbz	r7, .L192
 461:src/ascii_proto_funcs.c **** 
 3632              		.loc 1 461 16 is_stmt 1 discriminator 1 view .LVU803
 3633 0064 3846     		mov	r0, r7
 3634 0066 FFF7FEFF 		bl	strlen
 3635              	.LVL280:
 3636 006a 6022     		movs	r2, #96
 3637 006c 0A49     		ldr	r1, .L205+8
 3638 006e 3844     		add	r0, r0, r7
 3639 0070 FFF7FEFF 		bl	memcpy
 3640              	.LVL281:
 3641              	.L192:
 3642              	.LBB23:
 3643              	.LBB22:
 467:src/ascii_proto_funcs.c ****                         "  F%s<n> - %s\r\n",
 3644              		.loc 1 467 21 is_stmt 0 discriminator 2 view .LVU804
 3645 0074 0024     		movs	r4, #0
 3646 0076 5F26     		movs	r6, #95
 3647 0078 CDE7     		b	.L193
 3648              	.LVL282:
 3649              	.L203:
 467:src/ascii_proto_funcs.c ****                         "  F%s<n> - %s\r\n",
 3650              		.loc 1 467 21 discriminator 2 view .LVU805
 3651              	.LBE22:
 3652              	.LBE23:
 479:src/ascii_proto_funcs.c ****             *p = 0;
 3653              		.loc 1 479 13 is_stmt 1 view .LVU806
 479:src/ascii_proto_funcs.c ****             *p = 0;
 3654              		.loc 1 479 17 is_stmt 0 view .LVU807
 3655 007a 701C     		adds	r0, r6, #1
 3656 007c FFF7FEFF 		bl	malloc
 3657              	.LVL283:
 3658 0080 0746     		mov	r7, r0
 3659              	.LVL284:
 480:src/ascii_proto_funcs.c ****         }
 3660              		.loc 1 480 13 is_stmt 1 view .LVU808
 480:src/ascii_proto_funcs.c ****         }
 3661              		.loc 1 480 16 is_stmt 0 view .LVU809
 3662 0082 0023     		movs	r3, #0
 3663 0084 0370     		strb	r3, [r0]
 3664 0086 E7E7     		b	.L198
 3665              	.LVL285:
ARM GAS  /tmp/ccidYgsI.s 			page 89


 3666              	.L204:
 480:src/ascii_proto_funcs.c ****         }
 3667              		.loc 1 480 16 view .LVU810
 3668              	.LBE24:
 3669              	.LBE25:
 484:src/ascii_proto_funcs.c **** }
 3670              		.loc 1 484 5 is_stmt 1 view .LVU811
 485:src/ascii_proto_funcs.c **** 
 3671              		.loc 1 485 1 is_stmt 0 view .LVU812
 3672 0088 3846     		mov	r0, r7
 3673 008a 42B0     		add	sp, sp, #264
 3674              	.LCFI52:
 3675              		.cfi_def_cfa_offset 24
 3676              		@ sp needed
 3677 008c BDE8F081 		pop	{r4, r5, r6, r7, r8, pc}
 3678              	.LVL286:
 3679              	.L206:
 485:src/ascii_proto_funcs.c **** 
 3680              		.loc 1 485 1 view .LVU813
 3681              		.align	2
 3682              	.L205:
 3683 0090 00000000 		.word	.LC20
 3684 0094 60000000 		.word	.LC37
 3685 0098 00000000 		.word	.LC36
 3686              		.cfi_endproc
 3687              	.LFE80:
 3689              		.section	.text.line_hall,"ax",%progbits
 3690              		.align	1
 3691              		.global	line_hall
 3692              		.syntax unified
 3693              		.thumb
 3694              		.thumb_func
 3696              	line_hall:
 3697              	.LVL287:
 3698              	.LFB82:
 494:src/ascii_proto_funcs.c **** //case 'H':
 3699              		.loc 1 494 61 is_stmt 1 view -0
 3700              		.cfi_startproc
