ARM GAS  /tmp/ccC7I5pD.s 			page 1


   1              		.cpu cortex-m3
   2              		.arch armv7-m
   3              		.fpu softvfp
   4              		.eabi_attribute 20, 1
   5              		.eabi_attribute 21, 1
   6              		.eabi_attribute 23, 3
   7              		.eabi_attribute 24, 1
   8              		.eabi_attribute 25, 1
   9              		.eabi_attribute 26, 1
  10              		.eabi_attribute 30, 1
  11              		.eabi_attribute 34, 1
  12              		.eabi_attribute 18, 4
  13              		.file	"can_bus.c"
  14              		.text
  15              	.Ltext0:
  16              		.cfi_sections	.debug_frame
  17              		.file 1 "src/can_bus.c"
  18              		.section	.text.CAN_Init_IDs,"ax",%progbits
  19              		.align	1
  20              		.syntax unified
  21              		.thumb
  22              		.thumb_func
  24              	CAN_Init_IDs:
  25              	.LFB68:
   1:src/can_bus.c **** #include "can_bus.h"
   2:src/can_bus.c **** #include "config.h"
   3:src/can_bus.c **** #include "comms.h"
   4:src/can_bus.c **** 
   5:src/can_bus.c **** // Force output regardless of debug_out flag (RAW output, no protocol framing)
   6:src/can_bus.c **** void forceLog(char *message) {
   7:src/can_bus.c ****     consoleLogRaw(message);
   8:src/can_bus.c **** }
   9:src/can_bus.c **** 
  10:src/can_bus.c **** #ifdef ENABLE_CAN_BUS
  11:src/can_bus.c **** 
  12:src/can_bus.c **** #include "mcp2515.h"
  13:src/can_bus.c **** #include "setup.h"
  14:src/can_bus.c **** #include "protocolfunctions.h"
  15:src/can_bus.c **** #include "flashcontent.h"
  16:src/can_bus.c **** #include "control_structures.h"
  17:src/can_bus.c **** #include "hbprotocol/protocol.h"  // For CONTROL_TYPE_* defines
  18:src/can_bus.c **** #include <string.h>
  19:src/can_bus.c **** #include <stdio.h>
  20:src/can_bus.c **** 
  21:src/can_bus.c **** #ifdef SOFTWARE_SERIAL
  22:src/can_bus.c **** #include "softwareserial.h"
  23:src/can_bus.c **** #endif
  24:src/can_bus.c **** 
  25:src/can_bus.c **** // Communication mode flags
  26:src/can_bus.c **** volatile bool can_mode_active = false;
  27:src/can_bus.c **** volatile bool usart_mode_active = false;
  28:src/can_bus.c **** static bool software_serial_ready = false;  // Track if PA13/PA14 is initialized
  29:src/can_bus.c **** 
  30:src/can_bus.c **** // Check if Software Serial (PA13/PA14) is initialized
  31:src/can_bus.c **** bool CAN_IsSoftwareSerialReady(void) {
  32:src/can_bus.c ****     return software_serial_ready;
  33:src/can_bus.c **** }
ARM GAS  /tmp/ccC7I5pD.s 			page 2


  34:src/can_bus.c **** 
  35:src/can_bus.c **** // Board ID configuration (default 0)
  36:src/can_bus.c **** #ifndef CAN_BOARD_ID
  37:src/can_bus.c **** #define CAN_BOARD_ID 0
  38:src/can_bus.c **** #endif
  39:src/can_bus.c **** 
  40:src/can_bus.c **** // CAN ID offsets for command types
  41:src/can_bus.c **** #define CAN_CMD_PWM_OFFSET       0x00
  42:src/can_bus.c **** #define CAN_CMD_SPEED_OFFSET     0x01
  43:src/can_bus.c **** #define CAN_CMD_POSITION_OFFSET  0x02
  44:src/can_bus.c **** #define CAN_CMD_ENABLE_OFFSET    0x03
  45:src/can_bus.c **** #define CAN_STATUS_SPEED_OFFSET  0x00
  46:src/can_bus.c **** #define CAN_STATUS_POS_OFFSET    0x01
  47:src/can_bus.c **** #define CAN_STATUS_BATT_OFFSET   0x02
  48:src/can_bus.c **** #define CAN_STATUS_BOOTUP_OFFSET 0x0F  // Boot announcement message
  49:src/can_bus.c **** 
  50:src/can_bus.c **** static uint32_t can_cmd_pwm;
  51:src/can_bus.c **** static uint32_t can_cmd_speed;
  52:src/can_bus.c **** static uint32_t can_cmd_position;
  53:src/can_bus.c **** static uint32_t can_cmd_enable;
  54:src/can_bus.c **** static uint32_t can_status_speed;
  55:src/can_bus.c **** static uint32_t can_status_pos;
  56:src/can_bus.c **** static uint32_t can_status_batt;
  57:src/can_bus.c **** static uint32_t can_status_bootup;
  58:src/can_bus.c **** 
  59:src/can_bus.c **** // External flash content
  60:src/can_bus.c **** extern FLASH_CONTENT FlashContent;
  61:src/can_bus.c **** 
  62:src/can_bus.c **** // External USART handles
  63:src/can_bus.c **** extern UART_HandleTypeDef huart2;
  64:src/can_bus.c **** extern UART_HandleTypeDef huart3;
  65:src/can_bus.c **** extern void USART2_IT_init(void);
  66:src/can_bus.c **** extern void USART3_IT_init(void);
  67:src/can_bus.c **** 
  68:src/can_bus.c **** // CAN receive buffer
  69:src/can_bus.c **** static CAN_Frame rx_frame;
  70:src/can_bus.c **** 
  71:src/can_bus.c **** // CAN statistics
  72:src/can_bus.c **** static struct {
  73:src/can_bus.c ****     uint32_t rx_total;
  74:src/can_bus.c ****     uint32_t rx_pwm;
  75:src/can_bus.c ****     uint32_t rx_speed;
  76:src/can_bus.c ****     uint32_t rx_position;
  77:src/can_bus.c ****     uint32_t rx_enable;
  78:src/can_bus.c ****     uint32_t rx_unknown;
  79:src/can_bus.c ****     uint32_t tx_total;
  80:src/can_bus.c ****     uint32_t tx_status_speed;
  81:src/can_bus.c ****     uint32_t tx_status_pos;
  82:src/can_bus.c ****     uint32_t tx_status_batt;
  83:src/can_bus.c ****     uint32_t errors;
  84:src/can_bus.c ****     uint32_t last_error_flags;
  85:src/can_bus.c **** } can_stats = {0};
  86:src/can_bus.c **** 
  87:src/can_bus.c **** // Initialize CAN IDs based on flash-stored settings
  88:src/can_bus.c **** static void CAN_Init_IDs(void) {
  26              		.loc 1 88 32 view -0
  27              		.cfi_startproc
ARM GAS  /tmp/ccC7I5pD.s 			page 3


  28              		@ args = 0, pretend = 0, frame = 0
  29              		@ frame_needed = 0, uses_anonymous_args = 0
  30              		@ link register save eliminated.
  31 0000 10B4     		push	{r4}
  32              	.LCFI0:
  33              		.cfi_def_cfa_offset 4
  34              		.cfi_offset 4, -4
  89:src/can_bus.c ****     // Use flash-stored values if available, otherwise use defaults
  90:src/can_bus.c ****     uint8_t board_id = FlashContent.CAN_BoardID & 0x0F;  // Limit to 0-15
  35              		.loc 1 90 5 view .LVU1
  36              		.loc 1 90 36 is_stmt 0 view .LVU2
  37 0002 114B     		ldr	r3, .L3
  38              		.loc 1 90 49 view .LVU3
  39 0004 197F     		ldrb	r1, [r3, #28]	@ zero_extendqisi2
  40              		.loc 1 90 13 view .LVU4
  41 0006 01F00F01 		and	r1, r1, #15
  42              	.LVL0:
  91:src/can_bus.c ****     uint32_t cmd_base = FlashContent.CAN_BaseID_CMD;
  43              		.loc 1 91 5 is_stmt 1 view .LVU5
  44              		.loc 1 91 37 is_stmt 0 view .LVU6
  45 000a DA8B     		ldrh	r2, [r3, #30]
  46              	.LVL1:
  92:src/can_bus.c ****     uint32_t status_base = FlashContent.CAN_BaseID_STATUS;
  47              		.loc 1 92 5 is_stmt 1 view .LVU7
  48              		.loc 1 92 40 is_stmt 0 view .LVU8
  49 000c 1B8C     		ldrh	r3, [r3, #32]
  50              	.LVL2:
  93:src/can_bus.c ****     
  94:src/can_bus.c ****     // Calculate offset based on board ID
  95:src/can_bus.c ****     uint32_t offset = board_id * 0x10;
  51              		.loc 1 95 5 is_stmt 1 view .LVU9
  96:src/can_bus.c ****     
  97:src/can_bus.c ****     // Command IDs
  98:src/can_bus.c ****     can_cmd_pwm = cmd_base + offset + CAN_CMD_PWM_OFFSET;
  52              		.loc 1 98 5 view .LVU10
  53              		.loc 1 98 28 is_stmt 0 view .LVU11
  54 000e 02EB0112 		add	r2, r2, r1, lsl #4
  55              	.LVL3:
  56              		.loc 1 98 17 view .LVU12
  57 0012 0E48     		ldr	r0, .L3+4
  58 0014 0260     		str	r2, [r0]
  99:src/can_bus.c ****     can_cmd_speed = cmd_base + offset + CAN_CMD_SPEED_OFFSET;
  59              		.loc 1 99 5 is_stmt 1 view .LVU13
  60              		.loc 1 99 39 is_stmt 0 view .LVU14
  61 0016 541C     		adds	r4, r2, #1
  62              		.loc 1 99 19 view .LVU15
  63 0018 0D48     		ldr	r0, .L3+8
  64 001a 0460     		str	r4, [r0]
 100:src/can_bus.c ****     can_cmd_position = cmd_base + offset + CAN_CMD_POSITION_OFFSET;
  65              		.loc 1 100 5 is_stmt 1 view .LVU16
  66              		.loc 1 100 42 is_stmt 0 view .LVU17
  67 001c 941C     		adds	r4, r2, #2
  68              		.loc 1 100 22 view .LVU18
  69 001e 0D48     		ldr	r0, .L3+12
  70 0020 0460     		str	r4, [r0]
 101:src/can_bus.c ****     can_cmd_enable = cmd_base + offset + CAN_CMD_ENABLE_OFFSET;
  71              		.loc 1 101 5 is_stmt 1 view .LVU19
ARM GAS  /tmp/ccC7I5pD.s 			page 4


  72              		.loc 1 101 40 is_stmt 0 view .LVU20
  73 0022 0332     		adds	r2, r2, #3
  74              		.loc 1 101 20 view .LVU21
  75 0024 0C48     		ldr	r0, .L3+16
  76 0026 0260     		str	r2, [r0]
 102:src/can_bus.c ****     
 103:src/can_bus.c ****     // Status IDs
 104:src/can_bus.c ****     can_status_speed = status_base + offset + CAN_STATUS_SPEED_OFFSET;
  77              		.loc 1 104 5 is_stmt 1 view .LVU22
  78              		.loc 1 104 36 is_stmt 0 view .LVU23
  79 0028 03EB0113 		add	r3, r3, r1, lsl #4
  80              	.LVL4:
  81              		.loc 1 104 22 view .LVU24
  82 002c 0B4A     		ldr	r2, .L3+20
  83 002e 1360     		str	r3, [r2]
 105:src/can_bus.c ****     can_status_pos = status_base + offset + CAN_STATUS_POS_OFFSET;
  84              		.loc 1 105 5 is_stmt 1 view .LVU25
  85              		.loc 1 105 43 is_stmt 0 view .LVU26
  86 0030 591C     		adds	r1, r3, #1
  87              	.LVL5:
  88              		.loc 1 105 20 view .LVU27
  89 0032 0B4A     		ldr	r2, .L3+24
  90 0034 1160     		str	r1, [r2]
 106:src/can_bus.c ****     can_status_batt = status_base + offset + CAN_STATUS_BATT_OFFSET;
  91              		.loc 1 106 5 is_stmt 1 view .LVU28
  92              		.loc 1 106 44 is_stmt 0 view .LVU29
  93 0036 991C     		adds	r1, r3, #2
  94              		.loc 1 106 21 view .LVU30
  95 0038 0A4A     		ldr	r2, .L3+28
  96 003a 1160     		str	r1, [r2]
 107:src/can_bus.c ****     can_status_bootup = status_base + offset + CAN_STATUS_BOOTUP_OFFSET;
  97              		.loc 1 107 5 is_stmt 1 view .LVU31
  98              		.loc 1 107 46 is_stmt 0 view .LVU32
  99 003c 0F33     		adds	r3, r3, #15
 100              		.loc 1 107 23 view .LVU33
 101 003e 0A4A     		ldr	r2, .L3+32
 102 0040 1360     		str	r3, [r2]
 108:src/can_bus.c **** }
 103              		.loc 1 108 1 view .LVU34
 104 0042 10BC     		pop	{r4}
 105              	.LCFI1:
 106              		.cfi_restore 4
 107              		.cfi_def_cfa_offset 0
 108 0044 7047     		bx	lr
 109              	.L4:
 110 0046 00BF     		.align	2
 111              	.L3:
 112 0048 00000000 		.word	FlashContent
 113 004c 00000000 		.word	can_cmd_pwm
 114 0050 00000000 		.word	can_cmd_speed
 115 0054 00000000 		.word	can_cmd_position
 116 0058 00000000 		.word	can_cmd_enable
 117 005c 00000000 		.word	can_status_speed
 118 0060 00000000 		.word	can_status_pos
 119 0064 00000000 		.word	can_status_batt
 120 0068 00000000 		.word	can_status_bootup
 121              		.cfi_endproc
ARM GAS  /tmp/ccC7I5pD.s 			page 5


 122              	.LFE68:
 124              		.section	.text.forceLog,"ax",%progbits
 125              		.align	1
 126              		.global	forceLog
 127              		.syntax unified
 128              		.thumb
 129              		.thumb_func
 131              	forceLog:
 132              	.LVL6:
 133              	.LFB66:
   6:src/can_bus.c ****     consoleLogRaw(message);
 134              		.loc 1 6 30 is_stmt 1 view -0
 135              		.cfi_startproc
 136              		@ args = 0, pretend = 0, frame = 0
 137              		@ frame_needed = 0, uses_anonymous_args = 0
   6:src/can_bus.c ****     consoleLogRaw(message);
 138              		.loc 1 6 30 is_stmt 0 view .LVU36
 139 0000 08B5     		push	{r3, lr}
 140              	.LCFI2:
 141              		.cfi_def_cfa_offset 8
 142              		.cfi_offset 3, -8
 143              		.cfi_offset 14, -4
   7:src/can_bus.c **** }
 144              		.loc 1 7 5 is_stmt 1 view .LVU37
 145 0002 FFF7FEFF 		bl	consoleLogRaw
 146              	.LVL7:
   8:src/can_bus.c **** 
 147              		.loc 1 8 1 is_stmt 0 view .LVU38
 148 0006 08BD     		pop	{r3, pc}
 149              		.cfi_endproc
 150              	.LFE66:
 152              		.section	.text.CAN_IsSoftwareSerialReady,"ax",%progbits
 153              		.align	1
 154              		.global	CAN_IsSoftwareSerialReady
 155              		.syntax unified
 156              		.thumb
 157              		.thumb_func
 159              	CAN_IsSoftwareSerialReady:
 160              	.LFB67:
  31:src/can_bus.c ****     return software_serial_ready;
 161              		.loc 1 31 38 is_stmt 1 view -0
 162              		.cfi_startproc
 163              		@ args = 0, pretend = 0, frame = 0
 164              		@ frame_needed = 0, uses_anonymous_args = 0
 165              		@ link register save eliminated.
  32:src/can_bus.c **** }
 166              		.loc 1 32 5 view .LVU40
  33:src/can_bus.c **** 
 167              		.loc 1 33 1 is_stmt 0 view .LVU41
 168 0000 014B     		ldr	r3, .L8
 169 0002 1878     		ldrb	r0, [r3]	@ zero_extendqisi2
 170 0004 7047     		bx	lr
 171              	.L9:
 172 0006 00BF     		.align	2
 173              	.L8:
 174 0008 00000000 		.word	software_serial_ready
 175              		.cfi_endproc
ARM GAS  /tmp/ccC7I5pD.s 			page 6


 176              	.LFE67:
 178              		.section	.text.CAN_Fallback_To_USART,"ax",%progbits
 179              		.align	1
 180              		.global	CAN_Fallback_To_USART
 181              		.syntax unified
 182              		.thumb
 183              		.thumb_func
 185              	CAN_Fallback_To_USART:
 186              	.LFB70:
 109:src/can_bus.c **** 
 110:src/can_bus.c **** // Function to detect MCP2515 and initialize CAN bus
 111:src/can_bus.c **** bool CAN_AutoDetectAndInit(void) {
 112:src/can_bus.c **** #ifdef ENABLE_CAN_BUS
 113:src/can_bus.c ****     char msg[128];
 114:src/can_bus.c ****     
 115:src/can_bus.c ****     forceLog("\r\n=== CAN Bus Initialization ===\r\n");
 116:src/can_bus.c ****     forceLog("Detecting MCP2515 module...\r\n");
 117:src/can_bus.c ****     
 118:src/can_bus.c ****     // Initialize CAN IDs based on board ID
 119:src/can_bus.c ****     CAN_Init_IDs();
 120:src/can_bus.c ****     
 121:src/can_bus.c ****     // Try to detect MCP2515
 122:src/can_bus.c ****     if (MCP2515_Detect()) {
 123:src/can_bus.c ****         forceLog("MCP2515 DETECTED!\r\n");
 124:src/can_bus.c ****         
 125:src/can_bus.c ****         // MCP2515 detected - initialize CAN bus
 126:src/can_bus.c ****         sprintf(msg, "Initializing CAN at %d kbps...\r\n", 
 127:src/can_bus.c ****                 CAN_SPEED == MCP2515_SPEED_125KBPS ? 125 :
 128:src/can_bus.c ****                 CAN_SPEED == MCP2515_SPEED_250KBPS ? 250 :
 129:src/can_bus.c ****                 CAN_SPEED == MCP2515_SPEED_500KBPS ? 500 : 1000);
 130:src/can_bus.c ****         forceLog(msg);
 131:src/can_bus.c ****         
 132:src/can_bus.c ****         if (MCP2515_Init(CAN_SPEED)) {
 133:src/can_bus.c ****             /* SoftSPI_Init disabled TIM1/TIM8 IRQs to prevent motor-control
 134:src/can_bus.c ****              * timer interference during SPI pin setup. Re-enable now. */
 135:src/can_bus.c ****             forceLog("CAN bus initialized successfully\r\n");
 136:src/can_bus.c ****             can_mode_active = true;
 137:src/can_bus.c ****             usart_mode_active = false;
 138:src/can_bus.c ****             
 139:src/can_bus.c ****             // Reset statistics
 140:src/can_bus.c ****             memset(&can_stats, 0, sizeof(can_stats));
 141:src/can_bus.c **** 
 142:src/can_bus.c ****             // Now that CAN is working, enable software serial on PA13/PA14
 143:src/can_bus.c ****             // This disables SWD but CAN is confirmed working
 144:src/can_bus.c ****             #if defined(SOFTWARE_SERIAL) && defined(SOFTWARE_SERIAL_DEFERRED_INIT)
 145:src/can_bus.c ****             forceLog("Enabling software serial on PA13/PA14...\r\n");
 146:src/can_bus.c ****             SoftwareSerialInit();
 147:src/can_bus.c ****             software_serial_ready = true;  // Mark Software Serial as ready
 148:src/can_bus.c ****             
 149:src/can_bus.c ****             // Test PA13 output - blink it a few times to verify it's working
 150:src/can_bus.c ****             for(int i = 0; i < 10; i++) {
 151:src/can_bus.c ****                 HAL_GPIO_WritePin(SOFTWARE_SERIAL_TX_PORT, SOFTWARE_SERIAL_TX_PIN, 1);
 152:src/can_bus.c ****                 for(volatile int j = 0; j < 50000; j++);  // ~5ms
 153:src/can_bus.c ****                 HAL_GPIO_WritePin(SOFTWARE_SERIAL_TX_PORT, SOFTWARE_SERIAL_TX_PIN, 0);
 154:src/can_bus.c ****                 for(volatile int j = 0; j < 50000; j++);  // ~5ms
 155:src/can_bus.c ****             }
 156:src/can_bus.c ****             forceLog("PA13 test blink complete\r\n");
ARM GAS  /tmp/ccC7I5pD.s 			page 7


 157:src/can_bus.c **** 
 158:src/can_bus.c ****             // Run SPI diagnostic NOW (after serial is ready)
 159:src/can_bus.c ****             {
 160:src/can_bus.c ****                 char dmsg[100];
 161:src/can_bus.c ****                 forceLog("\r\n=== SPI DIAGNOSTIC ===\r\n");
 162:src/can_bus.c **** 
 163:src/can_bus.c ****                 // Single byte reads
 164:src/can_bus.c ****                 uint8_t cnf1 = MCP2515_ReadRegister(MCP2515_CNF1);
 165:src/can_bus.c ****                 uint8_t cnf2 = MCP2515_ReadRegister(MCP2515_CNF2);
 166:src/can_bus.c ****                 uint8_t cnf3 = MCP2515_ReadRegister(MCP2515_CNF3);
 167:src/can_bus.c ****                 sprintf(dmsg, "Single: CNF1=0x%02X CNF2=0x%02X CNF3=0x%02X\r\n", cnf1, cnf2, cnf3);
 168:src/can_bus.c ****                 forceLog(dmsg);
 169:src/can_bus.c **** 
 170:src/can_bus.c ****                 // Multi-byte read of same registers
 171:src/can_bus.c ****                 uint8_t multi[3];
 172:src/can_bus.c ****                 extern void SoftSPI_CS_Low(void);
 173:src/can_bus.c ****                 extern void SoftSPI_CS_High(void);
 174:src/can_bus.c ****                 extern uint8_t SoftSPI_Transfer(uint8_t data);
 175:src/can_bus.c ****                 SoftSPI_CS_Low();
 176:src/can_bus.c ****                 SoftSPI_Transfer(0x03);  // READ
 177:src/can_bus.c ****                 SoftSPI_Transfer(0x28);  // CNF3 addr
 178:src/can_bus.c ****                 multi[0] = SoftSPI_Transfer(0xFF);
 179:src/can_bus.c ****                 multi[1] = SoftSPI_Transfer(0xFF);
 180:src/can_bus.c ****                 multi[2] = SoftSPI_Transfer(0xFF);
 181:src/can_bus.c ****                 SoftSPI_CS_High();
 182:src/can_bus.c ****                 sprintf(dmsg, "Multi:  CNF3=0x%02X CNF2=0x%02X CNF1=0x%02X\r\n", multi[0], multi[1]
 183:src/can_bus.c ****                 forceLog(dmsg);
 184:src/can_bus.c **** 
 185:src/can_bus.c ****                 // Check CANSTAT
 186:src/can_bus.c ****                 uint8_t canstat = MCP2515_ReadRegister(MCP2515_CANSTAT);
 187:src/can_bus.c ****                 sprintf(dmsg, "CANSTAT=0x%02X (0x00=normal)\r\n", canstat);
 188:src/can_bus.c ****                 forceLog(dmsg);
 189:src/can_bus.c ****                 forceLog("======================\r\n\r\n");
 190:src/can_bus.c ****             }
 191:src/can_bus.c ****             #endif
 192:src/can_bus.c **** 
 193:src/can_bus.c ****             forceLog("CAN controller mode ACTIVE\r\n");
 194:src/can_bus.c ****             forceLog("NOTE: All debug messages will now appear automatically.\r\n");
 195:src/can_bus.c ****             forceLog("      No need to send 'E' or unlock commands.\r\n\r\n");
 196:src/can_bus.c ****             return true;
 197:src/can_bus.c ****         } else {
 198:src/can_bus.c ****             forceLog("ERROR: CAN initialization failed\r\n");
 199:src/can_bus.c ****         }
 200:src/can_bus.c ****     } else {
 201:src/can_bus.c ****         forceLog("MCP2515 NOT DETECTED\r\n");
 202:src/can_bus.c ****     }
 203:src/can_bus.c ****     
 204:src/can_bus.c ****     can_mode_active = false;
 205:src/can_bus.c **** 
 206:src/can_bus.c ****     // Fall back to USART mode
 207:src/can_bus.c ****     CAN_Fallback_To_USART();
 208:src/can_bus.c ****     return false;
 209:src/can_bus.c **** #else
 210:src/can_bus.c ****     // CAN not enabled - use USART by default
 211:src/can_bus.c ****     can_mode_active = false;
 212:src/can_bus.c ****     CAN_Fallback_To_USART();
 213:src/can_bus.c ****     return false;
ARM GAS  /tmp/ccC7I5pD.s 			page 8


 214:src/can_bus.c **** #endif
 215:src/can_bus.c **** }
 216:src/can_bus.c **** 
 217:src/can_bus.c **** // Fall back to USART2/USART3 mode
 218:src/can_bus.c **** void CAN_Fallback_To_USART(void) {
 187              		.loc 1 218 34 is_stmt 1 view -0
 188              		.cfi_startproc
 189              		@ args = 0, pretend = 0, frame = 0
 190              		@ frame_needed = 0, uses_anonymous_args = 0
 191              		@ link register save eliminated.
 219:src/can_bus.c ****     usart_mode_active = true;
 192              		.loc 1 219 5 view .LVU43
 193              		.loc 1 219 23 is_stmt 0 view .LVU44
 194 0000 014B     		ldr	r3, .L11
 195 0002 0122     		movs	r2, #1
 196 0004 1A70     		strb	r2, [r3]
 220:src/can_bus.c **** 
 221:src/can_bus.c **** #ifdef SERIAL_USART2_IT
 222:src/can_bus.c ****     USART2_IT_init();
 223:src/can_bus.c **** #endif
 224:src/can_bus.c **** 
 225:src/can_bus.c **** #ifdef SERIAL_USART3_IT
 226:src/can_bus.c ****     USART3_IT_init();
 227:src/can_bus.c **** #endif
 228:src/can_bus.c **** }
 197              		.loc 1 228 1 view .LVU45
 198 0006 7047     		bx	lr
 199              	.L12:
 200              		.align	2
 201              	.L11:
 202 0008 00000000 		.word	usart_mode_active
 203              		.cfi_endproc
 204              	.LFE70:
 206              		.section	.rodata.CAN_AutoDetectAndInit.str1.4,"aMS",%progbits,1
 207              		.align	2
 208              	.LC0:
 209 0000 0D0A3D3D 		.ascii	"\015\012=== CAN Bus Initialization ===\015\012\000"
 209      3D204341 
 209      4E204275 
 209      7320496E 
 209      69746961 
 210 0023 00       		.align	2
 211              	.LC1:
 212 0024 44657465 		.ascii	"Detecting MCP2515 module...\015\012\000"
 212      6374696E 
 212      67204D43 
 212      50323531 
 212      35206D6F 
 213 0042 0000     		.align	2
 214              	.LC2:
 215 0044 4D435032 		.ascii	"MCP2515 DETECTED!\015\012\000"
 215      35313520 
 215      44455445 
 215      43544544 
 215      210D0A00 
 216              		.align	2
 217              	.LC3:
ARM GAS  /tmp/ccC7I5pD.s 			page 9


 218 0058 496E6974 		.ascii	"Initializing CAN at %d kbps...\015\012\000"
 218      69616C69 
 218      7A696E67 
 218      2043414E 
 218      20617420 
 219 0079 000000   		.align	2
 220              	.LC4:
 221 007c 43414E20 		.ascii	"CAN bus initialized successfully\015\012\000"
 221      62757320 
 221      696E6974 
 221      69616C69 
 221      7A656420 
 222 009f 00       		.align	2
 223              	.LC5:
 224 00a0 456E6162 		.ascii	"Enabling software serial on PA13/PA14...\015\012\000"
 224      6C696E67 
 224      20736F66 
 224      74776172 
 224      65207365 
 225 00cb 00       		.align	2
 226              	.LC6:
 227 00cc 50413133 		.ascii	"PA13 test blink complete\015\012\000"
 227      20746573 
 227      7420626C 
 227      696E6B20 
 227      636F6D70 
 228 00e7 00       		.align	2
 229              	.LC7:
 230 00e8 0D0A3D3D 		.ascii	"\015\012=== SPI DIAGNOSTIC ===\015\012\000"
 230      3D205350 
 230      49204449 
 230      41474E4F 
 230      53544943 
 231 0103 00       		.align	2
 232              	.LC8:
 233 0104 53696E67 		.ascii	"Single: CNF1=0x%02X CNF2=0x%02X CNF3=0x%02X\015\012"
 233      6C653A20 
 233      434E4631 
 233      3D307825 
 233      30325820 
 234 0131 00       		.ascii	"\000"
 235 0132 0000     		.align	2
 236              	.LC9:
 237 0134 4D756C74 		.ascii	"Multi:  CNF3=0x%02X CNF2=0x%02X CNF1=0x%02X\015\012"
 237      693A2020 
 237      434E4633 
 237      3D307825 
 237      30325820 
 238 0161 00       		.ascii	"\000"
 239 0162 0000     		.align	2
 240              	.LC10:
 241 0164 43414E53 		.ascii	"CANSTAT=0x%02X (0x00=normal)\015\012\000"
 241      5441543D 
 241      30782530 
 241      32582028 
 241      30783030 
 242 0183 00       		.align	2
ARM GAS  /tmp/ccC7I5pD.s 			page 10


 243              	.LC11:
 244 0184 3D3D3D3D 		.ascii	"======================\015\012\015\012\000"
 244      3D3D3D3D 
 244      3D3D3D3D 
 244      3D3D3D3D 
 244      3D3D3D3D 
 245 019f 00       		.align	2
 246              	.LC12:
 247 01a0 43414E20 		.ascii	"CAN controller mode ACTIVE\015\012\000"
 247      636F6E74 
 247      726F6C6C 
 247      6572206D 
 247      6F646520 
 248 01bd 000000   		.align	2
 249              	.LC13:
 250 01c0 4E4F5445 		.ascii	"NOTE: All debug messages will now appear automatica"
 250      3A20416C 
 250      6C206465 
 250      62756720 
 250      6D657373 
 251 01f3 6C6C792E 		.ascii	"lly.\015\012\000"
 251      0D0A00
 252 01fa 0000     		.align	2
 253              	.LC14:
 254 01fc 20202020 		.ascii	"      No need to send 'E' or unlock commands.\015\012"
 254      20204E6F 
 254      206E6565 
 254      6420746F 
 254      2073656E 
 255 022b 0D0A00   		.ascii	"\015\012\000"
 256 022e 0000     		.align	2
 257              	.LC15:
 258 0230 4552524F 		.ascii	"ERROR: CAN initialization failed\015\012\000"
 258      523A2043 
 258      414E2069 
 258      6E697469 
 258      616C697A 
 259 0253 00       		.align	2
 260              	.LC16:
 261 0254 4D435032 		.ascii	"MCP2515 NOT DETECTED\015\012\000"
 261      35313520 
 261      4E4F5420 
 261      44455445 
 261      43544544 
 262              		.section	.text.CAN_AutoDetectAndInit,"ax",%progbits
 263              		.align	1
 264              		.global	CAN_AutoDetectAndInit
 265              		.syntax unified
 266              		.thumb
 267              		.thumb_func
 269              	CAN_AutoDetectAndInit:
 270              	.LFB69:
 111:src/can_bus.c **** #ifdef ENABLE_CAN_BUS
 271              		.loc 1 111 34 is_stmt 1 view -0
 272              		.cfi_startproc
 273              		@ args = 0, pretend = 0, frame = 240
 274              		@ frame_needed = 0, uses_anonymous_args = 0
ARM GAS  /tmp/ccC7I5pD.s 			page 11


 275 0000 F0B5     		push	{r4, r5, r6, r7, lr}
 276              	.LCFI3:
 277              		.cfi_def_cfa_offset 20
 278              		.cfi_offset 4, -20
 279              		.cfi_offset 5, -16
 280              		.cfi_offset 6, -12
 281              		.cfi_offset 7, -8
 282              		.cfi_offset 14, -4
 283 0002 BFB0     		sub	sp, sp, #252
 284              	.LCFI4:
 285              		.cfi_def_cfa_offset 272
 113:src/can_bus.c ****     
 286              		.loc 1 113 5 view .LVU47
 115:src/can_bus.c ****     forceLog("Detecting MCP2515 module...\r\n");
 287              		.loc 1 115 5 view .LVU48
 288 0004 5F48     		ldr	r0, .L27
 289 0006 FFF7FEFF 		bl	forceLog
 290              	.LVL8:
 116:src/can_bus.c ****     
 291              		.loc 1 116 5 view .LVU49
 292 000a 5F48     		ldr	r0, .L27+4
 293 000c FFF7FEFF 		bl	forceLog
 294              	.LVL9:
 119:src/can_bus.c ****     
 295              		.loc 1 119 5 view .LVU50
 296 0010 FFF7FEFF 		bl	CAN_Init_IDs
 297              	.LVL10:
 122:src/can_bus.c ****         forceLog("MCP2515 DETECTED!\r\n");
 298              		.loc 1 122 5 view .LVU51
 122:src/can_bus.c ****         forceLog("MCP2515 DETECTED!\r\n");
 299              		.loc 1 122 9 is_stmt 0 view .LVU52
 300 0014 FFF7FEFF 		bl	MCP2515_Detect
 301              	.LVL11:
 122:src/can_bus.c ****         forceLog("MCP2515 DETECTED!\r\n");
 302              		.loc 1 122 8 discriminator 1 view .LVU53
 303 0018 0028     		cmp	r0, #0
 304 001a 00F0A880 		beq	.L14
 123:src/can_bus.c ****         
 305              		.loc 1 123 9 is_stmt 1 view .LVU54
 306 001e 5B48     		ldr	r0, .L27+8
 307 0020 FFF7FEFF 		bl	forceLog
 308              	.LVL12:
 126:src/can_bus.c ****                 CAN_SPEED == MCP2515_SPEED_125KBPS ? 125 :
 309              		.loc 1 126 9 view .LVU55
 310 0024 FA22     		movs	r2, #250
 311 0026 5A49     		ldr	r1, .L27+12
 312 0028 1EA8     		add	r0, sp, #120
 313 002a FFF7FEFF 		bl	sprintf
 314              	.LVL13:
 130:src/can_bus.c ****         
 315              		.loc 1 130 9 view .LVU56
 316 002e 1EA8     		add	r0, sp, #120
 317 0030 FFF7FEFF 		bl	forceLog
 318              	.LVL14:
 132:src/can_bus.c ****             /* SoftSPI_Init disabled TIM1/TIM8 IRQs to prevent motor-control
 319              		.loc 1 132 9 view .LVU57
 132:src/can_bus.c ****             /* SoftSPI_Init disabled TIM1/TIM8 IRQs to prevent motor-control
ARM GAS  /tmp/ccC7I5pD.s 			page 12


 320              		.loc 1 132 13 is_stmt 0 view .LVU58
 321 0034 0120     		movs	r0, #1
 322 0036 FFF7FEFF 		bl	MCP2515_Init
 323              	.LVL15:
 132:src/can_bus.c ****             /* SoftSPI_Init disabled TIM1/TIM8 IRQs to prevent motor-control
 324              		.loc 1 132 12 discriminator 1 view .LVU59
 325 003a 0546     		mov	r5, r0
 326 003c 18B9     		cbnz	r0, .L25
 198:src/can_bus.c ****         }
 327              		.loc 1 198 13 is_stmt 1 view .LVU60
 328 003e 5548     		ldr	r0, .L27+16
 329 0040 FFF7FEFF 		bl	forceLog
 330              	.LVL16:
 331 0044 96E0     		b	.L23
 332              	.L25:
 135:src/can_bus.c ****             can_mode_active = true;
 333              		.loc 1 135 13 view .LVU61
 334 0046 5448     		ldr	r0, .L27+20
 335 0048 FFF7FEFF 		bl	forceLog
 336              	.LVL17:
 136:src/can_bus.c ****             usart_mode_active = false;
 337              		.loc 1 136 13 view .LVU62
 136:src/can_bus.c ****             usart_mode_active = false;
 338              		.loc 1 136 29 is_stmt 0 view .LVU63
 339 004c 0126     		movs	r6, #1
 340 004e 534B     		ldr	r3, .L27+24
 341 0050 1E70     		strb	r6, [r3]
 137:src/can_bus.c ****             
 342              		.loc 1 137 13 is_stmt 1 view .LVU64
 137:src/can_bus.c ****             
 343              		.loc 1 137 31 is_stmt 0 view .LVU65
 344 0052 0024     		movs	r4, #0
 345 0054 524B     		ldr	r3, .L27+28
 346 0056 1C70     		strb	r4, [r3]
 140:src/can_bus.c **** 
 347              		.loc 1 140 13 is_stmt 1 view .LVU66
 348 0058 3022     		movs	r2, #48
 349 005a 2146     		mov	r1, r4
 350 005c 5148     		ldr	r0, .L27+32
 351 005e FFF7FEFF 		bl	memset
 352              	.LVL18:
 145:src/can_bus.c ****             SoftwareSerialInit();
 353              		.loc 1 145 13 view .LVU67
 354 0062 5148     		ldr	r0, .L27+36
 355 0064 FFF7FEFF 		bl	forceLog
 356              	.LVL19:
 146:src/can_bus.c ****             software_serial_ready = true;  // Mark Software Serial as ready
 357              		.loc 1 146 13 view .LVU68
 358 0068 FFF7FEFF 		bl	SoftwareSerialInit
 359              	.LVL20:
 147:src/can_bus.c ****             
 360              		.loc 1 147 13 view .LVU69
 147:src/can_bus.c ****             
 361              		.loc 1 147 35 is_stmt 0 view .LVU70
 362 006c 4F4B     		ldr	r3, .L27+40
 363 006e 1E70     		strb	r6, [r3]
 150:src/can_bus.c ****                 HAL_GPIO_WritePin(SOFTWARE_SERIAL_TX_PORT, SOFTWARE_SERIAL_TX_PIN, 1);
ARM GAS  /tmp/ccC7I5pD.s 			page 13


 364              		.loc 1 150 13 is_stmt 1 view .LVU71
 365              	.LBB2:
 150:src/can_bus.c ****                 HAL_GPIO_WritePin(SOFTWARE_SERIAL_TX_PORT, SOFTWARE_SERIAL_TX_PIN, 1);
 366              		.loc 1 150 17 view .LVU72
 367              	.LVL21:
 150:src/can_bus.c ****                 HAL_GPIO_WritePin(SOFTWARE_SERIAL_TX_PORT, SOFTWARE_SERIAL_TX_PIN, 1);
 368              		.loc 1 150 13 is_stmt 0 view .LVU73
 369 0070 19E0     		b	.L16
 370              	.LVL22:
 371              	.L18:
 372              	.LBB3:
 152:src/can_bus.c ****                 HAL_GPIO_WritePin(SOFTWARE_SERIAL_TX_PORT, SOFTWARE_SERIAL_TX_PIN, 0);
 373              		.loc 1 152 53 is_stmt 1 discriminator 3 view .LVU74
 374 0072 039B     		ldr	r3, [sp, #12]
 375 0074 0133     		adds	r3, r3, #1
 376 0076 0393     		str	r3, [sp, #12]
 377              	.L17:
 152:src/can_bus.c ****                 HAL_GPIO_WritePin(SOFTWARE_SERIAL_TX_PORT, SOFTWARE_SERIAL_TX_PIN, 0);
 378              		.loc 1 152 43 discriminator 1 view .LVU75
 379 0078 039A     		ldr	r2, [sp, #12]
 380 007a 4CF24F33 		movw	r3, #49999
 381 007e 9A42     		cmp	r2, r3
 382 0080 F7DD     		ble	.L18
 383              	.LBE3:
 153:src/can_bus.c ****                 for(volatile int j = 0; j < 50000; j++);  // ~5ms
 384              		.loc 1 153 17 view .LVU76
 385 0082 0022     		movs	r2, #0
 386 0084 4FF40051 		mov	r1, #8192
 387 0088 4948     		ldr	r0, .L27+44
 388 008a FFF7FEFF 		bl	HAL_GPIO_WritePin
 389              	.LVL23:
 154:src/can_bus.c ****             }
 390              		.loc 1 154 17 view .LVU77
 391              	.LBB4:
 154:src/can_bus.c ****             }
 392              		.loc 1 154 21 view .LVU78
 154:src/can_bus.c ****             }
 393              		.loc 1 154 34 is_stmt 0 view .LVU79
 394 008e 0023     		movs	r3, #0
 395 0090 0493     		str	r3, [sp, #16]
 154:src/can_bus.c ****             }
 396              		.loc 1 154 17 view .LVU80
 397 0092 02E0     		b	.L19
 398              	.L20:
 154:src/can_bus.c ****             }
 399              		.loc 1 154 53 is_stmt 1 discriminator 3 view .LVU81
 400 0094 049B     		ldr	r3, [sp, #16]
 401 0096 0133     		adds	r3, r3, #1
 402 0098 0493     		str	r3, [sp, #16]
 403              	.L19:
 154:src/can_bus.c ****             }
 404              		.loc 1 154 43 discriminator 1 view .LVU82
 405 009a 049A     		ldr	r2, [sp, #16]
 406 009c 4CF24F33 		movw	r3, #49999
 407 00a0 9A42     		cmp	r2, r3
 408 00a2 F7DD     		ble	.L20
 409              	.LBE4:
ARM GAS  /tmp/ccC7I5pD.s 			page 14


 150:src/can_bus.c ****                 HAL_GPIO_WritePin(SOFTWARE_SERIAL_TX_PORT, SOFTWARE_SERIAL_TX_PIN, 1);
 410              		.loc 1 150 37 discriminator 2 view .LVU83
 411 00a4 0134     		adds	r4, r4, #1
 412              	.LVL24:
 413              	.L16:
 150:src/can_bus.c ****                 HAL_GPIO_WritePin(SOFTWARE_SERIAL_TX_PORT, SOFTWARE_SERIAL_TX_PIN, 1);
 414              		.loc 1 150 30 discriminator 1 view .LVU84
 415 00a6 092C     		cmp	r4, #9
 416 00a8 08DC     		bgt	.L26
 151:src/can_bus.c ****                 for(volatile int j = 0; j < 50000; j++);  // ~5ms
 417              		.loc 1 151 17 view .LVU85
 418 00aa 0122     		movs	r2, #1
 419 00ac 4FF40051 		mov	r1, #8192
 420 00b0 3F48     		ldr	r0, .L27+44
 421 00b2 FFF7FEFF 		bl	HAL_GPIO_WritePin
 422              	.LVL25:
 152:src/can_bus.c ****                 HAL_GPIO_WritePin(SOFTWARE_SERIAL_TX_PORT, SOFTWARE_SERIAL_TX_PIN, 0);
 423              		.loc 1 152 17 view .LVU86
 424              	.LBB5:
 152:src/can_bus.c ****                 HAL_GPIO_WritePin(SOFTWARE_SERIAL_TX_PORT, SOFTWARE_SERIAL_TX_PIN, 0);
 425              		.loc 1 152 21 view .LVU87
 152:src/can_bus.c ****                 HAL_GPIO_WritePin(SOFTWARE_SERIAL_TX_PORT, SOFTWARE_SERIAL_TX_PIN, 0);
 426              		.loc 1 152 34 is_stmt 0 view .LVU88
 427 00b6 0023     		movs	r3, #0
 428 00b8 0393     		str	r3, [sp, #12]
 152:src/can_bus.c ****                 HAL_GPIO_WritePin(SOFTWARE_SERIAL_TX_PORT, SOFTWARE_SERIAL_TX_PIN, 0);
 429              		.loc 1 152 17 view .LVU89
 430 00ba DDE7     		b	.L17
 431              	.L26:
 432              	.LBE5:
 433              	.LBE2:
 156:src/can_bus.c **** 
 434              		.loc 1 156 13 is_stmt 1 view .LVU90
 435 00bc 3D48     		ldr	r0, .L27+48
 436 00be FFF7FEFF 		bl	forceLog
 437              	.LVL26:
 438              	.LBB6:
 160:src/can_bus.c ****                 forceLog("\r\n=== SPI DIAGNOSTIC ===\r\n");
 439              		.loc 1 160 17 view .LVU91
 161:src/can_bus.c **** 
 440              		.loc 1 161 17 view .LVU92
 441 00c2 3D48     		ldr	r0, .L27+52
 442 00c4 FFF7FEFF 		bl	forceLog
 443              	.LVL27:
 164:src/can_bus.c ****                 uint8_t cnf2 = MCP2515_ReadRegister(MCP2515_CNF2);
 444              		.loc 1 164 17 view .LVU93
 164:src/can_bus.c ****                 uint8_t cnf2 = MCP2515_ReadRegister(MCP2515_CNF2);
 445              		.loc 1 164 32 is_stmt 0 view .LVU94
 446 00c8 2A20     		movs	r0, #42
 447 00ca FFF7FEFF 		bl	MCP2515_ReadRegister
 448              	.LVL28:
 449 00ce 0446     		mov	r4, r0
 450              	.LVL29:
 165:src/can_bus.c ****                 uint8_t cnf3 = MCP2515_ReadRegister(MCP2515_CNF3);
 451              		.loc 1 165 17 is_stmt 1 view .LVU95
 165:src/can_bus.c ****                 uint8_t cnf3 = MCP2515_ReadRegister(MCP2515_CNF3);
 452              		.loc 1 165 32 is_stmt 0 view .LVU96
ARM GAS  /tmp/ccC7I5pD.s 			page 15


 453 00d0 2920     		movs	r0, #41
 454 00d2 FFF7FEFF 		bl	MCP2515_ReadRegister
 455              	.LVL30:
 456 00d6 0646     		mov	r6, r0
 457              	.LVL31:
 166:src/can_bus.c ****                 sprintf(dmsg, "Single: CNF1=0x%02X CNF2=0x%02X CNF3=0x%02X\r\n", cnf1, cnf2, cnf3);
 458              		.loc 1 166 17 is_stmt 1 view .LVU97
 166:src/can_bus.c ****                 sprintf(dmsg, "Single: CNF1=0x%02X CNF2=0x%02X CNF3=0x%02X\r\n", cnf1, cnf2, cnf3);
 459              		.loc 1 166 32 is_stmt 0 view .LVU98
 460 00d8 2820     		movs	r0, #40
 461 00da FFF7FEFF 		bl	MCP2515_ReadRegister
 462              	.LVL32:
 167:src/can_bus.c ****                 forceLog(dmsg);
 463              		.loc 1 167 17 is_stmt 1 view .LVU99
 464 00de 0090     		str	r0, [sp]
 465 00e0 3346     		mov	r3, r6
 466 00e2 2246     		mov	r2, r4
 467 00e4 3549     		ldr	r1, .L27+56
 468 00e6 05A8     		add	r0, sp, #20
 469              	.LVL33:
 167:src/can_bus.c ****                 forceLog(dmsg);
 470              		.loc 1 167 17 is_stmt 0 view .LVU100
 471 00e8 FFF7FEFF 		bl	sprintf
 472              	.LVL34:
 168:src/can_bus.c **** 
 473              		.loc 1 168 17 is_stmt 1 view .LVU101
 474 00ec 05A8     		add	r0, sp, #20
 475 00ee FFF7FEFF 		bl	forceLog
 476              	.LVL35:
 171:src/can_bus.c ****                 extern void SoftSPI_CS_Low(void);
 477              		.loc 1 171 17 view .LVU102
 172:src/can_bus.c ****                 extern void SoftSPI_CS_High(void);
 478              		.loc 1 172 17 view .LVU103
 173:src/can_bus.c ****                 extern uint8_t SoftSPI_Transfer(uint8_t data);
 479              		.loc 1 173 17 view .LVU104
 174:src/can_bus.c ****                 SoftSPI_CS_Low();
 480              		.loc 1 174 17 view .LVU105
 175:src/can_bus.c ****                 SoftSPI_Transfer(0x03);  // READ
 481              		.loc 1 175 17 view .LVU106
 482 00f2 FFF7FEFF 		bl	SoftSPI_CS_Low
 483              	.LVL36:
 176:src/can_bus.c ****                 SoftSPI_Transfer(0x28);  // CNF3 addr
 484              		.loc 1 176 17 view .LVU107
 485 00f6 0320     		movs	r0, #3
 486 00f8 FFF7FEFF 		bl	SoftSPI_Transfer
 487              	.LVL37:
 177:src/can_bus.c ****                 multi[0] = SoftSPI_Transfer(0xFF);
 488              		.loc 1 177 17 view .LVU108
 489 00fc 2820     		movs	r0, #40
 490 00fe FFF7FEFF 		bl	SoftSPI_Transfer
 491              	.LVL38:
 178:src/can_bus.c ****                 multi[1] = SoftSPI_Transfer(0xFF);
 492              		.loc 1 178 17 view .LVU109
 178:src/can_bus.c ****                 multi[1] = SoftSPI_Transfer(0xFF);
 493              		.loc 1 178 28 is_stmt 0 view .LVU110
 494 0102 FF20     		movs	r0, #255
 495 0104 FFF7FEFF 		bl	SoftSPI_Transfer
ARM GAS  /tmp/ccC7I5pD.s 			page 16


 496              	.LVL39:
 497 0108 0446     		mov	r4, r0
 498              	.LVL40:
 178:src/can_bus.c ****                 multi[1] = SoftSPI_Transfer(0xFF);
 499              		.loc 1 178 26 discriminator 1 view .LVU111
 500 010a 8DF80800 		strb	r0, [sp, #8]
 179:src/can_bus.c ****                 multi[2] = SoftSPI_Transfer(0xFF);
 501              		.loc 1 179 17 is_stmt 1 view .LVU112
 179:src/can_bus.c ****                 multi[2] = SoftSPI_Transfer(0xFF);
 502              		.loc 1 179 28 is_stmt 0 view .LVU113
 503 010e FF20     		movs	r0, #255
 504 0110 FFF7FEFF 		bl	SoftSPI_Transfer
 505              	.LVL41:
 506 0114 0646     		mov	r6, r0
 507              	.LVL42:
 179:src/can_bus.c ****                 multi[2] = SoftSPI_Transfer(0xFF);
 508              		.loc 1 179 26 discriminator 1 view .LVU114
 509 0116 8DF80900 		strb	r0, [sp, #9]
 180:src/can_bus.c ****                 SoftSPI_CS_High();
 510              		.loc 1 180 17 is_stmt 1 view .LVU115
 180:src/can_bus.c ****                 SoftSPI_CS_High();
 511              		.loc 1 180 28 is_stmt 0 view .LVU116
 512 011a FF20     		movs	r0, #255
 513 011c FFF7FEFF 		bl	SoftSPI_Transfer
 514              	.LVL43:
 515 0120 0746     		mov	r7, r0
 180:src/can_bus.c ****                 SoftSPI_CS_High();
 516              		.loc 1 180 26 discriminator 1 view .LVU117
 517 0122 8DF80A00 		strb	r0, [sp, #10]
 181:src/can_bus.c ****                 sprintf(dmsg, "Multi:  CNF3=0x%02X CNF2=0x%02X CNF1=0x%02X\r\n", multi[0], multi[1]
 518              		.loc 1 181 17 is_stmt 1 view .LVU118
 519 0126 FFF7FEFF 		bl	SoftSPI_CS_High
 520              	.LVL44:
 182:src/can_bus.c ****                 forceLog(dmsg);
 521              		.loc 1 182 17 view .LVU119
 522 012a 0097     		str	r7, [sp]
 523 012c 3346     		mov	r3, r6
 524 012e 2246     		mov	r2, r4
 525 0130 2349     		ldr	r1, .L27+60
 526 0132 05A8     		add	r0, sp, #20
 527 0134 FFF7FEFF 		bl	sprintf
 528              	.LVL45:
 183:src/can_bus.c **** 
 529              		.loc 1 183 17 view .LVU120
 530 0138 05A8     		add	r0, sp, #20
 531 013a FFF7FEFF 		bl	forceLog
 532              	.LVL46:
 186:src/can_bus.c ****                 sprintf(dmsg, "CANSTAT=0x%02X (0x00=normal)\r\n", canstat);
 533              		.loc 1 186 17 view .LVU121
 186:src/can_bus.c ****                 sprintf(dmsg, "CANSTAT=0x%02X (0x00=normal)\r\n", canstat);
 534              		.loc 1 186 35 is_stmt 0 view .LVU122
 535 013e 0E20     		movs	r0, #14
 536 0140 FFF7FEFF 		bl	MCP2515_ReadRegister
 537              	.LVL47:
 538 0144 0246     		mov	r2, r0
 539              	.LVL48:
 187:src/can_bus.c ****                 forceLog(dmsg);
ARM GAS  /tmp/ccC7I5pD.s 			page 17


 540              		.loc 1 187 17 is_stmt 1 view .LVU123
 541 0146 1F49     		ldr	r1, .L27+64
 542 0148 05A8     		add	r0, sp, #20
 543 014a FFF7FEFF 		bl	sprintf
 544              	.LVL49:
 188:src/can_bus.c ****                 forceLog("======================\r\n\r\n");
 545              		.loc 1 188 17 view .LVU124
 546 014e 05A8     		add	r0, sp, #20
 547 0150 FFF7FEFF 		bl	forceLog
 548              	.LVL50:
 189:src/can_bus.c ****             }
 549              		.loc 1 189 17 view .LVU125
 550 0154 1C48     		ldr	r0, .L27+68
 551 0156 FFF7FEFF 		bl	forceLog
 552              	.LVL51:
 553              	.LBE6:
 193:src/can_bus.c ****             forceLog("NOTE: All debug messages will now appear automatically.\r\n");
 554              		.loc 1 193 13 view .LVU126
 555 015a 1C48     		ldr	r0, .L27+72
 556 015c FFF7FEFF 		bl	forceLog
 557              	.LVL52:
 194:src/can_bus.c ****             forceLog("      No need to send 'E' or unlock commands.\r\n\r\n");
 558              		.loc 1 194 13 view .LVU127
 559 0160 1B48     		ldr	r0, .L27+76
 560 0162 FFF7FEFF 		bl	forceLog
 561              	.LVL53:
 195:src/can_bus.c ****             return true;
 562              		.loc 1 195 13 view .LVU128
 563 0166 1B48     		ldr	r0, .L27+80
 564 0168 FFF7FEFF 		bl	forceLog
 565              	.LVL54:
 196:src/can_bus.c ****         } else {
 566              		.loc 1 196 13 view .LVU129
 196:src/can_bus.c ****         } else {
 567              		.loc 1 196 20 is_stmt 0 view .LVU130
 568 016c 07E0     		b	.L22
 569              	.LVL55:
 570              	.L14:
 201:src/can_bus.c ****     }
 571              		.loc 1 201 9 is_stmt 1 view .LVU131
 572 016e 1A48     		ldr	r0, .L27+84
 573 0170 FFF7FEFF 		bl	forceLog
 574              	.LVL56:
 575              	.L23:
 204:src/can_bus.c **** 
 576              		.loc 1 204 5 view .LVU132
 204:src/can_bus.c **** 
 577              		.loc 1 204 21 is_stmt 0 view .LVU133
 578 0174 0025     		movs	r5, #0
 579 0176 094B     		ldr	r3, .L27+24
 580 0178 1D70     		strb	r5, [r3]
 207:src/can_bus.c ****     return false;
 581              		.loc 1 207 5 is_stmt 1 view .LVU134
 582 017a FFF7FEFF 		bl	CAN_Fallback_To_USART
 583              	.LVL57:
 208:src/can_bus.c **** #else
 584              		.loc 1 208 5 view .LVU135
ARM GAS  /tmp/ccC7I5pD.s 			page 18


 585              	.L22:
 215:src/can_bus.c **** 
 586              		.loc 1 215 1 is_stmt 0 view .LVU136
 587 017e 2846     		mov	r0, r5
 588 0180 3FB0     		add	sp, sp, #252
 589              	.LCFI5:
 590              		.cfi_def_cfa_offset 20
 591              		@ sp needed
 592 0182 F0BD     		pop	{r4, r5, r6, r7, pc}
 593              	.L28:
 594              		.align	2
 595              	.L27:
 596 0184 00000000 		.word	.LC0
 597 0188 24000000 		.word	.LC1
 598 018c 44000000 		.word	.LC2
 599 0190 58000000 		.word	.LC3
 600 0194 30020000 		.word	.LC15
 601 0198 7C000000 		.word	.LC4
 602 019c 00000000 		.word	can_mode_active
 603 01a0 00000000 		.word	usart_mode_active
 604 01a4 00000000 		.word	can_stats
 605 01a8 A0000000 		.word	.LC5
 606 01ac 00000000 		.word	software_serial_ready
 607 01b0 00080140 		.word	1073809408
 608 01b4 CC000000 		.word	.LC6
 609 01b8 E8000000 		.word	.LC7
 610 01bc 04010000 		.word	.LC8
 611 01c0 34010000 		.word	.LC9
 612 01c4 64010000 		.word	.LC10
 613 01c8 84010000 		.word	.LC11
 614 01cc A0010000 		.word	.LC12
 615 01d0 C0010000 		.word	.LC13
 616 01d4 FC010000 		.word	.LC14
 617 01d8 54020000 		.word	.LC16
 618              		.cfi_endproc
 619              	.LFE69:
 621              		.section	.rodata.CAN_ProcessMessages.str1.4,"aMS",%progbits,1
 622              		.align	2
 623              	.LC17:
 624 0000 53544F50 		.ascii	"STOP\000"
 624      00
 625 0005 000000   		.align	2
 626              	.LC18:
 627 0008 46574400 		.ascii	"FWD\000"
 628              		.align	2
 629              	.LC19:
 630 000c 52455600 		.ascii	"REV\000"
 631              		.align	2
 632              	.LC20:
 633 0010 5B43414E 		.ascii	"[CAN CORRUPT] DLC=%d (max 8) ID=0x%08X - IGNORING\015"
 633      20434F52 
 633      52555054 
 633      5D20444C 
 633      433D2564 
 634 0042 0A00     		.ascii	"\012\000"
 635              		.align	2
 636              	.LC21:
ARM GAS  /tmp/ccC7I5pD.s 			page 19


 637 0044 5B43414E 		.ascii	"[CAN CORRUPT] Std ID=0x%08X > 0x7FF - IGNORING\015\012"
 637      20434F52 
 637      52555054 
 637      5D205374 
 637      64204944 
 638 0074 00       		.ascii	"\000"
 639 0075 000000   		.align	2
 640              	.LC22:
 641 0078 5B43414E 		.ascii	"[CAN RX] ID:0x%03X DLC:%d Data:\000"
 641      2052585D 
 641      2049443A 
 641      30782530 
 641      33582044 
 642              		.align	2
 643              	.LC23:
 644 0098 20253032 		.ascii	" %02X\000"
 644      5800
 645 009e 0000     		.align	2
 646              	.LC24:
 647 00a0 205B5057 		.ascii	" [PWM CMD]\000"
 647      4D20434D 
 647      445D00
 648 00ab 00       		.align	2
 649              	.LC25:
 650 00ac 0D0A2020 		.ascii	"\015\012  !!! PWM OUT OF RANGE: %d, %d (expect -100"
 650      21212120 
 650      50574D20 
 650      4F555420 
 650      4F462052 
 651 00d9 3020746F 		.ascii	"0 to 1000) - REJECTED !!!\015\012\000"
 651      20313030 
 651      3029202D 
 651      2052454A 
 651      45435445 
 652 00f5 000000   		.align	2
 653              	.LC26:
 654 00f8 20204368 		.ascii	"  Check CAN bus wiring, termination, and crystal fr"
 654      65636B20 
 654      43414E20 
 654      62757320 
 654      77697269 
 655 012b 65717565 		.ascii	"equency!\015\012\000"
 655      6E637921 
 655      0D0A00
 656 0136 0000     		.align	2
 657              	.LC27:
 658 0138 0D0A2020 		.ascii	"\015\012  >>> MOTOR1: %d%% %s | MOTOR2: %d%% %s <<<"
 658      3E3E3E20 
 658      4D4F544F 
 658      52313A20 
 658      25642525 
 659 0165 0D0A00   		.ascii	"\015\012\000"
 660              		.align	2
 661              	.LC28:
 662 0168 205B5350 		.ascii	" [SPEED CMD]\000"
 662      45454420 
 662      434D445D 
ARM GAS  /tmp/ccC7I5pD.s 			page 20


 662      00
 663 0175 000000   		.align	2
 664              	.LC29:
 665 0178 20535044 		.ascii	" SPD1:%d SPD2:%d mm/s\000"
 665      313A2564 
 665      20535044 
 665      323A2564 
 665      206D6D2F 
 666 018e 0000     		.align	2
 667              	.LC30:
 668 0190 205B504F 		.ascii	" [POS CMD]\000"
 668      5320434D 
 668      445D00
 669 019b 00       		.align	2
 670              	.LC31:
 671 019c 20504F53 		.ascii	" POS1:%d POS2:%d mm\000"
 671      313A2564 
 671      20504F53 
 671      323A2564 
 671      206D6D00 
 672              		.align	2
 673              	.LC32:
 674 01b0 205B454E 		.ascii	" [ENABLE CMD]\000"
 674      41424C45 
 674      20434D44 
 674      5D00
 675 01be 0000     		.align	2
 676              	.LC33:
 677 01c0 20454E3A 		.ascii	" EN:%d\000"
 677      256400
 678 01c7 00       		.align	2
 679              	.LC34:
 680 01c8 202D3E20 		.ascii	" -> Motors ENABLED\015\012\000"
 680      4D6F746F 
 680      72732045 
 680      4E41424C 
 680      45440D0A 
 681 01dd 000000   		.align	2
 682              	.LC35:
 683 01e0 202D3E20 		.ascii	" -> Motors DISABLED\015\012\000"
 683      4D6F746F 
 683      72732044 
 683      49534142 
 683      4C45440D 
 684 01f6 0000     		.align	2
 685              	.LC36:
 686 01f8 205B554E 		.ascii	" [UNKNOWN]\000"
 686      4B4E4F57 
 686      4E5D00
 687 0203 00       		.align	2
 688              	.LC37:
 689 0204 0D0A00   		.ascii	"\015\012\000"
 690              		.section	.text.CAN_ProcessMessages,"ax",%progbits
 691              		.align	1
 692              		.global	CAN_ProcessMessages
 693              		.syntax unified
 694              		.thumb
ARM GAS  /tmp/ccC7I5pD.s 			page 21


 695              		.thumb_func
 697              	CAN_ProcessMessages:
 698              	.LFB71:
 229:src/can_bus.c **** 
 230:src/can_bus.c **** // Process incoming CAN messages
 231:src/can_bus.c **** void CAN_ProcessMessages(void) {
 699              		.loc 1 231 32 is_stmt 1 view -0
 700              		.cfi_startproc
 701              		@ args = 0, pretend = 0, frame = 152
 702              		@ frame_needed = 0, uses_anonymous_args = 0
 232:src/can_bus.c **** #ifdef ENABLE_CAN_BUS
 233:src/can_bus.c ****     if (!can_mode_active) {
 703              		.loc 1 233 5 view .LVU138
 704              		.loc 1 233 9 is_stmt 0 view .LVU139
 705 0000 904B     		ldr	r3, .L77
 706 0002 1B78     		ldrb	r3, [r3]	@ zero_extendqisi2
 707              		.loc 1 233 8 view .LVU140
 708 0004 13B3     		cbz	r3, .L64
 231:src/can_bus.c **** #ifdef ENABLE_CAN_BUS
 709              		.loc 1 231 32 view .LVU141
 710 0006 30B5     		push	{r4, r5, lr}
 711              	.LCFI6:
 712              		.cfi_def_cfa_offset 12
 713              		.cfi_offset 4, -12
 714              		.cfi_offset 5, -8
 715              		.cfi_offset 14, -4
 716 0008 A9B0     		sub	sp, sp, #164
 717              	.LCFI7:
 718              		.cfi_def_cfa_offset 176
 719              	.L32:
 234:src/can_bus.c ****         return;
 235:src/can_bus.c ****     }
 236:src/can_bus.c ****     
 237:src/can_bus.c ****     char msg[150];
 238:src/can_bus.c ****     
 239:src/can_bus.c ****     // Check if CAN message available
 240:src/can_bus.c ****     while (MCP2515_Available()) {
 720              		.loc 1 240 12 is_stmt 1 view .LVU142
 721 000a FFF7FEFF 		bl	MCP2515_Available
 722              	.LVL58:
 723              		.loc 1 240 12 is_stmt 0 discriminator 1 view .LVU143
 724 000e 0028     		cmp	r0, #0
 725 0010 00F0AF81 		beq	.L65
 241:src/can_bus.c ****         if (MCP2515_ReceiveFrame(&rx_frame)) {
 726              		.loc 1 241 9 is_stmt 1 view .LVU144
 727              		.loc 1 241 13 is_stmt 0 view .LVU145
 728 0014 8C48     		ldr	r0, .L77+4
 729 0016 FFF7FEFF 		bl	MCP2515_ReceiveFrame
 730              	.LVL59:
 731              		.loc 1 241 12 discriminator 1 view .LVU146
 732 001a 0028     		cmp	r0, #0
 733 001c F5D0     		beq	.L32
 242:src/can_bus.c ****             // Sanity check: DLC must be 0-8, ID must be valid
 243:src/can_bus.c ****             // Invalid frames indicate CAN bus corruption
 244:src/can_bus.c ****             if (rx_frame.dlc > 8) {
 734              		.loc 1 244 13 is_stmt 1 view .LVU147
 735              		.loc 1 244 25 is_stmt 0 view .LVU148
ARM GAS  /tmp/ccC7I5pD.s 			page 22


 736 001e 8A4B     		ldr	r3, .L77+4
 737 0020 197B     		ldrb	r1, [r3, #12]	@ zero_extendqisi2
 738              		.loc 1 244 16 view .LVU149
 739 0022 0829     		cmp	r1, #8
 740 0024 13D8     		bhi	.L66
 245:src/can_bus.c ****                 can_stats.errors++;
 246:src/can_bus.c ****                 sprintf(msg, "[CAN CORRUPT] DLC=%d (max 8) ID=0x%08X - IGNORING\r\n",
 247:src/can_bus.c ****                         rx_frame.dlc, (unsigned int)rx_frame.id);
 248:src/can_bus.c ****                 forceLog(msg);
 249:src/can_bus.c ****                 continue;  // Skip this corrupt frame
 250:src/can_bus.c ****             }
 251:src/can_bus.c **** 
 252:src/can_bus.c ****             // Also filter obviously corrupt extended IDs
 253:src/can_bus.c ****             if (rx_frame.id > 0x7FF && !rx_frame.extended) {
 741              		.loc 1 253 13 is_stmt 1 view .LVU150
 742              		.loc 1 253 25 is_stmt 0 view .LVU151
 743 0026 884B     		ldr	r3, .L77+4
 744 0028 1A68     		ldr	r2, [r3]
 745              		.loc 1 253 16 view .LVU152
 746 002a B2F5006F 		cmp	r2, #2048
 747 002e 01D3     		bcc	.L35
 748              		.loc 1 253 49 discriminator 1 view .LVU153
 749 0030 5B7B     		ldrb	r3, [r3, #13]	@ zero_extendqisi2
 750              		.loc 1 253 37 discriminator 1 view .LVU154
 751 0032 DBB1     		cbz	r3, .L67
 752              	.L35:
 254:src/can_bus.c ****                 can_stats.errors++;
 255:src/can_bus.c ****                 sprintf(msg, "[CAN CORRUPT] Std ID=0x%08X > 0x7FF - IGNORING\r\n",
 256:src/can_bus.c ****                         (unsigned int)rx_frame.id);
 257:src/can_bus.c ****                 forceLog(msg);
 258:src/can_bus.c ****                 continue;
 259:src/can_bus.c ****             }
 260:src/can_bus.c **** 
 261:src/can_bus.c ****             can_stats.rx_total++;
 753              		.loc 1 261 13 is_stmt 1 view .LVU155
 754              		.loc 1 261 22 is_stmt 0 view .LVU156
 755 0034 8548     		ldr	r0, .L77+8
 756 0036 0368     		ldr	r3, [r0]
 757              		.loc 1 261 31 view .LVU157
 758 0038 0133     		adds	r3, r3, #1
 759 003a 0360     		str	r3, [r0]
 760              	.LBB7:
 262:src/can_bus.c **** 
 263:src/can_bus.c ****             // Log all data in a single call to avoid USART FIFO overflow.
 264:src/can_bus.c ****             // Per-byte forceLog() at 250kbps (frame every ~0.4ms) caused
 265:src/can_bus.c ****             // up to 9 USART transmissions per frame — faster than drain rate.
 266:src/can_bus.c ****             {
 267:src/can_bus.c ****                 uint8_t off = (uint8_t)sprintf(msg, "[CAN RX] ID:0x%03X DLC:%d Data:",
 761              		.loc 1 267 17 is_stmt 1 view .LVU158
 762              		.loc 1 267 40 is_stmt 0 view .LVU159
 763 003c 0B46     		mov	r3, r1
 764 003e 8449     		ldr	r1, .L77+12
 765 0040 02A8     		add	r0, sp, #8
 766 0042 FFF7FEFF 		bl	sprintf
 767              	.LVL60:
 768              		.loc 1 267 25 discriminator 1 view .LVU160
 769 0046 C5B2     		uxtb	r5, r0
ARM GAS  /tmp/ccC7I5pD.s 			page 23


 770              	.LVL61:
 268:src/can_bus.c ****                         (unsigned int)rx_frame.id, rx_frame.dlc);
 269:src/can_bus.c ****                 for (uint8_t i = 0; i < rx_frame.dlc && i < 8; i++) {
 771              		.loc 1 269 17 is_stmt 1 view .LVU161
 772              	.LBB8:
 773              		.loc 1 269 22 view .LVU162
 774              		.loc 1 269 30 is_stmt 0 view .LVU163
 775 0048 0024     		movs	r4, #0
 776              		.loc 1 269 17 view .LVU164
 777 004a 27E0     		b	.L36
 778              	.LVL62:
 779              	.L64:
 780              	.LCFI8:
 781              		.cfi_def_cfa_offset 0
 782              		.cfi_restore 4
 783              		.cfi_restore 5
 784              		.cfi_restore 14
 785              		.loc 1 269 17 view .LVU165
 786              	.LBE8:
 787              	.LBE7:
 788 004c 7047     		bx	lr
 789              	.L66:
 790              	.LCFI9:
 791              		.cfi_def_cfa_offset 176
 792              		.cfi_offset 4, -12
 793              		.cfi_offset 5, -8
 794              		.cfi_offset 14, -4
 245:src/can_bus.c ****                 sprintf(msg, "[CAN CORRUPT] DLC=%d (max 8) ID=0x%08X - IGNORING\r\n",
 795              		.loc 1 245 17 is_stmt 1 view .LVU166
 245:src/can_bus.c ****                 sprintf(msg, "[CAN CORRUPT] DLC=%d (max 8) ID=0x%08X - IGNORING\r\n",
 796              		.loc 1 245 26 is_stmt 0 view .LVU167
 797 004e 7F4A     		ldr	r2, .L77+8
 798 0050 936A     		ldr	r3, [r2, #40]
 245:src/can_bus.c ****                 sprintf(msg, "[CAN CORRUPT] DLC=%d (max 8) ID=0x%08X - IGNORING\r\n",
 799              		.loc 1 245 33 view .LVU168
 800 0052 0133     		adds	r3, r3, #1
 801 0054 9362     		str	r3, [r2, #40]
 246:src/can_bus.c ****                         rx_frame.dlc, (unsigned int)rx_frame.id);
 802              		.loc 1 246 17 is_stmt 1 view .LVU169
 803 0056 7C4B     		ldr	r3, .L77+4
 804 0058 1B68     		ldr	r3, [r3]
 805 005a 0A46     		mov	r2, r1
 806 005c 7D49     		ldr	r1, .L77+16
 807 005e 02A8     		add	r0, sp, #8
 808 0060 FFF7FEFF 		bl	sprintf
 809              	.LVL63:
 248:src/can_bus.c ****                 continue;  // Skip this corrupt frame
 810              		.loc 1 248 17 view .LVU170
 811 0064 02A8     		add	r0, sp, #8
 812 0066 FFF7FEFF 		bl	forceLog
 813              	.LVL64:
 249:src/can_bus.c ****             }
 814              		.loc 1 249 17 view .LVU171
 815 006a CEE7     		b	.L32
 816              	.L67:
 254:src/can_bus.c ****                 sprintf(msg, "[CAN CORRUPT] Std ID=0x%08X > 0x7FF - IGNORING\r\n",
 817              		.loc 1 254 17 view .LVU172
ARM GAS  /tmp/ccC7I5pD.s 			page 24


 254:src/can_bus.c ****                 sprintf(msg, "[CAN CORRUPT] Std ID=0x%08X > 0x7FF - IGNORING\r\n",
 818              		.loc 1 254 26 is_stmt 0 view .LVU173
 819 006c 7749     		ldr	r1, .L77+8
 820 006e 8B6A     		ldr	r3, [r1, #40]
 254:src/can_bus.c ****                 sprintf(msg, "[CAN CORRUPT] Std ID=0x%08X > 0x7FF - IGNORING\r\n",
 821              		.loc 1 254 33 view .LVU174
 822 0070 0133     		adds	r3, r3, #1
 823 0072 8B62     		str	r3, [r1, #40]
 255:src/can_bus.c ****                         (unsigned int)rx_frame.id);
 824              		.loc 1 255 17 is_stmt 1 view .LVU175
 825 0074 7849     		ldr	r1, .L77+20
 826 0076 02A8     		add	r0, sp, #8
 827 0078 FFF7FEFF 		bl	sprintf
 828              	.LVL65:
 257:src/can_bus.c ****                 continue;
 829              		.loc 1 257 17 view .LVU176
 830 007c 02A8     		add	r0, sp, #8
 831 007e FFF7FEFF 		bl	forceLog
 832              	.LVL66:
 258:src/can_bus.c ****             }
 833              		.loc 1 258 17 view .LVU177
 834 0082 C2E7     		b	.L32
 835              	.LVL67:
 836              	.L38:
 837              	.LBB10:
 838              	.LBB9:
 270:src/can_bus.c ****                     off += (uint8_t)sprintf(msg + off, " %02X", rx_frame.data[i]);
 839              		.loc 1 270 21 view .LVU178
 840              		.loc 1 270 78 is_stmt 0 view .LVU179
 841 0084 704B     		ldr	r3, .L77+4
 842 0086 2344     		add	r3, r3, r4
 843              		.loc 1 270 37 view .LVU180
 844 0088 1A79     		ldrb	r2, [r3, #4]	@ zero_extendqisi2
 845 008a 7449     		ldr	r1, .L77+24
 846 008c 02AB     		add	r3, sp, #8
 847 008e 5819     		adds	r0, r3, r5
 848 0090 FFF7FEFF 		bl	sprintf
 849              	.LVL68:
 850              		.loc 1 270 25 discriminator 1 view .LVU181
 851 0094 0335     		adds	r5, r5, #3
 852              	.LVL69:
 853              		.loc 1 270 25 discriminator 1 view .LVU182
 854 0096 EDB2     		uxtb	r5, r5
 855              	.LVL70:
 269:src/can_bus.c ****                     off += (uint8_t)sprintf(msg + off, " %02X", rx_frame.data[i]);
 856              		.loc 1 269 65 is_stmt 1 discriminator 4 view .LVU183
 857 0098 0134     		adds	r4, r4, #1
 858              	.LVL71:
 269:src/can_bus.c ****                     off += (uint8_t)sprintf(msg + off, " %02X", rx_frame.data[i]);
 859              		.loc 1 269 65 is_stmt 0 discriminator 4 view .LVU184
 860 009a E4B2     		uxtb	r4, r4
 861              	.LVL72:
 862              	.L36:
 269:src/can_bus.c ****                     off += (uint8_t)sprintf(msg + off, " %02X", rx_frame.data[i]);
 863              		.loc 1 269 54 is_stmt 1 discriminator 1 view .LVU185
 269:src/can_bus.c ****                     off += (uint8_t)sprintf(msg + off, " %02X", rx_frame.data[i]);
 864              		.loc 1 269 49 is_stmt 0 discriminator 1 view .LVU186
ARM GAS  /tmp/ccC7I5pD.s 			page 25


 865 009c 6A4B     		ldr	r3, .L77+4
 866 009e 1B7B     		ldrb	r3, [r3, #12]	@ zero_extendqisi2
 269:src/can_bus.c ****                     off += (uint8_t)sprintf(msg + off, " %02X", rx_frame.data[i]);
 867              		.loc 1 269 54 discriminator 1 view .LVU187
 868 00a0 A342     		cmp	r3, r4
 869 00a2 01D9     		bls	.L37
 269:src/can_bus.c ****                     off += (uint8_t)sprintf(msg + off, " %02X", rx_frame.data[i]);
 870              		.loc 1 269 54 discriminator 3 view .LVU188
 871 00a4 072C     		cmp	r4, #7
 872 00a6 EDD9     		bls	.L38
 873              	.L37:
 874              	.LBE9:
 271:src/can_bus.c ****                 }
 272:src/can_bus.c ****                 forceLog(msg);
 875              		.loc 1 272 17 is_stmt 1 view .LVU189
 876 00a8 02A8     		add	r0, sp, #8
 877 00aa FFF7FEFF 		bl	forceLog
 878              	.LVL73:
 879              	.LBE10:
 273:src/can_bus.c ****             }
 274:src/can_bus.c ****             
 275:src/can_bus.c ****             // Process CAN message based on ID (with board offset)
 276:src/can_bus.c ****             if (rx_frame.id == can_cmd_pwm) {
 880              		.loc 1 276 13 view .LVU190
 881              		.loc 1 276 25 is_stmt 0 view .LVU191
 882 00ae 664B     		ldr	r3, .L77+4
 883 00b0 1B68     		ldr	r3, [r3]
 884              		.loc 1 276 29 view .LVU192
 885 00b2 6B4A     		ldr	r2, .L77+28
 886 00b4 1268     		ldr	r2, [r2]
 887              		.loc 1 276 16 view .LVU193
 888 00b6 9342     		cmp	r3, r2
 889 00b8 29D0     		beq	.L68
 277:src/can_bus.c ****                 can_stats.rx_pwm++;
 278:src/can_bus.c ****                 forceLog(" [PWM CMD]");
 279:src/can_bus.c **** 
 280:src/can_bus.c ****                 // PWM Command Frame
 281:src/can_bus.c ****                 if (rx_frame.dlc >= 8) {
 282:src/can_bus.c ****                     // Parse PWM values using memcpy (little-endian, same as ESP32)
 283:src/can_bus.c ****                     int32_t pwm1, pwm2;
 284:src/can_bus.c ****                     memcpy(&pwm1, &rx_frame.data[0], 4);
 285:src/can_bus.c ****                     memcpy(&pwm2, &rx_frame.data[4], 4);
 286:src/can_bus.c **** 
 287:src/can_bus.c ****                     // Sanity check: PWM should be -1000 to 1000
 288:src/can_bus.c ****                     if (pwm1 < -1000 || pwm1 > 1000 || pwm2 < -1000 || pwm2 > 1000) {
 289:src/can_bus.c ****                         sprintf(msg, "\r\n  !!! PWM OUT OF RANGE: %d, %d (expect -1000 to 1000) - R
 290:src/can_bus.c ****                                 (int)pwm1, (int)pwm2);
 291:src/can_bus.c ****                         forceLog(msg);
 292:src/can_bus.c ****                         forceLog("  Check CAN bus wiring, termination, and crystal frequency!\r\n")
 293:src/can_bus.c ****                     } else {
 294:src/can_bus.c ****                         // Calculate percentage and direction
 295:src/can_bus.c ****                         int pct1 = (pwm1 * 100) / 1000;  // -100% to +100%
 296:src/can_bus.c ****                         int pct2 = (pwm2 * 100) / 1000;
 297:src/can_bus.c ****                         const char* dir1 = (pwm1 > 0) ? "FWD" : (pwm1 < 0) ? "REV" : "STOP";
 298:src/can_bus.c ****                         const char* dir2 = (pwm2 > 0) ? "FWD" : (pwm2 < 0) ? "REV" : "STOP";
 299:src/can_bus.c **** 
 300:src/can_bus.c ****                         sprintf(msg, "\r\n  >>> MOTOR1: %d%% %s | MOTOR2: %d%% %s <<<\r\n",
ARM GAS  /tmp/ccC7I5pD.s 			page 26


 301:src/can_bus.c ****                                 pct1 < 0 ? -pct1 : pct1, dir1,
 302:src/can_bus.c ****                                 pct2 < 0 ? -pct2 : pct2, dir2);
 303:src/can_bus.c ****                         forceLog(msg);
 304:src/can_bus.c **** 
 305:src/can_bus.c ****                         // Set motor PWM values and switch to PWM control mode
 306:src/can_bus.c ****                         extern int control_type;
 307:src/can_bus.c ****                         extern uint8_t enable;
 308:src/can_bus.c ****                         extern volatile uint32_t input_timeout_counter;
 309:src/can_bus.c ****                         extern uint32_t inactivity_timeout_counter;
 310:src/can_bus.c **** 
 311:src/can_bus.c ****                         PWMData.pwm[0] = pwm1;
 312:src/can_bus.c ****                         PWMData.pwm[1] = pwm2;
 313:src/can_bus.c ****                         control_type = CONTROL_TYPE_PWM;  // CRITICAL: Enable PWM mode
 314:src/can_bus.c ****                         enable = 1;                        // Ensure motors are enabled
 315:src/can_bus.c ****                         input_timeout_counter = 0;         // Reset input timeout
 316:src/can_bus.c ****                         inactivity_timeout_counter = 0;    // Reset inactivity timeout (prevents be
 317:src/can_bus.c ****                     }
 318:src/can_bus.c ****                 }
 319:src/can_bus.c ****             }
 320:src/can_bus.c ****             else if (rx_frame.id == can_cmd_speed) {
 890              		.loc 1 320 18 is_stmt 1 view .LVU194
 891              		.loc 1 320 34 is_stmt 0 view .LVU195
 892 00ba 6A4A     		ldr	r2, .L77+32
 893 00bc 1268     		ldr	r2, [r2]
 894              		.loc 1 320 21 view .LVU196
 895 00be 9342     		cmp	r3, r2
 896 00c0 00F08480 		beq	.L69
 321:src/can_bus.c ****                 can_stats.rx_speed++;
 322:src/can_bus.c ****                 forceLog(" [SPEED CMD]");
 323:src/can_bus.c ****                 
 324:src/can_bus.c ****                 // Speed Command Frame
 325:src/can_bus.c ****                 if (rx_frame.dlc >= 8) {
 326:src/can_bus.c ****                     // Parse speed values using memcpy (little-endian, same as ESP32)
 327:src/can_bus.c ****                     int32_t speed1, speed2;
 328:src/can_bus.c ****                     memcpy(&speed1, &rx_frame.data[0], 4);
 329:src/can_bus.c ****                     memcpy(&speed2, &rx_frame.data[4], 4);
 330:src/can_bus.c **** 
 331:src/can_bus.c ****                     // Bounds check: limit to reasonable speed range (-5000 to 5000 mm/s = 18 km/h)
 332:src/can_bus.c ****                     #define MAX_SPEED_MM_S 5000
 333:src/can_bus.c ****                     if (speed1 < -MAX_SPEED_MM_S) speed1 = -MAX_SPEED_MM_S;
 334:src/can_bus.c ****                     if (speed1 > MAX_SPEED_MM_S) speed1 = MAX_SPEED_MM_S;
 335:src/can_bus.c ****                     if (speed2 < -MAX_SPEED_MM_S) speed2 = -MAX_SPEED_MM_S;
 336:src/can_bus.c ****                     if (speed2 > MAX_SPEED_MM_S) speed2 = MAX_SPEED_MM_S;
 337:src/can_bus.c **** 
 338:src/can_bus.c ****                     sprintf(msg, " SPD1:%d SPD2:%d mm/s", (int)speed1, (int)speed2);
 339:src/can_bus.c ****                     forceLog(msg);
 340:src/can_bus.c **** 
 341:src/can_bus.c ****                     // Set motor speed values and switch to Speed control mode
 342:src/can_bus.c ****                     extern int control_type;
 343:src/can_bus.c ****                     extern uint8_t enable;
 344:src/can_bus.c ****                     extern volatile uint32_t input_timeout_counter;
 345:src/can_bus.c ****                     extern uint32_t inactivity_timeout_counter;
 346:src/can_bus.c **** 
 347:src/can_bus.c ****                     SpeedData.wanted_speed_mm_per_sec[0] = speed1;
 348:src/can_bus.c ****                     SpeedData.wanted_speed_mm_per_sec[1] = speed2;
 349:src/can_bus.c ****                     control_type = CONTROL_TYPE_SPEED;  // Enable Speed mode
 350:src/can_bus.c ****                     enable = 1;
ARM GAS  /tmp/ccC7I5pD.s 			page 27


 351:src/can_bus.c ****                     input_timeout_counter = 0;
 352:src/can_bus.c ****                     inactivity_timeout_counter = 0;    // Reset inactivity timeout
 353:src/can_bus.c ****                 }
 354:src/can_bus.c ****             }
 355:src/can_bus.c ****             else if (rx_frame.id == can_cmd_position) {
 897              		.loc 1 355 18 is_stmt 1 view .LVU197
 898              		.loc 1 355 34 is_stmt 0 view .LVU198
 899 00c4 684A     		ldr	r2, .L77+36
 900 00c6 1268     		ldr	r2, [r2]
 901              		.loc 1 355 21 view .LVU199
 902 00c8 9342     		cmp	r3, r2
 903 00ca 00F0F980 		beq	.L70
 356:src/can_bus.c ****                 can_stats.rx_position++;
 357:src/can_bus.c ****                 forceLog(" [POS CMD]");
 358:src/can_bus.c ****                 
 359:src/can_bus.c ****                 // Position Command Frame
 360:src/can_bus.c ****                 if (rx_frame.dlc >= 8) {
 361:src/can_bus.c ****                     // Parse position values using memcpy (little-endian, same as ESP32)
 362:src/can_bus.c ****                     int32_t pos1, pos2;
 363:src/can_bus.c ****                     memcpy(&pos1, &rx_frame.data[0], 4);
 364:src/can_bus.c ****                     memcpy(&pos2, &rx_frame.data[4], 4);
 365:src/can_bus.c **** 
 366:src/can_bus.c ****                     sprintf(msg, " POS1:%d POS2:%d mm", (int)pos1, (int)pos2);
 367:src/can_bus.c ****                     forceLog(msg);
 368:src/can_bus.c **** 
 369:src/can_bus.c ****                     // Set motor position values and switch to Position control mode
 370:src/can_bus.c ****                     extern int control_type;
 371:src/can_bus.c ****                     extern uint8_t enable;
 372:src/can_bus.c ****                     extern volatile uint32_t input_timeout_counter;
 373:src/can_bus.c ****                     extern uint32_t inactivity_timeout_counter;
 374:src/can_bus.c **** 
 375:src/can_bus.c ****                     PosnData.wanted_posn_mm[0] = pos1;
 376:src/can_bus.c ****                     PosnData.wanted_posn_mm[1] = pos2;
 377:src/can_bus.c ****                     control_type = CONTROL_TYPE_POSITION;  // Enable Position mode
 378:src/can_bus.c ****                     enable = 1;
 379:src/can_bus.c ****                     input_timeout_counter = 0;
 380:src/can_bus.c ****                     inactivity_timeout_counter = 0;    // Reset inactivity timeout
 381:src/can_bus.c ****                 }
 382:src/can_bus.c ****             }
 383:src/can_bus.c ****             else if (rx_frame.id == can_cmd_enable) {
 904              		.loc 1 383 18 is_stmt 1 view .LVU200
 905              		.loc 1 383 34 is_stmt 0 view .LVU201
 906 00ce 674A     		ldr	r2, .L77+40
 907 00d0 1268     		ldr	r2, [r2]
 908              		.loc 1 383 21 view .LVU202
 909 00d2 9342     		cmp	r3, r2
 910 00d4 00F01A81 		beq	.L71
 384:src/can_bus.c ****                 can_stats.rx_enable++;
 385:src/can_bus.c ****                 forceLog(" [ENABLE CMD]");
 386:src/can_bus.c **** 
 387:src/can_bus.c ****                 // Enable/Disable Command
 388:src/can_bus.c ****                 if (rx_frame.dlc >= 1) {
 389:src/can_bus.c ****                     uint8_t en_val = rx_frame.data[0];
 390:src/can_bus.c ****                     sprintf(msg, " EN:%d", en_val);
 391:src/can_bus.c ****                     forceLog(msg);
 392:src/can_bus.c **** 
 393:src/can_bus.c ****                     extern uint8_t enable;
ARM GAS  /tmp/ccC7I5pD.s 			page 28


 394:src/can_bus.c ****                     extern volatile uint32_t input_timeout_counter;
 395:src/can_bus.c ****                     extern uint32_t inactivity_timeout_counter;
 396:src/can_bus.c **** 
 397:src/can_bus.c ****                     if (en_val) {
 398:src/can_bus.c ****                         enable = 1;
 399:src/can_bus.c ****                         input_timeout_counter = 0;
 400:src/can_bus.c ****                         inactivity_timeout_counter = 0;    // Reset inactivity timeout
 401:src/can_bus.c ****                         forceLog(" -> Motors ENABLED\r\n");
 402:src/can_bus.c ****                     } else {
 403:src/can_bus.c ****                         enable = 0;
 404:src/can_bus.c ****                         PWMData.pwm[0] = 0;
 405:src/can_bus.c ****                         PWMData.pwm[1] = 0;
 406:src/can_bus.c ****                         SpeedData.wanted_speed_mm_per_sec[0] = 0;
 407:src/can_bus.c ****                         SpeedData.wanted_speed_mm_per_sec[1] = 0;
 408:src/can_bus.c ****                         forceLog(" -> Motors DISABLED\r\n");
 409:src/can_bus.c ****                     }
 410:src/can_bus.c ****                 }
 411:src/can_bus.c ****             } else if (rx_frame.id == 0x7FFU && rx_frame.dlc >= 3 &&
 911              		.loc 1 411 20 is_stmt 1 view .LVU203
 912              		.loc 1 411 23 is_stmt 0 view .LVU204
 913 00d8 40F2FF72 		movw	r2, #2047
 914 00dc 9342     		cmp	r3, r2
 915 00de 0BD1     		bne	.L51
 916              		.loc 1 411 57 discriminator 1 view .LVU205
 917 00e0 594B     		ldr	r3, .L77+4
 918 00e2 1B7B     		ldrb	r3, [r3, #12]	@ zero_extendqisi2
 919              		.loc 1 411 46 discriminator 1 view .LVU206
 920 00e4 022B     		cmp	r3, #2
 921 00e6 07D9     		bls	.L51
 412:src/can_bus.c ****                        rx_frame.data[0] == 0xB0U && rx_frame.data[1] == 0x01U &&
 922              		.loc 1 412 79 view .LVU207
 923 00e8 574B     		ldr	r3, .L77+4
 924 00ea 5B68     		ldr	r3, [r3, #4]
 925 00ec 23F07F43 		bic	r3, r3, #-16777216
 926 00f0 5F4A     		ldr	r2, .L77+44
 927 00f2 9342     		cmp	r3, r2
 928 00f4 00F03A81 		beq	.L72
 929              	.L51:
 413:src/can_bus.c ****                        rx_frame.data[2] == 0xB2U) {
 414:src/can_bus.c ****                 // OTA reboot trigger — host sends magic frame to enter bootloader
 415:src/can_bus.c ****                 extern void ota_reboot_to_bootloader_export(void);
 416:src/can_bus.c ****                 ota_reboot_to_bootloader_export();
 417:src/can_bus.c ****             } else {
 418:src/can_bus.c ****                 can_stats.rx_unknown++;
 930              		.loc 1 418 17 is_stmt 1 view .LVU208
 931              		.loc 1 418 26 is_stmt 0 view .LVU209
 932 00f8 544A     		ldr	r2, .L77+8
 933 00fa 5369     		ldr	r3, [r2, #20]
 934              		.loc 1 418 37 view .LVU210
 935 00fc 0133     		adds	r3, r3, #1
 936 00fe 5361     		str	r3, [r2, #20]
 419:src/can_bus.c ****                 forceLog(" [UNKNOWN]");
 937              		.loc 1 419 17 is_stmt 1 view .LVU211
 938 0100 5C48     		ldr	r0, .L77+48
 939 0102 FFF7FEFF 		bl	forceLog
 940              	.LVL74:
 941              	.L40:
ARM GAS  /tmp/ccC7I5pD.s 			page 29


 420:src/can_bus.c ****             }
 421:src/can_bus.c ****             
 422:src/can_bus.c ****             forceLog("\r\n");
 942              		.loc 1 422 13 view .LVU212
 943 0106 5C48     		ldr	r0, .L77+52
 944 0108 FFF7FEFF 		bl	forceLog
 945              	.LVL75:
 946 010c 7DE7     		b	.L32
 947              	.LVL76:
 948              	.L68:
 277:src/can_bus.c ****                 forceLog(" [PWM CMD]");
 949              		.loc 1 277 17 view .LVU213
 277:src/can_bus.c ****                 forceLog(" [PWM CMD]");
 950              		.loc 1 277 26 is_stmt 0 view .LVU214
 951 010e 4F4A     		ldr	r2, .L77+8
 952 0110 5368     		ldr	r3, [r2, #4]
 277:src/can_bus.c ****                 forceLog(" [PWM CMD]");
 953              		.loc 1 277 33 view .LVU215
 954 0112 0133     		adds	r3, r3, #1
 955 0114 5360     		str	r3, [r2, #4]
 278:src/can_bus.c **** 
 956              		.loc 1 278 17 is_stmt 1 view .LVU216
 957 0116 5948     		ldr	r0, .L77+56
 958 0118 FFF7FEFF 		bl	forceLog
 959              	.LVL77:
 281:src/can_bus.c ****                     // Parse PWM values using memcpy (little-endian, same as ESP32)
 960              		.loc 1 281 17 view .LVU217
 281:src/can_bus.c ****                     // Parse PWM values using memcpy (little-endian, same as ESP32)
 961              		.loc 1 281 29 is_stmt 0 view .LVU218
 962 011c 4A4B     		ldr	r3, .L77+4
 963 011e 1B7B     		ldrb	r3, [r3, #12]	@ zero_extendqisi2
 281:src/can_bus.c ****                     // Parse PWM values using memcpy (little-endian, same as ESP32)
 964              		.loc 1 281 20 view .LVU219
 965 0120 072B     		cmp	r3, #7
 966 0122 F0D9     		bls	.L40
 967              	.LBB11:
 283:src/can_bus.c ****                     memcpy(&pwm1, &rx_frame.data[0], 4);
 968              		.loc 1 283 21 is_stmt 1 view .LVU220
 284:src/can_bus.c ****                     memcpy(&pwm2, &rx_frame.data[4], 4);
 969              		.loc 1 284 21 view .LVU221
 970 0124 484B     		ldr	r3, .L77+4
 971 0126 5D68     		ldr	r5, [r3, #4]
 972              	.LVL78:
 285:src/can_bus.c **** 
 973              		.loc 1 285 21 view .LVU222
 974 0128 9C68     		ldr	r4, [r3, #8]
 975              	.LVL79:
 288:src/can_bus.c ****                         sprintf(msg, "\r\n  !!! PWM OUT OF RANGE: %d, %d (expect -1000 to 1000) - R
 976              		.loc 1 288 21 view .LVU223
 288:src/can_bus.c ****                         sprintf(msg, "\r\n  !!! PWM OUT OF RANGE: %d, %d (expect -1000 to 1000) - R
 977              		.loc 1 288 38 is_stmt 0 view .LVU224
 978 012a 05F57A73 		add	r3, r5, #1000
 288:src/can_bus.c ****                         sprintf(msg, "\r\n  !!! PWM OUT OF RANGE: %d, %d (expect -1000 to 1000) - R
 979              		.loc 1 288 24 view .LVU225
 980 012e B3F5FA6F 		cmp	r3, #2000
 981 0132 05D8     		bhi	.L41
 288:src/can_bus.c ****                         sprintf(msg, "\r\n  !!! PWM OUT OF RANGE: %d, %d (expect -1000 to 1000) - R
ARM GAS  /tmp/ccC7I5pD.s 			page 30


 982              		.loc 1 288 53 discriminator 1 view .LVU226
 983 0134 14F57A7F 		cmn	r4, #1000
 984 0138 02DB     		blt	.L41
 288:src/can_bus.c ****                         sprintf(msg, "\r\n  !!! PWM OUT OF RANGE: %d, %d (expect -1000 to 1000) - R
 985              		.loc 1 288 69 discriminator 2 view .LVU227
 986 013a B4F57A7F 		cmp	r4, #1000
 987 013e 0CDD     		ble	.L42
 988              	.L41:
 289:src/can_bus.c ****                                 (int)pwm1, (int)pwm2);
 989              		.loc 1 289 25 is_stmt 1 view .LVU228
 990 0140 2346     		mov	r3, r4
 991 0142 2A46     		mov	r2, r5
 992 0144 4E49     		ldr	r1, .L77+60
 993 0146 02A8     		add	r0, sp, #8
 994 0148 FFF7FEFF 		bl	sprintf
 995              	.LVL80:
 291:src/can_bus.c ****                         forceLog("  Check CAN bus wiring, termination, and crystal frequency!\r\n")
 996              		.loc 1 291 25 view .LVU229
 997 014c 02A8     		add	r0, sp, #8
 998 014e FFF7FEFF 		bl	forceLog
 999              	.LVL81:
 292:src/can_bus.c ****                     } else {
 1000              		.loc 1 292 25 view .LVU230
 1001 0152 4C48     		ldr	r0, .L77+64
 1002 0154 FFF7FEFF 		bl	forceLog
 1003              	.LVL82:
 1004 0158 D5E7     		b	.L40
 1005              	.L42:
 1006              	.LBB12:
 295:src/can_bus.c ****                         int pct2 = (pwm2 * 100) / 1000;
 1007              		.loc 1 295 25 view .LVU231
 295:src/can_bus.c ****                         int pct2 = (pwm2 * 100) / 1000;
 1008              		.loc 1 295 29 is_stmt 0 view .LVU232
 1009 015a 4B4B     		ldr	r3, .L77+68
 1010 015c 83FB0521 		smull	r2, r1, r3, r5
 1011 0160 EA17     		asrs	r2, r5, #31
 1012 0162 C2EBA102 		rsb	r2, r2, r1, asr #2
 1013              	.LVL83:
 296:src/can_bus.c ****                         const char* dir1 = (pwm1 > 0) ? "FWD" : (pwm1 < 0) ? "REV" : "STOP";
 1014              		.loc 1 296 25 is_stmt 1 view .LVU233
 296:src/can_bus.c ****                         const char* dir1 = (pwm1 > 0) ? "FWD" : (pwm1 < 0) ? "REV" : "STOP";
 1015              		.loc 1 296 29 is_stmt 0 view .LVU234
 1016 0166 83FB0413 		smull	r1, r3, r3, r4
 1017 016a E117     		asrs	r1, r4, #31
 1018 016c C1EBA301 		rsb	r1, r1, r3, asr #2
 1019              	.LVL84:
 297:src/can_bus.c ****                         const char* dir2 = (pwm2 > 0) ? "FWD" : (pwm2 < 0) ? "REV" : "STOP";
 1020              		.loc 1 297 25 is_stmt 1 view .LVU235
 297:src/can_bus.c ****                         const char* dir2 = (pwm2 > 0) ? "FWD" : (pwm2 < 0) ? "REV" : "STOP";
 1021              		.loc 1 297 63 is_stmt 0 view .LVU236
 1022 0170 002D     		cmp	r5, #0
 1023 0172 21DD     		ble	.L73
 297:src/can_bus.c ****                         const char* dir2 = (pwm2 > 0) ? "FWD" : (pwm2 < 0) ? "REV" : "STOP";
 1024              		.loc 1 297 63 discriminator 2 view .LVU237
 1025 0174 454B     		ldr	r3, .L77+72
 1026              	.L43:
 1027              	.LVL85:
ARM GAS  /tmp/ccC7I5pD.s 			page 31


 298:src/can_bus.c **** 
 1028              		.loc 1 298 25 is_stmt 1 view .LVU238
 298:src/can_bus.c **** 
 1029              		.loc 1 298 63 is_stmt 0 view .LVU239
 1030 0176 002C     		cmp	r4, #0
 1031 0178 23DD     		ble	.L74
 298:src/can_bus.c **** 
 1032              		.loc 1 298 63 discriminator 2 view .LVU240
 1033 017a 4448     		ldr	r0, .L77+72
 1034              	.L44:
 1035              	.LVL86:
 300:src/can_bus.c ****                                 pct1 < 0 ? -pct1 : pct1, dir1,
 1036              		.loc 1 300 25 is_stmt 1 view .LVU241
 1037 017c 0190     		str	r0, [sp, #4]
 1038 017e 0029     		cmp	r1, #0
 1039 0180 B8BF     		it	lt
 1040 0182 4942     		rsblt	r1, r1, #0
 1041              	.LVL87:
 300:src/can_bus.c ****                                 pct1 < 0 ? -pct1 : pct1, dir1,
 1042              		.loc 1 300 25 is_stmt 0 view .LVU242
 1043 0184 0091     		str	r1, [sp]
 1044 0186 002A     		cmp	r2, #0
 1045 0188 B8BF     		it	lt
 1046 018a 5242     		rsblt	r2, r2, #0
 1047              	.LVL88:
 300:src/can_bus.c ****                                 pct1 < 0 ? -pct1 : pct1, dir1,
 1048              		.loc 1 300 25 view .LVU243
 1049 018c 4049     		ldr	r1, .L77+76
 1050 018e 02A8     		add	r0, sp, #8
 1051              	.LVL89:
 300:src/can_bus.c ****                                 pct1 < 0 ? -pct1 : pct1, dir1,
 1052              		.loc 1 300 25 view .LVU244
 1053 0190 FFF7FEFF 		bl	sprintf
 1054              	.LVL90:
 303:src/can_bus.c **** 
 1055              		.loc 1 303 25 is_stmt 1 view .LVU245
 1056 0194 02A8     		add	r0, sp, #8
 1057 0196 FFF7FEFF 		bl	forceLog
 1058              	.LVL91:
 306:src/can_bus.c ****                         extern uint8_t enable;
 1059              		.loc 1 306 25 view .LVU246
 307:src/can_bus.c ****                         extern volatile uint32_t input_timeout_counter;
 1060              		.loc 1 307 25 view .LVU247
 308:src/can_bus.c ****                         extern uint32_t inactivity_timeout_counter;
 1061              		.loc 1 308 25 view .LVU248
 309:src/can_bus.c **** 
 1062              		.loc 1 309 25 view .LVU249
 311:src/can_bus.c ****                         PWMData.pwm[1] = pwm2;
 1063              		.loc 1 311 25 view .LVU250
 311:src/can_bus.c ****                         PWMData.pwm[1] = pwm2;
 1064              		.loc 1 311 40 is_stmt 0 view .LVU251
 1065 019a 3E4B     		ldr	r3, .L77+80
 1066 019c 1D60     		str	r5, [r3]
 312:src/can_bus.c ****                         control_type = CONTROL_TYPE_PWM;  // CRITICAL: Enable PWM mode
 1067              		.loc 1 312 25 is_stmt 1 view .LVU252
 312:src/can_bus.c ****                         control_type = CONTROL_TYPE_PWM;  // CRITICAL: Enable PWM mode
 1068              		.loc 1 312 40 is_stmt 0 view .LVU253
ARM GAS  /tmp/ccC7I5pD.s 			page 32


 1069 019e 5C60     		str	r4, [r3, #4]
 313:src/can_bus.c ****                         enable = 1;                        // Ensure motors are enabled
 1070              		.loc 1 313 25 is_stmt 1 view .LVU254
 313:src/can_bus.c ****                         enable = 1;                        // Ensure motors are enabled
 1071              		.loc 1 313 38 is_stmt 0 view .LVU255
 1072 01a0 3D4B     		ldr	r3, .L77+84
 1073 01a2 0322     		movs	r2, #3
 1074 01a4 1A60     		str	r2, [r3]
 314:src/can_bus.c ****                         input_timeout_counter = 0;         // Reset input timeout
 1075              		.loc 1 314 25 is_stmt 1 view .LVU256
 314:src/can_bus.c ****                         input_timeout_counter = 0;         // Reset input timeout
 1076              		.loc 1 314 32 is_stmt 0 view .LVU257
 1077 01a6 3D4B     		ldr	r3, .L77+88
 1078 01a8 0122     		movs	r2, #1
 1079 01aa 1A70     		strb	r2, [r3]
 315:src/can_bus.c ****                         inactivity_timeout_counter = 0;    // Reset inactivity timeout (prevents be
 1080              		.loc 1 315 25 is_stmt 1 view .LVU258
 315:src/can_bus.c ****                         inactivity_timeout_counter = 0;    // Reset inactivity timeout (prevents be
 1081              		.loc 1 315 47 is_stmt 0 view .LVU259
 1082 01ac 0023     		movs	r3, #0
 1083 01ae 3C4A     		ldr	r2, .L77+92
 1084 01b0 1360     		str	r3, [r2]
 316:src/can_bus.c ****                     }
 1085              		.loc 1 316 25 is_stmt 1 view .LVU260
 316:src/can_bus.c ****                     }
 1086              		.loc 1 316 52 is_stmt 0 view .LVU261
 1087 01b2 3C4A     		ldr	r2, .L77+96
 1088 01b4 1360     		str	r3, [r2]
 1089 01b6 A6E7     		b	.L40
 1090              	.LVL92:
 1091              	.L73:
 297:src/can_bus.c ****                         const char* dir2 = (pwm2 > 0) ? "FWD" : (pwm2 < 0) ? "REV" : "STOP";
 1092              		.loc 1 297 63 discriminator 1 view .LVU262
 1093 01b8 01DB     		blt	.L75
 297:src/can_bus.c ****                         const char* dir2 = (pwm2 > 0) ? "FWD" : (pwm2 < 0) ? "REV" : "STOP";
 1094              		.loc 1 297 63 discriminator 4 view .LVU263
 1095 01ba 3B4B     		ldr	r3, .L77+100
 1096 01bc DBE7     		b	.L43
 1097              	.L75:
 297:src/can_bus.c ****                         const char* dir2 = (pwm2 > 0) ? "FWD" : (pwm2 < 0) ? "REV" : "STOP";
 1098              		.loc 1 297 63 discriminator 3 view .LVU264
 1099 01be 3B4B     		ldr	r3, .L77+104
 1100 01c0 D9E7     		b	.L43
 1101              	.LVL93:
 1102              	.L74:
 298:src/can_bus.c **** 
 1103              		.loc 1 298 63 discriminator 1 view .LVU265
 1104 01c2 01DB     		blt	.L76
 298:src/can_bus.c **** 
 1105              		.loc 1 298 63 discriminator 4 view .LVU266
 1106 01c4 3848     		ldr	r0, .L77+100
 1107 01c6 D9E7     		b	.L44
 1108              	.L76:
 298:src/can_bus.c **** 
 1109              		.loc 1 298 63 discriminator 3 view .LVU267
 1110 01c8 3848     		ldr	r0, .L77+104
 1111 01ca D7E7     		b	.L44
ARM GAS  /tmp/ccC7I5pD.s 			page 33


 1112              	.LVL94:
 1113              	.L69:
 298:src/can_bus.c **** 
 1114              		.loc 1 298 63 discriminator 3 view .LVU268
 1115              	.LBE12:
 1116              	.LBE11:
 321:src/can_bus.c ****                 forceLog(" [SPEED CMD]");
 1117              		.loc 1 321 17 is_stmt 1 view .LVU269
 321:src/can_bus.c ****                 forceLog(" [SPEED CMD]");
 1118              		.loc 1 321 26 is_stmt 0 view .LVU270
 1119 01cc 1F4A     		ldr	r2, .L77+8
 1120 01ce 9368     		ldr	r3, [r2, #8]
 321:src/can_bus.c ****                 forceLog(" [SPEED CMD]");
 1121              		.loc 1 321 35 view .LVU271
 1122 01d0 0133     		adds	r3, r3, #1
 1123 01d2 9360     		str	r3, [r2, #8]
 322:src/can_bus.c ****                 
 1124              		.loc 1 322 17 is_stmt 1 view .LVU272
 1125 01d4 3648     		ldr	r0, .L77+108
 1126 01d6 FFF7FEFF 		bl	forceLog
 1127              	.LVL95:
 325:src/can_bus.c ****                     // Parse speed values using memcpy (little-endian, same as ESP32)
 1128              		.loc 1 325 17 view .LVU273
 325:src/can_bus.c ****                     // Parse speed values using memcpy (little-endian, same as ESP32)
 1129              		.loc 1 325 29 is_stmt 0 view .LVU274
 1130 01da 1B4B     		ldr	r3, .L77+4
 1131 01dc 1B7B     		ldrb	r3, [r3, #12]	@ zero_extendqisi2
 325:src/can_bus.c ****                     // Parse speed values using memcpy (little-endian, same as ESP32)
 1132              		.loc 1 325 20 view .LVU275
 1133 01de 072B     		cmp	r3, #7
 1134 01e0 91D9     		bls	.L40
 1135              	.LBB13:
 327:src/can_bus.c ****                     memcpy(&speed1, &rx_frame.data[0], 4);
 1136              		.loc 1 327 21 is_stmt 1 view .LVU276
 328:src/can_bus.c ****                     memcpy(&speed2, &rx_frame.data[4], 4);
 1137              		.loc 1 328 21 view .LVU277
 1138 01e2 194B     		ldr	r3, .L77+4
 1139 01e4 5D68     		ldr	r5, [r3, #4]
 1140              	.LVL96:
 329:src/can_bus.c **** 
 1141              		.loc 1 329 21 view .LVU278
 1142 01e6 9C68     		ldr	r4, [r3, #8]
 1143              	.LVL97:
 333:src/can_bus.c ****                     if (speed1 > MAX_SPEED_MM_S) speed1 = MAX_SPEED_MM_S;
 1144              		.loc 1 333 21 view .LVU279
 333:src/can_bus.c ****                     if (speed1 > MAX_SPEED_MM_S) speed1 = MAX_SPEED_MM_S;
 1145              		.loc 1 333 24 is_stmt 0 view .LVU280
 1146 01e8 324B     		ldr	r3, .L77+112
 1147 01ea 9D42     		cmp	r5, r3
 1148 01ec 06DB     		blt	.L57
 334:src/can_bus.c ****                     if (speed2 < -MAX_SPEED_MM_S) speed2 = -MAX_SPEED_MM_S;
 1149              		.loc 1 334 21 is_stmt 1 view .LVU281
 334:src/can_bus.c ****                     if (speed2 < -MAX_SPEED_MM_S) speed2 = -MAX_SPEED_MM_S;
 1150              		.loc 1 334 24 is_stmt 0 view .LVU282
 1151 01ee 41F28833 		movw	r3, #5000
 1152 01f2 9D42     		cmp	r5, r3
 1153 01f4 03DD     		ble	.L46
ARM GAS  /tmp/ccC7I5pD.s 			page 34


 334:src/can_bus.c ****                     if (speed2 < -MAX_SPEED_MM_S) speed2 = -MAX_SPEED_MM_S;
 1154              		.loc 1 334 57 discriminator 1 view .LVU283
 1155 01f6 41F28835 		movw	r5, #5000
 1156              	.LVL98:
 334:src/can_bus.c ****                     if (speed2 < -MAX_SPEED_MM_S) speed2 = -MAX_SPEED_MM_S;
 1157              		.loc 1 334 57 discriminator 1 view .LVU284
 1158 01fa 00E0     		b	.L46
 1159              	.LVL99:
 1160              	.L57:
 333:src/can_bus.c ****                     if (speed1 > MAX_SPEED_MM_S) speed1 = MAX_SPEED_MM_S;
 1161              		.loc 1 333 58 discriminator 1 view .LVU285
 1162 01fc 2D4D     		ldr	r5, .L77+112
 1163              	.LVL100:
 1164              	.L46:
 335:src/can_bus.c ****                     if (speed2 > MAX_SPEED_MM_S) speed2 = MAX_SPEED_MM_S;
 1165              		.loc 1 335 21 is_stmt 1 view .LVU286
 335:src/can_bus.c ****                     if (speed2 > MAX_SPEED_MM_S) speed2 = MAX_SPEED_MM_S;
 1166              		.loc 1 335 24 is_stmt 0 view .LVU287
 1167 01fe 2D4B     		ldr	r3, .L77+112
 1168 0200 9C42     		cmp	r4, r3
 1169 0202 06DB     		blt	.L59
 336:src/can_bus.c **** 
 1170              		.loc 1 336 21 is_stmt 1 view .LVU288
 336:src/can_bus.c **** 
 1171              		.loc 1 336 24 is_stmt 0 view .LVU289
 1172 0204 41F28833 		movw	r3, #5000
 1173 0208 9C42     		cmp	r4, r3
 1174 020a 03DD     		ble	.L47
 336:src/can_bus.c **** 
 1175              		.loc 1 336 57 discriminator 1 view .LVU290
 1176 020c 41F28834 		movw	r4, #5000
 1177              	.LVL101:
 336:src/can_bus.c **** 
 1178              		.loc 1 336 57 discriminator 1 view .LVU291
 1179 0210 00E0     		b	.L47
 1180              	.LVL102:
 1181              	.L59:
 335:src/can_bus.c ****                     if (speed2 > MAX_SPEED_MM_S) speed2 = MAX_SPEED_MM_S;
 1182              		.loc 1 335 58 discriminator 1 view .LVU292
 1183 0212 284C     		ldr	r4, .L77+112
 1184              	.LVL103:
 1185              	.L47:
 338:src/can_bus.c ****                     forceLog(msg);
 1186              		.loc 1 338 21 is_stmt 1 view .LVU293
 1187 0214 2346     		mov	r3, r4
 1188 0216 2A46     		mov	r2, r5
 1189 0218 2749     		ldr	r1, .L77+116
 1190 021a 02A8     		add	r0, sp, #8
 1191 021c FFF7FEFF 		bl	sprintf
 1192              	.LVL104:
 339:src/can_bus.c **** 
 1193              		.loc 1 339 21 view .LVU294
 1194 0220 02A8     		add	r0, sp, #8
 1195 0222 FFF7FEFF 		bl	forceLog
 1196              	.LVL105:
 342:src/can_bus.c ****                     extern uint8_t enable;
 1197              		.loc 1 342 21 view .LVU295
ARM GAS  /tmp/ccC7I5pD.s 			page 35


 343:src/can_bus.c ****                     extern volatile uint32_t input_timeout_counter;
 1198              		.loc 1 343 21 view .LVU296
 344:src/can_bus.c ****                     extern uint32_t inactivity_timeout_counter;
 1199              		.loc 1 344 21 view .LVU297
 345:src/can_bus.c **** 
 1200              		.loc 1 345 21 view .LVU298
 347:src/can_bus.c ****                     SpeedData.wanted_speed_mm_per_sec[1] = speed2;
 1201              		.loc 1 347 21 view .LVU299
 347:src/can_bus.c ****                     SpeedData.wanted_speed_mm_per_sec[1] = speed2;
 1202              		.loc 1 347 58 is_stmt 0 view .LVU300
 1203 0226 254B     		ldr	r3, .L77+120
 1204 0228 1D60     		str	r5, [r3]
 348:src/can_bus.c ****                     control_type = CONTROL_TYPE_SPEED;  // Enable Speed mode
 1205              		.loc 1 348 21 is_stmt 1 view .LVU301
 348:src/can_bus.c ****                     control_type = CONTROL_TYPE_SPEED;  // Enable Speed mode
 1206              		.loc 1 348 58 is_stmt 0 view .LVU302
 1207 022a 5C60     		str	r4, [r3, #4]
 349:src/can_bus.c ****                     enable = 1;
 1208              		.loc 1 349 21 is_stmt 1 view .LVU303
 349:src/can_bus.c ****                     enable = 1;
 1209              		.loc 1 349 34 is_stmt 0 view .LVU304
 1210 022c 1A4B     		ldr	r3, .L77+84
 1211 022e 0222     		movs	r2, #2
 1212 0230 1A60     		str	r2, [r3]
 350:src/can_bus.c ****                     input_timeout_counter = 0;
 1213              		.loc 1 350 21 is_stmt 1 view .LVU305
 350:src/can_bus.c ****                     input_timeout_counter = 0;
 1214              		.loc 1 350 28 is_stmt 0 view .LVU306
 1215 0232 1A4B     		ldr	r3, .L77+88
 1216 0234 0122     		movs	r2, #1
 1217 0236 1A70     		strb	r2, [r3]
 351:src/can_bus.c ****                     inactivity_timeout_counter = 0;    // Reset inactivity timeout
 1218              		.loc 1 351 21 is_stmt 1 view .LVU307
 351:src/can_bus.c ****                     inactivity_timeout_counter = 0;    // Reset inactivity timeout
 1219              		.loc 1 351 43 is_stmt 0 view .LVU308
 1220 0238 0023     		movs	r3, #0
 1221 023a 194A     		ldr	r2, .L77+92
 1222 023c 1360     		str	r3, [r2]
 352:src/can_bus.c ****                 }
 1223              		.loc 1 352 21 is_stmt 1 view .LVU309
 352:src/can_bus.c ****                 }
 1224              		.loc 1 352 48 is_stmt 0 view .LVU310
 1225 023e 194A     		ldr	r2, .L77+96
 1226 0240 1360     		str	r3, [r2]
 1227 0242 60E7     		b	.L40
 1228              	.L78:
 1229              		.align	2
 1230              	.L77:
 1231 0244 00000000 		.word	can_mode_active
 1232 0248 00000000 		.word	rx_frame
 1233 024c 00000000 		.word	can_stats
 1234 0250 78000000 		.word	.LC22
 1235 0254 10000000 		.word	.LC20
 1236 0258 44000000 		.word	.LC21
 1237 025c 98000000 		.word	.LC23
 1238 0260 00000000 		.word	can_cmd_pwm
 1239 0264 00000000 		.word	can_cmd_speed
ARM GAS  /tmp/ccC7I5pD.s 			page 36


 1240 0268 00000000 		.word	can_cmd_position
 1241 026c 00000000 		.word	can_cmd_enable
 1242 0270 B001B200 		.word	11665840
 1243 0274 F8010000 		.word	.LC36
 1244 0278 04020000 		.word	.LC37
 1245 027c A0000000 		.word	.LC24
 1246 0280 AC000000 		.word	.LC25
 1247 0284 F8000000 		.word	.LC26
 1248 0288 67666666 		.word	1717986919
 1249 028c 08000000 		.word	.LC18
 1250 0290 38010000 		.word	.LC27
 1251 0294 00000000 		.word	PWMData
 1252 0298 00000000 		.word	control_type
 1253 029c 00000000 		.word	enable
 1254 02a0 00000000 		.word	input_timeout_counter
 1255 02a4 00000000 		.word	inactivity_timeout_counter
 1256 02a8 00000000 		.word	.LC17
 1257 02ac 0C000000 		.word	.LC19
 1258 02b0 68010000 		.word	.LC28
 1259 02b4 78ECFFFF 		.word	-5000
 1260 02b8 78010000 		.word	.LC29
 1261 02bc 00000000 		.word	SpeedData
 1262              	.LVL106:
 1263              	.L70:
 352:src/can_bus.c ****                 }
 1264              		.loc 1 352 48 view .LVU311
 1265              	.LBE13:
 356:src/can_bus.c ****                 forceLog(" [POS CMD]");
 1266              		.loc 1 356 17 is_stmt 1 view .LVU312
 356:src/can_bus.c ****                 forceLog(" [POS CMD]");
 1267              		.loc 1 356 26 is_stmt 0 view .LVU313
 1268 02c0 2D4A     		ldr	r2, .L79
 1269 02c2 D368     		ldr	r3, [r2, #12]
 356:src/can_bus.c ****                 forceLog(" [POS CMD]");
 1270              		.loc 1 356 38 view .LVU314
 1271 02c4 0133     		adds	r3, r3, #1
 1272 02c6 D360     		str	r3, [r2, #12]
 357:src/can_bus.c ****                 
 1273              		.loc 1 357 17 is_stmt 1 view .LVU315
 1274 02c8 2C48     		ldr	r0, .L79+4
 1275 02ca FFF7FEFF 		bl	forceLog
 1276              	.LVL107:
 360:src/can_bus.c ****                     // Parse position values using memcpy (little-endian, same as ESP32)
 1277              		.loc 1 360 17 view .LVU316
 360:src/can_bus.c ****                     // Parse position values using memcpy (little-endian, same as ESP32)
 1278              		.loc 1 360 29 is_stmt 0 view .LVU317
 1279 02ce 2C4B     		ldr	r3, .L79+8
 1280 02d0 1B7B     		ldrb	r3, [r3, #12]	@ zero_extendqisi2
 360:src/can_bus.c ****                     // Parse position values using memcpy (little-endian, same as ESP32)
 1281              		.loc 1 360 20 view .LVU318
 1282 02d2 072B     		cmp	r3, #7
 1283 02d4 7FF617AF 		bls	.L40
 1284              	.LBB14:
 362:src/can_bus.c ****                     memcpy(&pos1, &rx_frame.data[0], 4);
 1285              		.loc 1 362 21 is_stmt 1 view .LVU319
 363:src/can_bus.c ****                     memcpy(&pos2, &rx_frame.data[4], 4);
 1286              		.loc 1 363 21 view .LVU320
ARM GAS  /tmp/ccC7I5pD.s 			page 37


 1287 02d8 294B     		ldr	r3, .L79+8
 1288 02da 5D68     		ldr	r5, [r3, #4]
 1289              	.LVL108:
 364:src/can_bus.c **** 
 1290              		.loc 1 364 21 view .LVU321
 1291 02dc 9C68     		ldr	r4, [r3, #8]
 1292              	.LVL109:
 366:src/can_bus.c ****                     forceLog(msg);
 1293              		.loc 1 366 21 view .LVU322
 1294 02de 2346     		mov	r3, r4
 1295 02e0 2A46     		mov	r2, r5
 1296 02e2 2849     		ldr	r1, .L79+12
 1297 02e4 02A8     		add	r0, sp, #8
 1298 02e6 FFF7FEFF 		bl	sprintf
 1299              	.LVL110:
 367:src/can_bus.c **** 
 1300              		.loc 1 367 21 view .LVU323
 1301 02ea 02A8     		add	r0, sp, #8
 1302 02ec FFF7FEFF 		bl	forceLog
 1303              	.LVL111:
 370:src/can_bus.c ****                     extern uint8_t enable;
 1304              		.loc 1 370 21 view .LVU324
 371:src/can_bus.c ****                     extern volatile uint32_t input_timeout_counter;
 1305              		.loc 1 371 21 view .LVU325
 372:src/can_bus.c ****                     extern uint32_t inactivity_timeout_counter;
 1306              		.loc 1 372 21 view .LVU326
 373:src/can_bus.c **** 
 1307              		.loc 1 373 21 view .LVU327
 375:src/can_bus.c ****                     PosnData.wanted_posn_mm[1] = pos2;
 1308              		.loc 1 375 21 view .LVU328
 375:src/can_bus.c ****                     PosnData.wanted_posn_mm[1] = pos2;
 1309              		.loc 1 375 48 is_stmt 0 view .LVU329
 1310 02f0 254B     		ldr	r3, .L79+16
 1311 02f2 1D60     		str	r5, [r3]
 376:src/can_bus.c ****                     control_type = CONTROL_TYPE_POSITION;  // Enable Position mode
 1312              		.loc 1 376 21 is_stmt 1 view .LVU330
 376:src/can_bus.c ****                     control_type = CONTROL_TYPE_POSITION;  // Enable Position mode
 1313              		.loc 1 376 48 is_stmt 0 view .LVU331
 1314 02f4 5C60     		str	r4, [r3, #4]
 377:src/can_bus.c ****                     enable = 1;
 1315              		.loc 1 377 21 is_stmt 1 view .LVU332
 377:src/can_bus.c ****                     enable = 1;
 1316              		.loc 1 377 34 is_stmt 0 view .LVU333
 1317 02f6 0123     		movs	r3, #1
 1318 02f8 244A     		ldr	r2, .L79+20
 1319 02fa 1360     		str	r3, [r2]
 378:src/can_bus.c ****                     input_timeout_counter = 0;
 1320              		.loc 1 378 21 is_stmt 1 view .LVU334
 378:src/can_bus.c ****                     input_timeout_counter = 0;
 1321              		.loc 1 378 28 is_stmt 0 view .LVU335
 1322 02fc 244A     		ldr	r2, .L79+24
 1323 02fe 1370     		strb	r3, [r2]
 379:src/can_bus.c ****                     inactivity_timeout_counter = 0;    // Reset inactivity timeout
 1324              		.loc 1 379 21 is_stmt 1 view .LVU336
 379:src/can_bus.c ****                     inactivity_timeout_counter = 0;    // Reset inactivity timeout
 1325              		.loc 1 379 43 is_stmt 0 view .LVU337
 1326 0300 0023     		movs	r3, #0
ARM GAS  /tmp/ccC7I5pD.s 			page 38


 1327 0302 244A     		ldr	r2, .L79+28
 1328 0304 1360     		str	r3, [r2]
 380:src/can_bus.c ****                 }
 1329              		.loc 1 380 21 is_stmt 1 view .LVU338
 380:src/can_bus.c ****                 }
 1330              		.loc 1 380 48 is_stmt 0 view .LVU339
 1331 0306 244A     		ldr	r2, .L79+32
 1332 0308 1360     		str	r3, [r2]
 1333 030a FCE6     		b	.L40
 1334              	.LVL112:
 1335              	.L71:
 380:src/can_bus.c ****                 }
 1336              		.loc 1 380 48 view .LVU340
 1337              	.LBE14:
 384:src/can_bus.c ****                 forceLog(" [ENABLE CMD]");
 1338              		.loc 1 384 17 is_stmt 1 view .LVU341
 384:src/can_bus.c ****                 forceLog(" [ENABLE CMD]");
 1339              		.loc 1 384 26 is_stmt 0 view .LVU342
 1340 030c 1A4A     		ldr	r2, .L79
 1341 030e 1369     		ldr	r3, [r2, #16]
 384:src/can_bus.c ****                 forceLog(" [ENABLE CMD]");
 1342              		.loc 1 384 36 view .LVU343
 1343 0310 0133     		adds	r3, r3, #1
 1344 0312 1361     		str	r3, [r2, #16]
 385:src/can_bus.c **** 
 1345              		.loc 1 385 17 is_stmt 1 view .LVU344
 1346 0314 2148     		ldr	r0, .L79+36
 1347 0316 FFF7FEFF 		bl	forceLog
 1348              	.LVL113:
 388:src/can_bus.c ****                     uint8_t en_val = rx_frame.data[0];
 1349              		.loc 1 388 17 view .LVU345
 388:src/can_bus.c ****                     uint8_t en_val = rx_frame.data[0];
 1350              		.loc 1 388 29 is_stmt 0 view .LVU346
 1351 031a 194B     		ldr	r3, .L79+8
 1352 031c 1B7B     		ldrb	r3, [r3, #12]	@ zero_extendqisi2
 388:src/can_bus.c ****                     uint8_t en_val = rx_frame.data[0];
 1353              		.loc 1 388 20 view .LVU347
 1354 031e 002B     		cmp	r3, #0
 1355 0320 3FF4F1AE 		beq	.L40
 1356              	.LBB15:
 389:src/can_bus.c ****                     sprintf(msg, " EN:%d", en_val);
 1357              		.loc 1 389 21 is_stmt 1 view .LVU348
 389:src/can_bus.c ****                     sprintf(msg, " EN:%d", en_val);
 1358              		.loc 1 389 29 is_stmt 0 view .LVU349
 1359 0324 164B     		ldr	r3, .L79+8
 1360 0326 1C79     		ldrb	r4, [r3, #4]	@ zero_extendqisi2
 1361              	.LVL114:
 390:src/can_bus.c ****                     forceLog(msg);
 1362              		.loc 1 390 21 is_stmt 1 view .LVU350
 1363 0328 2246     		mov	r2, r4
 1364 032a 1D49     		ldr	r1, .L79+40
 1365 032c 02A8     		add	r0, sp, #8
 1366 032e FFF7FEFF 		bl	sprintf
 1367              	.LVL115:
 391:src/can_bus.c **** 
 1368              		.loc 1 391 21 view .LVU351
 1369 0332 02A8     		add	r0, sp, #8
ARM GAS  /tmp/ccC7I5pD.s 			page 39


 1370 0334 FFF7FEFF 		bl	forceLog
 1371              	.LVL116:
 393:src/can_bus.c ****                     extern volatile uint32_t input_timeout_counter;
 1372              		.loc 1 393 21 view .LVU352
 394:src/can_bus.c ****                     extern uint32_t inactivity_timeout_counter;
 1373              		.loc 1 394 21 view .LVU353
 395:src/can_bus.c **** 
 1374              		.loc 1 395 21 view .LVU354
 397:src/can_bus.c ****                         enable = 1;
 1375              		.loc 1 397 21 view .LVU355
 397:src/can_bus.c ****                         enable = 1;
 1376              		.loc 1 397 24 is_stmt 0 view .LVU356
 1377 0338 5CB1     		cbz	r4, .L50
 398:src/can_bus.c ****                         input_timeout_counter = 0;
 1378              		.loc 1 398 25 is_stmt 1 view .LVU357
 398:src/can_bus.c ****                         input_timeout_counter = 0;
 1379              		.loc 1 398 32 is_stmt 0 view .LVU358
 1380 033a 154B     		ldr	r3, .L79+24
 1381 033c 0122     		movs	r2, #1
 1382 033e 1A70     		strb	r2, [r3]
 399:src/can_bus.c ****                         inactivity_timeout_counter = 0;    // Reset inactivity timeout
 1383              		.loc 1 399 25 is_stmt 1 view .LVU359
 399:src/can_bus.c ****                         inactivity_timeout_counter = 0;    // Reset inactivity timeout
 1384              		.loc 1 399 47 is_stmt 0 view .LVU360
 1385 0340 0023     		movs	r3, #0
 1386 0342 144A     		ldr	r2, .L79+28
 1387 0344 1360     		str	r3, [r2]
 400:src/can_bus.c ****                         forceLog(" -> Motors ENABLED\r\n");
 1388              		.loc 1 400 25 is_stmt 1 view .LVU361
 400:src/can_bus.c ****                         forceLog(" -> Motors ENABLED\r\n");
 1389              		.loc 1 400 52 is_stmt 0 view .LVU362
 1390 0346 144A     		ldr	r2, .L79+32
 1391 0348 1360     		str	r3, [r2]
 401:src/can_bus.c ****                     } else {
 1392              		.loc 1 401 25 is_stmt 1 view .LVU363
 1393 034a 1648     		ldr	r0, .L79+44
 1394 034c FFF7FEFF 		bl	forceLog
 1395              	.LVL117:
 1396 0350 D9E6     		b	.L40
 1397              	.L50:
 403:src/can_bus.c ****                         PWMData.pwm[0] = 0;
 1398              		.loc 1 403 25 view .LVU364
 403:src/can_bus.c ****                         PWMData.pwm[0] = 0;
 1399              		.loc 1 403 32 is_stmt 0 view .LVU365
 1400 0352 0023     		movs	r3, #0
 1401 0354 0E4A     		ldr	r2, .L79+24
 1402 0356 1370     		strb	r3, [r2]
 404:src/can_bus.c ****                         PWMData.pwm[1] = 0;
 1403              		.loc 1 404 25 is_stmt 1 view .LVU366
 404:src/can_bus.c ****                         PWMData.pwm[1] = 0;
 1404              		.loc 1 404 40 is_stmt 0 view .LVU367
 1405 0358 134A     		ldr	r2, .L79+48
 1406 035a 1360     		str	r3, [r2]
 405:src/can_bus.c ****                         SpeedData.wanted_speed_mm_per_sec[0] = 0;
 1407              		.loc 1 405 25 is_stmt 1 view .LVU368
 405:src/can_bus.c ****                         SpeedData.wanted_speed_mm_per_sec[0] = 0;
 1408              		.loc 1 405 40 is_stmt 0 view .LVU369
ARM GAS  /tmp/ccC7I5pD.s 			page 40


 1409 035c 5360     		str	r3, [r2, #4]
 406:src/can_bus.c ****                         SpeedData.wanted_speed_mm_per_sec[1] = 0;
 1410              		.loc 1 406 25 is_stmt 1 view .LVU370
 406:src/can_bus.c ****                         SpeedData.wanted_speed_mm_per_sec[1] = 0;
 1411              		.loc 1 406 62 is_stmt 0 view .LVU371
 1412 035e 134A     		ldr	r2, .L79+52
 1413 0360 1360     		str	r3, [r2]
 407:src/can_bus.c ****                         forceLog(" -> Motors DISABLED\r\n");
 1414              		.loc 1 407 25 is_stmt 1 view .LVU372
 407:src/can_bus.c ****                         forceLog(" -> Motors DISABLED\r\n");
 1415              		.loc 1 407 62 is_stmt 0 view .LVU373
 1416 0362 5360     		str	r3, [r2, #4]
 408:src/can_bus.c ****                     }
 1417              		.loc 1 408 25 is_stmt 1 view .LVU374
 1418 0364 1248     		ldr	r0, .L79+56
 1419 0366 FFF7FEFF 		bl	forceLog
 1420              	.LVL118:
 1421 036a CCE6     		b	.L40
 1422              	.LVL119:
 1423              	.L72:
 408:src/can_bus.c ****                     }
 1424              		.loc 1 408 25 is_stmt 0 view .LVU375
 1425              	.LBE15:
 1426              	.LBB16:
 415:src/can_bus.c ****                 ota_reboot_to_bootloader_export();
 1427              		.loc 1 415 17 is_stmt 1 view .LVU376
 416:src/can_bus.c ****             } else {
 1428              		.loc 1 416 17 view .LVU377
 1429 036c FFF7FEFF 		bl	ota_reboot_to_bootloader_export
 1430              	.LVL120:
 1431              	.LBE16:
 413:src/can_bus.c ****                 // OTA reboot trigger — host sends magic frame to enter bootloader
 1432              		.loc 1 413 51 is_stmt 0 view .LVU378
 1433 0370 C9E6     		b	.L40
 1434              	.LVL121:
 1435              	.L65:
 423:src/can_bus.c ****         }
 424:src/can_bus.c ****     }
 425:src/can_bus.c **** #endif
 426:src/can_bus.c **** }
 1436              		.loc 1 426 1 view .LVU379
 1437 0372 29B0     		add	sp, sp, #164
 1438              	.LCFI10:
 1439              		.cfi_def_cfa_offset 12
 1440              		@ sp needed
 1441 0374 30BD     		pop	{r4, r5, pc}
 1442              	.L80:
 1443 0376 00BF     		.align	2
 1444              	.L79:
 1445 0378 00000000 		.word	can_stats
 1446 037c 90010000 		.word	.LC30
 1447 0380 00000000 		.word	rx_frame
 1448 0384 9C010000 		.word	.LC31
 1449 0388 00000000 		.word	PosnData
 1450 038c 00000000 		.word	control_type
 1451 0390 00000000 		.word	enable
 1452 0394 00000000 		.word	input_timeout_counter
ARM GAS  /tmp/ccC7I5pD.s 			page 41


 1453 0398 00000000 		.word	inactivity_timeout_counter
 1454 039c B0010000 		.word	.LC32
 1455 03a0 C0010000 		.word	.LC33
 1456 03a4 C8010000 		.word	.LC34
 1457 03a8 00000000 		.word	PWMData
 1458 03ac 00000000 		.word	SpeedData
 1459 03b0 E0010000 		.word	.LC35
 1460              		.cfi_endproc
 1461              	.LFE71:
 1463              		.section	.rodata.CAN_SendStatus.str1.4,"aMS",%progbits,1
 1464              		.align	2
 1465              	.LC38:
 1466 0000 2D2D2D00 		.ascii	"---\000"
 1467              		.global	__aeabi_fmul
 1468              		.global	__aeabi_f2iz
 1469              		.align	2
 1470              	.LC39:
 1471 0004 5B43414E 		.ascii	"[CAN TX] Speed: L=%d R=%d mm/s\015\012\000"
 1471      2054585D 
 1471      20537065 
 1471      65643A20 
 1471      4C3D2564 
 1472 0025 000000   		.align	2
 1473              	.LC40:
 1474 0028 5B43414E 		.ascii	"[CAN TX] Position: L=%d R=%d mm\015\012\000"
 1474      2054585D 
 1474      20506F73 
 1474      6974696F 
 1474      6E3A204C 
 1475 004a 0000     		.align	2
 1476              	.LC41:
 1477 004c 5B43414E 		.ascii	"[CAN TX] Battery: %d cV, Temp: %d C\015\012\000"
 1477      2054585D 
 1477      20426174 
 1477      74657279 
 1477      3A202564 
 1478 0072 0000     		.align	2
 1479              	.LC42:
 1480 0074 5B4D4F54 		.ascii	"[MOTOR] M1: %3d%% %-3s (%4d) | M2: %3d%% %-3s (%4d)"
 1480      4F525D20 
 1480      4D313A20 
 1480      25336425 
 1480      2520252D 
 1481 00a7 207C2053 		.ascii	" | SPD: L=%d R=%d mm/s\015\012\000"
 1481      50443A20 
 1481      4C3D2564 
 1481      20523D25 
 1481      64206D6D 
 1482              		.section	.text.CAN_SendStatus,"ax",%progbits
 1483              		.align	1
 1484              		.global	CAN_SendStatus
 1485              		.syntax unified
 1486              		.thumb
 1487              		.thumb_func
 1489              	CAN_SendStatus:
 1490              	.LFB72:
 427:src/can_bus.c **** 
ARM GAS  /tmp/ccC7I5pD.s 			page 42


 428:src/can_bus.c **** // Send status via CAN bus
 429:src/can_bus.c **** void CAN_SendStatus(void) {
 1491              		.loc 1 429 27 is_stmt 1 view -0
 1492              		.cfi_startproc
 1493              		@ args = 0, pretend = 0, frame = 168
 1494              		@ frame_needed = 0, uses_anonymous_args = 0
 430:src/can_bus.c **** #ifdef ENABLE_CAN_BUS
 431:src/can_bus.c ****     if (!can_mode_active) {
 1495              		.loc 1 431 5 view .LVU381
 1496              		.loc 1 431 9 is_stmt 0 view .LVU382
 1497 0000 904B     		ldr	r3, .L112
 1498 0002 1B78     		ldrb	r3, [r3]	@ zero_extendqisi2
 1499              		.loc 1 431 8 view .LVU383
 1500 0004 002B     		cmp	r3, #0
 1501 0006 00F01C81 		beq	.L102
 429:src/can_bus.c **** #ifdef ENABLE_CAN_BUS
 1502              		.loc 1 429 27 view .LVU384
 1503 000a 2DE9F043 		push	{r4, r5, r6, r7, r8, r9, lr}
 1504              	.LCFI11:
 1505              		.cfi_def_cfa_offset 28
 1506              		.cfi_offset 4, -28
 1507              		.cfi_offset 5, -24
 1508              		.cfi_offset 6, -20
 1509              		.cfi_offset 7, -16
 1510              		.cfi_offset 8, -12
 1511              		.cfi_offset 9, -8
 1512              		.cfi_offset 14, -4
 1513 000e B1B0     		sub	sp, sp, #196
 1514              	.LCFI12:
 1515              		.cfi_def_cfa_offset 224
 432:src/can_bus.c ****         return;
 433:src/can_bus.c ****     }
 434:src/can_bus.c **** 
 435:src/can_bus.c ****     // Get current values from actual data structures
 436:src/can_bus.c ****     extern volatile HALL_DATA_STRUCT HallData[2];
 1516              		.loc 1 436 5 is_stmt 1 view .LVU385
 437:src/can_bus.c ****     extern volatile ELECTRICAL_PARAMS electrical_measurements;
 1517              		.loc 1 437 5 view .LVU386
 438:src/can_bus.c ****     extern int pwms[2];  // Current motor PWM values
 1518              		.loc 1 438 5 view .LVU387
 439:src/can_bus.c **** 
 440:src/can_bus.c ****     int32_t speedL = HallData[0].HallSpeed_mm_per_s;
 1519              		.loc 1 440 5 view .LVU388
 1520              		.loc 1 440 13 is_stmt 0 view .LVU389
 1521 0010 8D4B     		ldr	r3, .L112+4
 1522 0012 9D69     		ldr	r5, [r3, #24]
 1523              	.LVL122:
 441:src/can_bus.c ****     int32_t speedR = HallData[1].HallSpeed_mm_per_s;
 1524              		.loc 1 441 5 is_stmt 1 view .LVU390
 1525              		.loc 1 441 13 is_stmt 0 view .LVU391
 1526 0014 DE6B     		ldr	r6, [r3, #60]
 1527              	.LVL123:
 442:src/can_bus.c ****     // Clamp position before packing into CAN frame.
 443:src/can_bus.c ****     // HallPosn_mm is a running accumulator; on encoder wrap (e.g. >100km
 444:src/can_bus.c ****     // travel) it overflows int32_t and produces a discontinuous jump on
 445:src/can_bus.c ****     // the CAN bus that confuses odometry on the receiver side.
 446:src/can_bus.c ****     // Clamp to ±100,000,000 mm (±100 km) — practical rover range.
ARM GAS  /tmp/ccC7I5pD.s 			page 43


 447:src/can_bus.c **** #define POS_CLAMP_MM 100000000L
 448:src/can_bus.c ****     int32_t posL = HallData[0].HallPosn_mm;
 1528              		.loc 1 448 5 is_stmt 1 view .LVU392
 1529              		.loc 1 448 13 is_stmt 0 view .LVU393
 1530 0016 1C69     		ldr	r4, [r3, #16]
 1531              	.LVL124:
 449:src/can_bus.c ****     int32_t posR = HallData[1].HallPosn_mm;
 1532              		.loc 1 449 5 is_stmt 1 view .LVU394
 1533              		.loc 1 449 13 is_stmt 0 view .LVU395
 1534 0018 5F6B     		ldr	r7, [r3, #52]
 1535              	.LVL125:
 450:src/can_bus.c ****     if (posL >  POS_CLAMP_MM) posL =  POS_CLAMP_MM;
 1536              		.loc 1 450 5 is_stmt 1 view .LVU396
 1537              		.loc 1 450 8 is_stmt 0 view .LVU397
 1538 001a 8C4B     		ldr	r3, .L112+8
 1539 001c 9C42     		cmp	r4, r3
 1540 001e 04DC     		bgt	.L93
 451:src/can_bus.c ****     if (posL < -POS_CLAMP_MM) posL = -POS_CLAMP_MM;
 1541              		.loc 1 451 5 is_stmt 1 view .LVU398
 1542              		.loc 1 451 8 is_stmt 0 view .LVU399
 1543 0020 8B4B     		ldr	r3, .L112+12
 1544 0022 9C42     		cmp	r4, r3
 1545 0024 02DA     		bge	.L84
 1546              		.loc 1 451 36 discriminator 1 view .LVU400
 1547 0026 8A4C     		ldr	r4, .L112+12
 1548              	.LVL126:
 1549              		.loc 1 451 36 discriminator 1 view .LVU401
 1550 0028 00E0     		b	.L84
 1551              	.LVL127:
 1552              	.L93:
 450:src/can_bus.c ****     if (posL >  POS_CLAMP_MM) posL =  POS_CLAMP_MM;
 1553              		.loc 1 450 36 discriminator 1 view .LVU402
 1554 002a 884C     		ldr	r4, .L112+8
 1555              	.LVL128:
 1556              	.L84:
 452:src/can_bus.c ****     if (posR >  POS_CLAMP_MM) posR =  POS_CLAMP_MM;
 1557              		.loc 1 452 5 is_stmt 1 view .LVU403
 1558              		.loc 1 452 8 is_stmt 0 view .LVU404
 1559 002c 874B     		ldr	r3, .L112+8
 1560 002e 9F42     		cmp	r7, r3
 1561 0030 04DC     		bgt	.L95
 453:src/can_bus.c ****     if (posR < -POS_CLAMP_MM) posR = -POS_CLAMP_MM;
 1562              		.loc 1 453 5 is_stmt 1 view .LVU405
 1563              		.loc 1 453 8 is_stmt 0 view .LVU406
 1564 0032 874B     		ldr	r3, .L112+12
 1565 0034 9F42     		cmp	r7, r3
 1566 0036 02DA     		bge	.L85
 1567              		.loc 1 453 36 discriminator 1 view .LVU407
 1568 0038 854F     		ldr	r7, .L112+12
 1569              	.LVL129:
 1570              		.loc 1 453 36 discriminator 1 view .LVU408
 1571 003a 00E0     		b	.L85
 1572              	.LVL130:
 1573              	.L95:
 452:src/can_bus.c ****     if (posR >  POS_CLAMP_MM) posR =  POS_CLAMP_MM;
 1574              		.loc 1 452 36 discriminator 1 view .LVU409
 1575 003c 834F     		ldr	r7, .L112+8
ARM GAS  /tmp/ccC7I5pD.s 			page 44


 1576              	.LVL131:
 1577              	.L85:
 454:src/can_bus.c ****     int16_t batVoltage = (int16_t)(electrical_measurements.batteryVoltage * 100.0f);  // Convert V 
 1578              		.loc 1 454 5 is_stmt 1 view .LVU410
 1579              		.loc 1 454 59 is_stmt 0 view .LVU411
 1580 003e DFF81492 		ldr	r9, .L112+16
 1581 0042 D9F80400 		ldr	r0, [r9, #4]	@ float
 1582              		.loc 1 454 75 view .LVU412
 1583 0046 8449     		ldr	r1, .L112+20
 1584 0048 FFF7FEFF 		bl	__aeabi_fmul
 1585              	.LVL132:
 1586              		.loc 1 454 13 view .LVU413
 1587 004c FFF7FEFF 		bl	__aeabi_f2iz
 1588              	.LVL133:
 1589 0050 0FFA80F8 		sxth	r8, r0
 1590              	.LVL134:
 455:src/can_bus.c ****     int16_t boardTemp = (int16_t)electrical_measurements.board_temp_deg_c;
 1591              		.loc 1 455 5 is_stmt 1 view .LVU414
 1592              		.loc 1 455 57 is_stmt 0 view .LVU415
 1593 0054 D9F81000 		ldr	r0, [r9, #16]	@ float
 1594              		.loc 1 455 13 view .LVU416
 1595 0058 FFF7FEFF 		bl	__aeabi_f2iz
 1596              	.LVL135:
 1597 005c 0FFA80F9 		sxth	r9, r0
 1598              	.LVL136:
 456:src/can_bus.c **** 
 457:src/can_bus.c ****     CAN_Frame tx_frame;
 1599              		.loc 1 457 5 is_stmt 1 view .LVU417
 458:src/can_bus.c ****     char msg[150];
 1600              		.loc 1 458 5 view .LVU418
 459:src/can_bus.c ****     static uint8_t verbose_counter = 0;
 1601              		.loc 1 459 5 view .LVU419
 460:src/can_bus.c ****     static uint8_t motor_status_counter = 0;
 1602              		.loc 1 460 5 view .LVU420
 461:src/can_bus.c **** 
 462:src/can_bus.c ****     // Status Frame 1: Speed (ID with board offset)
 463:src/can_bus.c ****     tx_frame.id = can_status_speed;
 1603              		.loc 1 463 5 view .LVU421
 1604              		.loc 1 463 17 is_stmt 0 view .LVU422
 1605 0060 7E4B     		ldr	r3, .L112+24
 1606 0062 1B68     		ldr	r3, [r3]
 1607 0064 2C93     		str	r3, [sp, #176]
 464:src/can_bus.c ****     tx_frame.extended = false;
 1608              		.loc 1 464 5 is_stmt 1 view .LVU423
 1609              		.loc 1 464 23 is_stmt 0 view .LVU424
 1610 0066 0023     		movs	r3, #0
 1611 0068 8DF8BD30 		strb	r3, [sp, #189]
 465:src/can_bus.c ****     tx_frame.rtr = false;
 1612              		.loc 1 465 5 is_stmt 1 view .LVU425
 1613              		.loc 1 465 18 is_stmt 0 view .LVU426
 1614 006c 8DF8BE30 		strb	r3, [sp, #190]
 466:src/can_bus.c ****     tx_frame.dlc = 8;
 1615              		.loc 1 466 5 is_stmt 1 view .LVU427
 1616              		.loc 1 466 18 is_stmt 0 view .LVU428
 1617 0070 0823     		movs	r3, #8
 1618 0072 8DF8BC30 		strb	r3, [sp, #188]
 467:src/can_bus.c **** 
ARM GAS  /tmp/ccC7I5pD.s 			page 45


 468:src/can_bus.c ****     // Pack speed values (int32_t, little endian)
 469:src/can_bus.c ****     tx_frame.data[0] = (uint8_t)(speedL & 0xFF);
 1619              		.loc 1 469 5 is_stmt 1 view .LVU429
 1620              		.loc 1 469 22 is_stmt 0 view .LVU430
 1621 0076 8DF8B450 		strb	r5, [sp, #180]
 470:src/can_bus.c ****     tx_frame.data[1] = (uint8_t)((speedL >> 8) & 0xFF);
 1622              		.loc 1 470 5 is_stmt 1 view .LVU431
 1623              		.loc 1 470 24 is_stmt 0 view .LVU432
 1624 007a C5F30723 		ubfx	r3, r5, #8, #8
 1625              		.loc 1 470 22 view .LVU433
 1626 007e 8DF8B530 		strb	r3, [sp, #181]
 471:src/can_bus.c ****     tx_frame.data[2] = (uint8_t)((speedL >> 16) & 0xFF);
 1627              		.loc 1 471 5 is_stmt 1 view .LVU434
 1628              		.loc 1 471 24 is_stmt 0 view .LVU435
 1629 0082 C5F30743 		ubfx	r3, r5, #16, #8
 1630              		.loc 1 471 22 view .LVU436
 1631 0086 8DF8B630 		strb	r3, [sp, #182]
 472:src/can_bus.c ****     tx_frame.data[3] = (uint8_t)((speedL >> 24) & 0xFF);
 1632              		.loc 1 472 5 is_stmt 1 view .LVU437
 1633              		.loc 1 472 24 is_stmt 0 view .LVU438
 1634 008a 2B0E     		lsrs	r3, r5, #24
 1635              		.loc 1 472 22 view .LVU439
 1636 008c 8DF8B730 		strb	r3, [sp, #183]
 473:src/can_bus.c **** 
 474:src/can_bus.c ****     tx_frame.data[4] = (uint8_t)(speedR & 0xFF);
 1637              		.loc 1 474 5 is_stmt 1 view .LVU440
 1638              		.loc 1 474 22 is_stmt 0 view .LVU441
 1639 0090 8DF8B860 		strb	r6, [sp, #184]
 475:src/can_bus.c ****     tx_frame.data[5] = (uint8_t)((speedR >> 8) & 0xFF);
 1640              		.loc 1 475 5 is_stmt 1 view .LVU442
 1641              		.loc 1 475 24 is_stmt 0 view .LVU443
 1642 0094 C6F30723 		ubfx	r3, r6, #8, #8
 1643              		.loc 1 475 22 view .LVU444
 1644 0098 8DF8B930 		strb	r3, [sp, #185]
 476:src/can_bus.c ****     tx_frame.data[6] = (uint8_t)((speedR >> 16) & 0xFF);
 1645              		.loc 1 476 5 is_stmt 1 view .LVU445
 1646              		.loc 1 476 24 is_stmt 0 view .LVU446
 1647 009c C6F30743 		ubfx	r3, r6, #16, #8
 1648              		.loc 1 476 22 view .LVU447
 1649 00a0 8DF8BA30 		strb	r3, [sp, #186]
 477:src/can_bus.c ****     tx_frame.data[7] = (uint8_t)((speedR >> 24) & 0xFF);
 1650              		.loc 1 477 5 is_stmt 1 view .LVU448
 1651              		.loc 1 477 24 is_stmt 0 view .LVU449
 1652 00a4 330E     		lsrs	r3, r6, #24
 1653              		.loc 1 477 22 view .LVU450
 1654 00a6 8DF8BB30 		strb	r3, [sp, #187]
 478:src/can_bus.c **** 
 479:src/can_bus.c ****     if (MCP2515_SendFrame(&tx_frame)) {
 1655              		.loc 1 479 5 is_stmt 1 view .LVU451
 1656              		.loc 1 479 9 is_stmt 0 view .LVU452
 1657 00aa 2CA8     		add	r0, sp, #176
 1658 00ac FFF7FEFF 		bl	MCP2515_SendFrame
 1659              	.LVL137:
 1660              		.loc 1 479 8 discriminator 1 view .LVU453
 1661 00b0 58B1     		cbz	r0, .L86
 480:src/can_bus.c ****         can_stats.tx_total++;
 1662              		.loc 1 480 9 is_stmt 1 view .LVU454
ARM GAS  /tmp/ccC7I5pD.s 			page 46


 1663              		.loc 1 480 18 is_stmt 0 view .LVU455
 1664 00b2 6B4B     		ldr	r3, .L112+28
 1665 00b4 9A69     		ldr	r2, [r3, #24]
 1666              		.loc 1 480 27 view .LVU456
 1667 00b6 0132     		adds	r2, r2, #1
 1668 00b8 9A61     		str	r2, [r3, #24]
 481:src/can_bus.c ****         can_stats.tx_status_speed++;
 1669              		.loc 1 481 9 is_stmt 1 view .LVU457
 1670              		.loc 1 481 18 is_stmt 0 view .LVU458
 1671 00ba DA69     		ldr	r2, [r3, #28]
 1672              		.loc 1 481 34 view .LVU459
 1673 00bc 0132     		adds	r2, r2, #1
 1674 00be DA61     		str	r2, [r3, #28]
 482:src/can_bus.c **** 
 483:src/can_bus.c ****         if (verbose_counter == 0) {
 1675              		.loc 1 483 9 is_stmt 1 view .LVU460
 1676              		.loc 1 483 29 is_stmt 0 view .LVU461
 1677 00c0 684B     		ldr	r3, .L112+32
 1678 00c2 1B78     		ldrb	r3, [r3]	@ zero_extendqisi2
 1679              		.loc 1 483 12 view .LVU462
 1680 00c4 002B     		cmp	r3, #0
 1681 00c6 00F09480 		beq	.L105
 1682              	.L86:
 484:src/can_bus.c ****             sprintf(msg, "[CAN TX] Speed: L=%d R=%d mm/s\r\n",
 485:src/can_bus.c ****                     (int)speedL, (int)speedR);
 486:src/can_bus.c ****             forceLog(msg);
 487:src/can_bus.c ****         }
 488:src/can_bus.c ****     }
 489:src/can_bus.c **** 
 490:src/can_bus.c ****     // Status Frame 2: Position (ID with board offset)
 491:src/can_bus.c ****     tx_frame.id = can_status_pos;
 1683              		.loc 1 491 5 is_stmt 1 view .LVU463
 1684              		.loc 1 491 17 is_stmt 0 view .LVU464
 1685 00ca 674B     		ldr	r3, .L112+36
 1686 00cc 1B68     		ldr	r3, [r3]
 1687 00ce 2C93     		str	r3, [sp, #176]
 492:src/can_bus.c ****     tx_frame.data[0] = (uint8_t)(posL & 0xFF);
 1688              		.loc 1 492 5 is_stmt 1 view .LVU465
 1689              		.loc 1 492 22 is_stmt 0 view .LVU466
 1690 00d0 8DF8B440 		strb	r4, [sp, #180]
 493:src/can_bus.c ****     tx_frame.data[1] = (uint8_t)((posL >> 8) & 0xFF);
 1691              		.loc 1 493 5 is_stmt 1 view .LVU467
 1692              		.loc 1 493 24 is_stmt 0 view .LVU468
 1693 00d4 C4F30723 		ubfx	r3, r4, #8, #8
 1694              		.loc 1 493 22 view .LVU469
 1695 00d8 8DF8B530 		strb	r3, [sp, #181]
 494:src/can_bus.c ****     tx_frame.data[2] = (uint8_t)((posL >> 16) & 0xFF);
 1696              		.loc 1 494 5 is_stmt 1 view .LVU470
 1697              		.loc 1 494 24 is_stmt 0 view .LVU471
 1698 00dc C4F30743 		ubfx	r3, r4, #16, #8
 1699              		.loc 1 494 22 view .LVU472
 1700 00e0 8DF8B630 		strb	r3, [sp, #182]
 495:src/can_bus.c ****     tx_frame.data[3] = (uint8_t)((posL >> 24) & 0xFF);
 1701              		.loc 1 495 5 is_stmt 1 view .LVU473
 1702              		.loc 1 495 24 is_stmt 0 view .LVU474
 1703 00e4 230E     		lsrs	r3, r4, #24
 1704              		.loc 1 495 22 view .LVU475
ARM GAS  /tmp/ccC7I5pD.s 			page 47


 1705 00e6 8DF8B730 		strb	r3, [sp, #183]
 496:src/can_bus.c **** 
 497:src/can_bus.c ****     tx_frame.data[4] = (uint8_t)(posR & 0xFF);
 1706              		.loc 1 497 5 is_stmt 1 view .LVU476
 1707              		.loc 1 497 22 is_stmt 0 view .LVU477
 1708 00ea 8DF8B870 		strb	r7, [sp, #184]
 498:src/can_bus.c ****     tx_frame.data[5] = (uint8_t)((posR >> 8) & 0xFF);
 1709              		.loc 1 498 5 is_stmt 1 view .LVU478
 1710              		.loc 1 498 24 is_stmt 0 view .LVU479
 1711 00ee C7F30723 		ubfx	r3, r7, #8, #8
 1712              		.loc 1 498 22 view .LVU480
 1713 00f2 8DF8B930 		strb	r3, [sp, #185]
 499:src/can_bus.c ****     tx_frame.data[6] = (uint8_t)((posR >> 16) & 0xFF);
 1714              		.loc 1 499 5 is_stmt 1 view .LVU481
 1715              		.loc 1 499 24 is_stmt 0 view .LVU482
 1716 00f6 C7F30743 		ubfx	r3, r7, #16, #8
 1717              		.loc 1 499 22 view .LVU483
 1718 00fa 8DF8BA30 		strb	r3, [sp, #186]
 500:src/can_bus.c ****     tx_frame.data[7] = (uint8_t)((posR >> 24) & 0xFF);
 1719              		.loc 1 500 5 is_stmt 1 view .LVU484
 1720              		.loc 1 500 24 is_stmt 0 view .LVU485
 1721 00fe 3B0E     		lsrs	r3, r7, #24
 1722              		.loc 1 500 22 view .LVU486
 1723 0100 8DF8BB30 		strb	r3, [sp, #187]
 501:src/can_bus.c **** 
 502:src/can_bus.c ****     if (MCP2515_SendFrame(&tx_frame)) {
 1724              		.loc 1 502 5 is_stmt 1 view .LVU487
 1725              		.loc 1 502 9 is_stmt 0 view .LVU488
 1726 0104 2CA8     		add	r0, sp, #176
 1727 0106 FFF7FEFF 		bl	MCP2515_SendFrame
 1728              	.LVL138:
 1729              		.loc 1 502 8 discriminator 1 view .LVU489
 1730 010a 50B1     		cbz	r0, .L87
 503:src/can_bus.c ****         can_stats.tx_total++;
 1731              		.loc 1 503 9 is_stmt 1 view .LVU490
 1732              		.loc 1 503 18 is_stmt 0 view .LVU491
 1733 010c 544B     		ldr	r3, .L112+28
 1734 010e 9A69     		ldr	r2, [r3, #24]
 1735              		.loc 1 503 27 view .LVU492
 1736 0110 0132     		adds	r2, r2, #1
 1737 0112 9A61     		str	r2, [r3, #24]
 504:src/can_bus.c ****         can_stats.tx_status_pos++;
 1738              		.loc 1 504 9 is_stmt 1 view .LVU493
 1739              		.loc 1 504 18 is_stmt 0 view .LVU494
 1740 0114 1A6A     		ldr	r2, [r3, #32]
 1741              		.loc 1 504 32 view .LVU495
 1742 0116 0132     		adds	r2, r2, #1
 1743 0118 1A62     		str	r2, [r3, #32]
 505:src/can_bus.c **** 
 506:src/can_bus.c ****         if (verbose_counter == 0) {
 1744              		.loc 1 506 9 is_stmt 1 view .LVU496
 1745              		.loc 1 506 29 is_stmt 0 view .LVU497
 1746 011a 524B     		ldr	r3, .L112+32
 1747 011c 1B78     		ldrb	r3, [r3]	@ zero_extendqisi2
 1748              		.loc 1 506 12 view .LVU498
 1749 011e 002B     		cmp	r3, #0
 1750 0120 71D0     		beq	.L106
ARM GAS  /tmp/ccC7I5pD.s 			page 48


 1751              	.L87:
 507:src/can_bus.c ****             sprintf(msg, "[CAN TX] Position: L=%d R=%d mm\r\n",
 508:src/can_bus.c ****                     (int)posL, (int)posR);
 509:src/can_bus.c ****             forceLog(msg);
 510:src/can_bus.c ****         }
 511:src/can_bus.c ****     }
 512:src/can_bus.c **** 
 513:src/can_bus.c ****     // Status Frame 3: Battery & Temperature (ID with board offset)
 514:src/can_bus.c ****     tx_frame.id = can_status_batt;
 1752              		.loc 1 514 5 is_stmt 1 view .LVU499
 1753              		.loc 1 514 17 is_stmt 0 view .LVU500
 1754 0122 524B     		ldr	r3, .L112+40
 1755 0124 1B68     		ldr	r3, [r3]
 1756 0126 2C93     		str	r3, [sp, #176]
 515:src/can_bus.c ****     tx_frame.dlc = 4;
 1757              		.loc 1 515 5 is_stmt 1 view .LVU501
 1758              		.loc 1 515 18 is_stmt 0 view .LVU502
 1759 0128 0423     		movs	r3, #4
 1760 012a 8DF8BC30 		strb	r3, [sp, #188]
 516:src/can_bus.c ****     tx_frame.data[0] = (uint8_t)(batVoltage & 0xFF);
 1761              		.loc 1 516 5 is_stmt 1 view .LVU503
 1762              		.loc 1 516 22 is_stmt 0 view .LVU504
 1763 012e 8DF8B480 		strb	r8, [sp, #180]
 517:src/can_bus.c ****     tx_frame.data[1] = (uint8_t)((batVoltage >> 8) & 0xFF);
 1764              		.loc 1 517 5 is_stmt 1 view .LVU505
 1765              		.loc 1 517 24 is_stmt 0 view .LVU506
 1766 0132 C8F30723 		ubfx	r3, r8, #8, #8
 1767              		.loc 1 517 22 view .LVU507
 1768 0136 8DF8B530 		strb	r3, [sp, #181]
 518:src/can_bus.c ****     tx_frame.data[2] = (uint8_t)(boardTemp & 0xFF);
 1769              		.loc 1 518 5 is_stmt 1 view .LVU508
 1770              		.loc 1 518 22 is_stmt 0 view .LVU509
 1771 013a 8DF8B690 		strb	r9, [sp, #182]
 519:src/can_bus.c ****     tx_frame.data[3] = (uint8_t)((boardTemp >> 8) & 0xFF);
 1772              		.loc 1 519 5 is_stmt 1 view .LVU510
 1773              		.loc 1 519 24 is_stmt 0 view .LVU511
 1774 013e C9F30723 		ubfx	r3, r9, #8, #8
 1775              		.loc 1 519 22 view .LVU512
 1776 0142 8DF8B730 		strb	r3, [sp, #183]
 520:src/can_bus.c **** 
 521:src/can_bus.c ****     if (MCP2515_SendFrame(&tx_frame)) {
 1777              		.loc 1 521 5 is_stmt 1 view .LVU513
 1778              		.loc 1 521 9 is_stmt 0 view .LVU514
 1779 0146 2CA8     		add	r0, sp, #176
 1780 0148 FFF7FEFF 		bl	MCP2515_SendFrame
 1781              	.LVL139:
 1782              		.loc 1 521 8 discriminator 1 view .LVU515
 1783 014c 50B1     		cbz	r0, .L88
 522:src/can_bus.c ****         can_stats.tx_total++;
 1784              		.loc 1 522 9 is_stmt 1 view .LVU516
 1785              		.loc 1 522 18 is_stmt 0 view .LVU517
 1786 014e 444B     		ldr	r3, .L112+28
 1787 0150 9A69     		ldr	r2, [r3, #24]
 1788              		.loc 1 522 27 view .LVU518
 1789 0152 0132     		adds	r2, r2, #1
 1790 0154 9A61     		str	r2, [r3, #24]
 523:src/can_bus.c ****         can_stats.tx_status_batt++;
ARM GAS  /tmp/ccC7I5pD.s 			page 49


 1791              		.loc 1 523 9 is_stmt 1 view .LVU519
 1792              		.loc 1 523 18 is_stmt 0 view .LVU520
 1793 0156 5A6A     		ldr	r2, [r3, #36]
 1794              		.loc 1 523 33 view .LVU521
 1795 0158 0132     		adds	r2, r2, #1
 1796 015a 5A62     		str	r2, [r3, #36]
 524:src/can_bus.c **** 
 525:src/can_bus.c ****         if (verbose_counter == 0) {
 1797              		.loc 1 525 9 is_stmt 1 view .LVU522
 1798              		.loc 1 525 29 is_stmt 0 view .LVU523
 1799 015c 414B     		ldr	r3, .L112+32
 1800 015e 1B78     		ldrb	r3, [r3]	@ zero_extendqisi2
 1801              		.loc 1 525 12 view .LVU524
 1802 0160 002B     		cmp	r3, #0
 1803 0162 5AD0     		beq	.L107
 1804              	.L88:
 526:src/can_bus.c ****             sprintf(msg, "[CAN TX] Battery: %d cV, Temp: %d C\r\n",
 527:src/can_bus.c ****                     (int)batVoltage, (int)boardTemp);
 528:src/can_bus.c ****             forceLog(msg);
 529:src/can_bus.c ****         }
 530:src/can_bus.c ****     }
 531:src/can_bus.c **** 
 532:src/can_bus.c ****     // Print verbose TX info every 10 cycles (1 second at 100ms rate)
 533:src/can_bus.c ****     verbose_counter = (verbose_counter + 1) % 10;
 1805              		.loc 1 533 5 is_stmt 1 view .LVU525
 1806              		.loc 1 533 40 is_stmt 0 view .LVU526
 1807 0164 3F48     		ldr	r0, .L112+32
 1808 0166 0278     		ldrb	r2, [r0]	@ zero_extendqisi2
 1809 0168 0132     		adds	r2, r2, #1
 1810              		.loc 1 533 45 view .LVU527
 1811 016a 414B     		ldr	r3, .L112+44
 1812 016c 83FB0214 		smull	r1, r4, r3, r2
 1813              	.LVL140:
 1814              		.loc 1 533 45 view .LVU528
 1815 0170 04F0FC01 		and	r1, r4, #252
 1816 0174 01EBA401 		add	r1, r1, r4, asr #2
 1817 0178 A2EB4102 		sub	r2, r2, r1, lsl #1
 1818              		.loc 1 533 21 view .LVU529
 1819 017c 0270     		strb	r2, [r0]
 534:src/can_bus.c **** 
 535:src/can_bus.c ****     // Print motor status every 5 cycles (500ms) if motors are active
 536:src/can_bus.c ****     motor_status_counter = (motor_status_counter + 1) % 5;
 1820              		.loc 1 536 5 is_stmt 1 view .LVU530
 1821              		.loc 1 536 50 is_stmt 0 view .LVU531
 1822 017e 3D49     		ldr	r1, .L112+48
 1823 0180 0A78     		ldrb	r2, [r1]	@ zero_extendqisi2
 1824 0182 0132     		adds	r2, r2, #1
 1825              		.loc 1 536 55 view .LVU532
 1826 0184 83FB0203 		smull	r0, r3, r3, r2
 1827 0188 5B10     		asrs	r3, r3, #1
 1828 018a 03EB8303 		add	r3, r3, r3, lsl #2
 1829 018e D31A     		subs	r3, r2, r3
 1830              		.loc 1 536 26 view .LVU533
 1831 0190 DBB2     		uxtb	r3, r3
 1832 0192 0B70     		strb	r3, [r1]
 537:src/can_bus.c ****     if (motor_status_counter == 0 && (pwms[0] != 0 || pwms[1] != 0)) {
 1833              		.loc 1 537 5 is_stmt 1 view .LVU534
ARM GAS  /tmp/ccC7I5pD.s 			page 50


 1834              		.loc 1 537 8 is_stmt 0 view .LVU535
 1835 0194 53BB     		cbnz	r3, .L81
 1836              		.loc 1 537 43 discriminator 1 view .LVU536
 1837 0196 384B     		ldr	r3, .L112+52
 1838 0198 1968     		ldr	r1, [r3]
 1839              		.loc 1 537 35 discriminator 1 view .LVU537
 1840 019a 09B9     		cbnz	r1, .L90
 1841              		.loc 1 537 59 discriminator 2 view .LVU538
 1842 019c 5B68     		ldr	r3, [r3, #4]
 1843              		.loc 1 537 52 discriminator 2 view .LVU539
 1844 019e 2BB3     		cbz	r3, .L81
 1845              	.L90:
 1846              	.LBB17:
 538:src/can_bus.c ****         int pct1 = (pwms[0] * 100) / 1000;
 1847              		.loc 1 538 9 is_stmt 1 view .LVU540
 1848              		.loc 1 538 13 is_stmt 0 view .LVU541
 1849 01a0 334B     		ldr	r3, .L112+44
 1850 01a2 83FB0120 		smull	r2, r0, r3, r1
 1851 01a6 CA17     		asrs	r2, r1, #31
 1852 01a8 C2EBA002 		rsb	r2, r2, r0, asr #2
 1853              	.LVL141:
 539:src/can_bus.c ****         int pct2 = (pwms[1] * 100) / 1000;
 1854              		.loc 1 539 9 is_stmt 1 view .LVU542
 1855              		.loc 1 539 25 is_stmt 0 view .LVU543
 1856 01ac 3248     		ldr	r0, .L112+52
 1857 01ae 4468     		ldr	r4, [r0, #4]
 1858              		.loc 1 539 13 view .LVU544
 1859 01b0 83FB0403 		smull	r0, r3, r3, r4
 1860 01b4 E017     		asrs	r0, r4, #31
 1861 01b6 C0EBA300 		rsb	r0, r0, r3, asr #2
 1862              	.LVL142:
 540:src/can_bus.c ****         const char* dir1 = (pwms[0] > 0) ? "FWD" : (pwms[0] < 0) ? "REV" : "---";
 1863              		.loc 1 540 9 is_stmt 1 view .LVU545
 1864              		.loc 1 540 21 is_stmt 0 view .LVU546
 1865 01ba 0029     		cmp	r1, #0
 1866 01bc 37DD     		ble	.L108
 1867              		.loc 1 540 21 discriminator 2 view .LVU547
 1868 01be 2F4B     		ldr	r3, .L112+56
 1869              	.L91:
 1870              	.LVL143:
 541:src/can_bus.c ****         const char* dir2 = (pwms[1] > 0) ? "FWD" : (pwms[1] < 0) ? "REV" : "---";
 1871              		.loc 1 541 9 is_stmt 1 view .LVU548
 1872              		.loc 1 541 21 is_stmt 0 view .LVU549
 1873 01c0 002C     		cmp	r4, #0
 1874 01c2 39DD     		ble	.L109
 1875              		.loc 1 541 21 discriminator 2 view .LVU550
 1876 01c4 2D4F     		ldr	r7, .L112+56
 1877              	.LVL144:
 1878              	.L92:
 542:src/can_bus.c **** 
 543:src/can_bus.c ****         sprintf(msg, "[MOTOR] M1: %3d%% %-3s (%4d) | M2: %3d%% %-3s (%4d) | SPD: L=%d R=%d mm/s\r\n
 1879              		.loc 1 543 9 is_stmt 1 view .LVU551
 1880 01c6 0596     		str	r6, [sp, #20]
 1881 01c8 0495     		str	r5, [sp, #16]
 1882 01ca 0394     		str	r4, [sp, #12]
 1883 01cc 0297     		str	r7, [sp, #8]
 1884 01ce 0028     		cmp	r0, #0
ARM GAS  /tmp/ccC7I5pD.s 			page 51


 1885 01d0 B8BF     		it	lt
 1886 01d2 4042     		rsblt	r0, r0, #0
 1887              	.LVL145:
 1888              		.loc 1 543 9 is_stmt 0 view .LVU552
 1889 01d4 0190     		str	r0, [sp, #4]
 1890 01d6 0091     		str	r1, [sp]
 1891 01d8 002A     		cmp	r2, #0
 1892 01da B8BF     		it	lt
 1893 01dc 5242     		rsblt	r2, r2, #0
 1894              	.LVL146:
 1895              		.loc 1 543 9 view .LVU553
 1896 01de 2849     		ldr	r1, .L112+60
 1897              	.LVL147:
 1898              		.loc 1 543 9 view .LVU554
 1899 01e0 06A8     		add	r0, sp, #24
 1900 01e2 FFF7FEFF 		bl	sprintf
 1901              	.LVL148:
 544:src/can_bus.c ****                 pct1 < 0 ? -pct1 : pct1, dir1, pwms[0],
 545:src/can_bus.c ****                 pct2 < 0 ? -pct2 : pct2, dir2, pwms[1],
 546:src/can_bus.c ****                 (int)speedL, (int)speedR);
 547:src/can_bus.c ****         forceLog(msg);
 1902              		.loc 1 547 9 is_stmt 1 view .LVU555
 1903 01e6 06A8     		add	r0, sp, #24
 1904 01e8 FFF7FEFF 		bl	forceLog
 1905              	.LVL149:
 1906              	.L81:
 1907              		.loc 1 547 9 is_stmt 0 view .LVU556
 1908              	.LBE17:
 548:src/can_bus.c ****     }
 549:src/can_bus.c **** #endif
 550:src/can_bus.c **** }
 1909              		.loc 1 550 1 view .LVU557
 1910 01ec 31B0     		add	sp, sp, #196
 1911              	.LCFI13:
 1912              		.cfi_remember_state
 1913              		.cfi_def_cfa_offset 28
 1914              		@ sp needed
 1915 01ee BDE8F083 		pop	{r4, r5, r6, r7, r8, r9, pc}
 1916              	.LVL150:
 1917              	.L105:
 1918              	.LCFI14:
 1919              		.cfi_restore_state
 484:src/can_bus.c ****                     (int)speedL, (int)speedR);
 1920              		.loc 1 484 13 is_stmt 1 view .LVU558
 1921 01f2 3346     		mov	r3, r6
 1922 01f4 2A46     		mov	r2, r5
 1923 01f6 2349     		ldr	r1, .L112+64
 1924 01f8 06A8     		add	r0, sp, #24
 1925 01fa FFF7FEFF 		bl	sprintf
 1926              	.LVL151:
 486:src/can_bus.c ****         }
 1927              		.loc 1 486 13 view .LVU559
 1928 01fe 06A8     		add	r0, sp, #24
 1929 0200 FFF7FEFF 		bl	forceLog
 1930              	.LVL152:
 1931 0204 61E7     		b	.L86
 1932              	.L106:
ARM GAS  /tmp/ccC7I5pD.s 			page 52


 507:src/can_bus.c ****                     (int)posL, (int)posR);
 1933              		.loc 1 507 13 view .LVU560
 1934 0206 3B46     		mov	r3, r7
 1935 0208 2246     		mov	r2, r4
 1936 020a 1F49     		ldr	r1, .L112+68
 1937 020c 06A8     		add	r0, sp, #24
 1938 020e FFF7FEFF 		bl	sprintf
 1939              	.LVL153:
 509:src/can_bus.c ****         }
 1940              		.loc 1 509 13 view .LVU561
 1941 0212 06A8     		add	r0, sp, #24
 1942 0214 FFF7FEFF 		bl	forceLog
 1943              	.LVL154:
 1944 0218 83E7     		b	.L87
 1945              	.L107:
 526:src/can_bus.c ****                     (int)batVoltage, (int)boardTemp);
 1946              		.loc 1 526 13 view .LVU562
 1947 021a 4B46     		mov	r3, r9
 1948 021c 4246     		mov	r2, r8
 1949 021e 1B49     		ldr	r1, .L112+72
 1950 0220 06A8     		add	r0, sp, #24
 1951 0222 FFF7FEFF 		bl	sprintf
 1952              	.LVL155:
 528:src/can_bus.c ****         }
 1953              		.loc 1 528 13 view .LVU563
 1954 0226 06A8     		add	r0, sp, #24
 1955 0228 FFF7FEFF 		bl	forceLog
 1956              	.LVL156:
 1957 022c 9AE7     		b	.L88
 1958              	.LVL157:
 1959              	.L108:
 1960              	.LBB18:
 540:src/can_bus.c ****         const char* dir2 = (pwms[1] > 0) ? "FWD" : (pwms[1] < 0) ? "REV" : "---";
 1961              		.loc 1 540 21 is_stmt 0 discriminator 1 view .LVU564
 1962 022e 01DB     		blt	.L110
 540:src/can_bus.c ****         const char* dir2 = (pwms[1] > 0) ? "FWD" : (pwms[1] < 0) ? "REV" : "---";
 1963              		.loc 1 540 21 discriminator 4 view .LVU565
 1964 0230 174B     		ldr	r3, .L112+76
 1965 0232 C5E7     		b	.L91
 1966              	.L110:
 540:src/can_bus.c ****         const char* dir2 = (pwms[1] > 0) ? "FWD" : (pwms[1] < 0) ? "REV" : "---";
 1967              		.loc 1 540 21 discriminator 3 view .LVU566
 1968 0234 174B     		ldr	r3, .L112+80
 1969 0236 C3E7     		b	.L91
 1970              	.LVL158:
 1971              	.L109:
 541:src/can_bus.c **** 
 1972              		.loc 1 541 21 discriminator 1 view .LVU567
 1973 0238 01DB     		blt	.L111
 541:src/can_bus.c **** 
 1974              		.loc 1 541 21 discriminator 4 view .LVU568
 1975 023a 154F     		ldr	r7, .L112+76
 1976              	.LVL159:
 541:src/can_bus.c **** 
 1977              		.loc 1 541 21 discriminator 4 view .LVU569
 1978 023c C3E7     		b	.L92
 1979              	.LVL160:
ARM GAS  /tmp/ccC7I5pD.s 			page 53


 1980              	.L111:
 541:src/can_bus.c **** 
 1981              		.loc 1 541 21 discriminator 3 view .LVU570
 1982 023e 154F     		ldr	r7, .L112+80
 1983              	.LVL161:
 541:src/can_bus.c **** 
 1984              		.loc 1 541 21 discriminator 3 view .LVU571
 1985 0240 C1E7     		b	.L92
 1986              	.LVL162:
 1987              	.L102:
 1988              	.LCFI15:
 1989              		.cfi_def_cfa_offset 0
 1990              		.cfi_restore 4
 1991              		.cfi_restore 5
 1992              		.cfi_restore 6
 1993              		.cfi_restore 7
 1994              		.cfi_restore 8
 1995              		.cfi_restore 9
 1996              		.cfi_restore 14
 541:src/can_bus.c **** 
 1997              		.loc 1 541 21 discriminator 3 view .LVU572
 1998 0242 7047     		bx	lr
 1999              	.L113:
 2000              		.align	2
 2001              	.L112:
 2002 0244 00000000 		.word	can_mode_active
 2003 0248 00000000 		.word	HallData
 2004 024c 00E1F505 		.word	100000000
 2005 0250 001F0AFA 		.word	-100000000
 2006 0254 00000000 		.word	electrical_measurements
 2007 0258 0000C842 		.word	1120403456
 2008 025c 00000000 		.word	can_status_speed
 2009 0260 00000000 		.word	can_stats
 2010 0264 00000000 		.word	verbose_counter.1
 2011 0268 00000000 		.word	can_status_pos
 2012 026c 00000000 		.word	can_status_batt
 2013 0270 67666666 		.word	1717986919
 2014 0274 00000000 		.word	motor_status_counter.0
 2015 0278 00000000 		.word	pwms
 2016 027c 08000000 		.word	.LC18
 2017 0280 74000000 		.word	.LC42
 2018 0284 04000000 		.word	.LC39
 2019 0288 28000000 		.word	.LC40
 2020 028c 4C000000 		.word	.LC41
 2021 0290 00000000 		.word	.LC38
 2022 0294 0C000000 		.word	.LC19
 2023              	.LBE18:
 2024              		.cfi_endproc
 2025              	.LFE72:
 2027              		.section	.text.CAN_GetCurrentIDs,"ax",%progbits
 2028              		.align	1
 2029              		.global	CAN_GetCurrentIDs
 2030              		.syntax unified
 2031              		.thumb
 2032              		.thumb_func
 2034              	CAN_GetCurrentIDs:
 2035              	.LVL163:
ARM GAS  /tmp/ccC7I5pD.s 			page 54


 2036              	.LFB73:
 551:src/can_bus.c **** 
 552:src/can_bus.c **** // Get current CAN IDs for display/debugging
 553:src/can_bus.c **** void CAN_GetCurrentIDs(uint32_t *cmd_ids, uint32_t *status_ids) {
 2037              		.loc 1 553 65 is_stmt 1 view -0
 2038              		.cfi_startproc
 2039              		@ args = 0, pretend = 0, frame = 0
 2040              		@ frame_needed = 0, uses_anonymous_args = 0
 2041              		@ link register save eliminated.
 554:src/can_bus.c ****     if (cmd_ids) {
 2042              		.loc 1 554 5 view .LVU574
 2043              		.loc 1 554 8 is_stmt 0 view .LVU575
 2044 0000 58B1     		cbz	r0, .L115
 555:src/can_bus.c ****         cmd_ids[0] = can_cmd_pwm;
 2045              		.loc 1 555 9 is_stmt 1 view .LVU576
 2046              		.loc 1 555 20 is_stmt 0 view .LVU577
 2047 0002 0D4A     		ldr	r2, .L117
 2048 0004 1268     		ldr	r2, [r2]
 2049 0006 0260     		str	r2, [r0]
 556:src/can_bus.c ****         cmd_ids[1] = can_cmd_speed;
 2050              		.loc 1 556 9 is_stmt 1 view .LVU578
 2051              		.loc 1 556 20 is_stmt 0 view .LVU579
 2052 0008 0C4A     		ldr	r2, .L117+4
 2053 000a 1268     		ldr	r2, [r2]
 2054 000c 4260     		str	r2, [r0, #4]
 557:src/can_bus.c ****         cmd_ids[2] = can_cmd_position;
 2055              		.loc 1 557 9 is_stmt 1 view .LVU580
 2056              		.loc 1 557 20 is_stmt 0 view .LVU581
 2057 000e 0C4A     		ldr	r2, .L117+8
 2058 0010 1268     		ldr	r2, [r2]
 2059 0012 8260     		str	r2, [r0, #8]
 558:src/can_bus.c ****         cmd_ids[3] = can_cmd_enable;
 2060              		.loc 1 558 9 is_stmt 1 view .LVU582
 2061              		.loc 1 558 20 is_stmt 0 view .LVU583
 2062 0014 0B4A     		ldr	r2, .L117+12
 2063 0016 1268     		ldr	r2, [r2]
 2064 0018 C260     		str	r2, [r0, #12]
 2065              	.L115:
 559:src/can_bus.c ****     }
 560:src/can_bus.c ****     
 561:src/can_bus.c ****     if (status_ids) {
 2066              		.loc 1 561 5 is_stmt 1 view .LVU584
 2067              		.loc 1 561 8 is_stmt 0 view .LVU585
 2068 001a 59B1     		cbz	r1, .L114
 562:src/can_bus.c ****         status_ids[0] = can_status_speed;
 2069              		.loc 1 562 9 is_stmt 1 view .LVU586
 2070              		.loc 1 562 23 is_stmt 0 view .LVU587
 2071 001c 0A4B     		ldr	r3, .L117+16
 2072 001e 1B68     		ldr	r3, [r3]
 2073 0020 0B60     		str	r3, [r1]
 563:src/can_bus.c ****         status_ids[1] = can_status_pos;
 2074              		.loc 1 563 9 is_stmt 1 view .LVU588
 2075              		.loc 1 563 23 is_stmt 0 view .LVU589
 2076 0022 0A4B     		ldr	r3, .L117+20
 2077 0024 1B68     		ldr	r3, [r3]
 2078 0026 4B60     		str	r3, [r1, #4]
 564:src/can_bus.c ****         status_ids[2] = can_status_batt;
ARM GAS  /tmp/ccC7I5pD.s 			page 55


 2079              		.loc 1 564 9 is_stmt 1 view .LVU590
 2080              		.loc 1 564 23 is_stmt 0 view .LVU591
 2081 0028 094B     		ldr	r3, .L117+24
 2082 002a 1B68     		ldr	r3, [r3]
 2083 002c 8B60     		str	r3, [r1, #8]
 565:src/can_bus.c ****         status_ids[3] = can_status_bootup;
 2084              		.loc 1 565 9 is_stmt 1 view .LVU592
 2085              		.loc 1 565 23 is_stmt 0 view .LVU593
 2086 002e 094B     		ldr	r3, .L117+28
 2087 0030 1B68     		ldr	r3, [r3]
 2088 0032 CB60     		str	r3, [r1, #12]
 2089              	.L114:
 566:src/can_bus.c ****     }
 567:src/can_bus.c **** }
 2090              		.loc 1 567 1 view .LVU594
 2091 0034 7047     		bx	lr
 2092              	.L118:
 2093 0036 00BF     		.align	2
 2094              	.L117:
 2095 0038 00000000 		.word	can_cmd_pwm
 2096 003c 00000000 		.word	can_cmd_speed
 2097 0040 00000000 		.word	can_cmd_position
 2098 0044 00000000 		.word	can_cmd_enable
 2099 0048 00000000 		.word	can_status_speed
 2100 004c 00000000 		.word	can_status_pos
 2101 0050 00000000 		.word	can_status_batt
 2102 0054 00000000 		.word	can_status_bootup
 2103              		.cfi_endproc
 2104              	.LFE73:
 2106              		.section	.rodata.CAN_SendBootAnnouncement.str1.4,"aMS",%progbits,1
 2107              		.align	2
 2108              	.LC43:
 2109 0000 5B43414E 		.ascii	"[CAN BOOT] Board ID:%d ONLINE - FW v1.25\015\012\000"
 2109      20424F4F 
 2109      545D2042 
 2109      6F617264 
 2109      2049443A 
 2110              		.section	.text.CAN_SendBootAnnouncement,"ax",%progbits
 2111              		.align	1
 2112              		.global	CAN_SendBootAnnouncement
 2113              		.syntax unified
 2114              		.thumb
 2115              		.thumb_func
 2117              	CAN_SendBootAnnouncement:
 2118              	.LFB74:
 568:src/can_bus.c **** 
 569:src/can_bus.c **** // Send boot announcement over CAN bus
 570:src/can_bus.c **** void CAN_SendBootAnnouncement(void) {
 2119              		.loc 1 570 37 is_stmt 1 view -0
 2120              		.cfi_startproc
 2121              		@ args = 0, pretend = 0, frame = 120
 2122              		@ frame_needed = 0, uses_anonymous_args = 0
 571:src/can_bus.c **** #ifdef ENABLE_CAN_BUS
 572:src/can_bus.c ****     if (!can_mode_active) {
 2123              		.loc 1 572 5 view .LVU596
 2124              		.loc 1 572 9 is_stmt 0 view .LVU597
 2125 0000 1C4B     		ldr	r3, .L129
ARM GAS  /tmp/ccC7I5pD.s 			page 56


 2126 0002 1B78     		ldrb	r3, [r3]	@ zero_extendqisi2
 2127              		.loc 1 572 8 view .LVU598
 2128 0004 03B9     		cbnz	r3, .L127
 2129 0006 7047     		bx	lr
 2130              	.L127:
 570:src/can_bus.c **** #ifdef ENABLE_CAN_BUS
 2131              		.loc 1 570 37 view .LVU599
 2132 0008 10B5     		push	{r4, lr}
 2133              	.LCFI16:
 2134              		.cfi_def_cfa_offset 8
 2135              		.cfi_offset 4, -8
 2136              		.cfi_offset 14, -4
 2137 000a 9EB0     		sub	sp, sp, #120
 2138              	.LCFI17:
 2139              		.cfi_def_cfa_offset 128
 573:src/can_bus.c ****         return;
 574:src/can_bus.c ****     }
 575:src/can_bus.c ****     
 576:src/can_bus.c ****     char msg[100];
 2140              		.loc 1 576 5 is_stmt 1 view .LVU600
 577:src/can_bus.c ****     
 578:src/can_bus.c ****     CAN_Frame tx_frame;
 2141              		.loc 1 578 5 view .LVU601
 579:src/can_bus.c ****     tx_frame.id = can_status_bootup;
 2142              		.loc 1 579 5 view .LVU602
 2143              		.loc 1 579 17 is_stmt 0 view .LVU603
 2144 000c 1A4B     		ldr	r3, .L129+4
 2145 000e 1B68     		ldr	r3, [r3]
 2146 0010 0193     		str	r3, [sp, #4]
 580:src/can_bus.c ****     tx_frame.extended = false;
 2147              		.loc 1 580 5 is_stmt 1 view .LVU604
 2148              		.loc 1 580 23 is_stmt 0 view .LVU605
 2149 0012 0023     		movs	r3, #0
 2150 0014 8DF81130 		strb	r3, [sp, #17]
 581:src/can_bus.c ****     tx_frame.rtr = false;
 2151              		.loc 1 581 5 is_stmt 1 view .LVU606
 2152              		.loc 1 581 18 is_stmt 0 view .LVU607
 2153 0018 8DF81230 		strb	r3, [sp, #18]
 582:src/can_bus.c ****     tx_frame.dlc = 8;
 2154              		.loc 1 582 5 is_stmt 1 view .LVU608
 2155              		.loc 1 582 18 is_stmt 0 view .LVU609
 2156 001c 0822     		movs	r2, #8
 2157 001e 8DF81020 		strb	r2, [sp, #16]
 583:src/can_bus.c ****     
 584:src/can_bus.c ****     // Boot message format:
 585:src/can_bus.c ****     // [0-1]: Board ID (uint16_t)
 586:src/can_bus.c ****     // [2-3]: Reserved for battery voltage (set to 0 at boot)
 587:src/can_bus.c ****     // [4-5]: Reserved for temperature (set to 0 at boot)
 588:src/can_bus.c ****     // [6]: Firmware version major
 589:src/can_bus.c ****     // [7]: Firmware version minor
 590:src/can_bus.c ****     
 591:src/can_bus.c ****     uint16_t board_id = FlashContent.CAN_BoardID;
 2158              		.loc 1 591 5 is_stmt 1 view .LVU610
 2159              		.loc 1 591 14 is_stmt 0 view .LVU611
 2160 0022 164A     		ldr	r2, .L129+8
 2161 0024 948B     		ldrh	r4, [r2, #28]
 2162              	.LVL164:
ARM GAS  /tmp/ccC7I5pD.s 			page 57


 592:src/can_bus.c ****     
 593:src/can_bus.c ****     tx_frame.data[0] = (uint8_t)(board_id & 0xFF);
 2163              		.loc 1 593 5 is_stmt 1 view .LVU612
 2164              		.loc 1 593 22 is_stmt 0 view .LVU613
 2165 0026 8DF80840 		strb	r4, [sp, #8]
 594:src/can_bus.c ****     tx_frame.data[1] = (uint8_t)((board_id >> 8) & 0xFF);
 2166              		.loc 1 594 5 is_stmt 1 view .LVU614
 2167              		.loc 1 594 24 is_stmt 0 view .LVU615
 2168 002a 220A     		lsrs	r2, r4, #8
 2169              		.loc 1 594 22 view .LVU616
 2170 002c 8DF80920 		strb	r2, [sp, #9]
 595:src/can_bus.c ****     tx_frame.data[2] = 0;  // Battery voltage not available at boot
 2171              		.loc 1 595 5 is_stmt 1 view .LVU617
 2172              		.loc 1 595 22 is_stmt 0 view .LVU618
 2173 0030 8DF80A30 		strb	r3, [sp, #10]
 596:src/can_bus.c ****     tx_frame.data[3] = 0;
 2174              		.loc 1 596 5 is_stmt 1 view .LVU619
 2175              		.loc 1 596 22 is_stmt 0 view .LVU620
 2176 0034 8DF80B30 		strb	r3, [sp, #11]
 597:src/can_bus.c ****     tx_frame.data[4] = 0;  // Temperature not available at boot
 2177              		.loc 1 597 5 is_stmt 1 view .LVU621
 2178              		.loc 1 597 22 is_stmt 0 view .LVU622
 2179 0038 8DF80C30 		strb	r3, [sp, #12]
 598:src/can_bus.c ****     tx_frame.data[5] = 0;
 2180              		.loc 1 598 5 is_stmt 1 view .LVU623
 2181              		.loc 1 598 22 is_stmt 0 view .LVU624
 2182 003c 8DF80D30 		strb	r3, [sp, #13]
 599:src/can_bus.c ****     tx_frame.data[6] = 1;  // Firmware version major
 2183              		.loc 1 599 5 is_stmt 1 view .LVU625
 2184              		.loc 1 599 22 is_stmt 0 view .LVU626
 2185 0040 0123     		movs	r3, #1
 2186 0042 8DF80E30 		strb	r3, [sp, #14]
 600:src/can_bus.c ****     tx_frame.data[7] = 25; // Firmware version minor
 2187              		.loc 1 600 5 is_stmt 1 view .LVU627
 2188              		.loc 1 600 22 is_stmt 0 view .LVU628
 2189 0046 1923     		movs	r3, #25
 2190 0048 8DF80F30 		strb	r3, [sp, #15]
 601:src/can_bus.c **** 
 602:src/can_bus.c ****     if (MCP2515_SendFrame(&tx_frame)) {
 2191              		.loc 1 602 5 is_stmt 1 view .LVU629
 2192              		.loc 1 602 9 is_stmt 0 view .LVU630
 2193 004c 01A8     		add	r0, sp, #4
 2194 004e FFF7FEFF 		bl	MCP2515_SendFrame
 2195              	.LVL165:
 2196              		.loc 1 602 8 discriminator 1 view .LVU631
 2197 0052 08B9     		cbnz	r0, .L128
 2198              	.L119:
 603:src/can_bus.c ****         can_stats.tx_total++;
 604:src/can_bus.c ****         sprintf(msg, "[CAN BOOT] Board ID:%d ONLINE - FW v1.25\r\n", board_id);
 605:src/can_bus.c ****         forceLog(msg);
 606:src/can_bus.c ****     }
 607:src/can_bus.c **** #endif
 608:src/can_bus.c **** }
 2199              		.loc 1 608 1 view .LVU632
 2200 0054 1EB0     		add	sp, sp, #120
 2201              	.LCFI18:
 2202              		.cfi_remember_state
ARM GAS  /tmp/ccC7I5pD.s 			page 58


 2203              		.cfi_def_cfa_offset 8
 2204              		@ sp needed
 2205 0056 10BD     		pop	{r4, pc}
 2206              	.LVL166:
 2207              	.L128:
 2208              	.LCFI19:
 2209              		.cfi_restore_state
 603:src/can_bus.c ****         can_stats.tx_total++;
 2210              		.loc 1 603 9 is_stmt 1 view .LVU633
 603:src/can_bus.c ****         can_stats.tx_total++;
 2211              		.loc 1 603 18 is_stmt 0 view .LVU634
 2212 0058 094A     		ldr	r2, .L129+12
 2213 005a 9369     		ldr	r3, [r2, #24]
 603:src/can_bus.c ****         can_stats.tx_total++;
 2214              		.loc 1 603 27 view .LVU635
 2215 005c 0133     		adds	r3, r3, #1
 2216 005e 9361     		str	r3, [r2, #24]
 604:src/can_bus.c ****         forceLog(msg);
 2217              		.loc 1 604 9 is_stmt 1 view .LVU636
 2218 0060 2246     		mov	r2, r4
 2219 0062 0849     		ldr	r1, .L129+16
 2220 0064 05A8     		add	r0, sp, #20
 2221 0066 FFF7FEFF 		bl	sprintf
 2222              	.LVL167:
 605:src/can_bus.c ****     }
 2223              		.loc 1 605 9 view .LVU637
 2224 006a 05A8     		add	r0, sp, #20
 2225 006c FFF7FEFF 		bl	forceLog
 2226              	.LVL168:
 2227 0070 F0E7     		b	.L119
 2228              	.L130:
 2229 0072 00BF     		.align	2
 2230              	.L129:
 2231 0074 00000000 		.word	can_mode_active
 2232 0078 00000000 		.word	can_status_bootup
 2233 007c 00000000 		.word	FlashContent
 2234 0080 00000000 		.word	can_stats
 2235 0084 00000000 		.word	.LC43
 2236              		.cfi_endproc
 2237              	.LFE74:
 2239              		.section	.rodata.CAN_PrintConfiguration.str1.4,"aMS",%progbits,1
 2240              		.align	2
 2241              	.LC44:
 2242 0000 0D0A3D3D 		.ascii	"\015\012=== CAN Configuration ===\015\012\000"
 2242      3D204341 
 2242      4E20436F 
 2242      6E666967 
 2242      75726174 
 2243 001e 0000     		.align	2
 2244              	.LC45:
 2245 0020 426F6172 		.ascii	"Board ID: %d\015\012\000"
 2245      64204944 
 2245      3A202564 
 2245      0D0A00
 2246 002f 00       		.align	2
 2247              	.LC46:
 2248 0030 32353020 		.ascii	"250 kbps\000"
ARM GAS  /tmp/ccC7I5pD.s 			page 59


 2248      6B627073 
 2248      00
 2249 0039 000000   		.align	2
 2250              	.LC47:
 2251 003c 43414E20 		.ascii	"CAN Speed: %s\015\012\000"
 2251      53706565 
 2251      643A2025 
 2251      730D0A00 
 2252              		.align	2
 2253              	.LC48:
 2254 004c 42617365 		.ascii	"Base CMD ID: 0x%03X\015\012\000"
 2254      20434D44 
 2254      2049443A 
 2254      20307825 
 2254      3033580D 
 2255 0062 0000     		.align	2
 2256              	.LC49:
 2257 0064 42617365 		.ascii	"Base STATUS ID: 0x%03X\015\012\000"
 2257      20535441 
 2257      54555320 
 2257      49443A20 
 2257      30782530 
 2258 007d 000000   		.align	2
 2259              	.LC50:
 2260 0080 0D0A436F 		.ascii	"\015\012Command IDs:\015\012\000"
 2260      6D6D616E 
 2260      64204944 
 2260      733A0D0A 
 2260      00
 2261 0091 000000   		.align	2
 2262              	.LC51:
 2263 0094 20205057 		.ascii	"  PWM:      0x%03X\015\012\000"
 2263      4D3A2020 
 2263      20202020 
 2263      30782530 
 2263      33580D0A 
 2264 00a9 000000   		.align	2
 2265              	.LC52:
 2266 00ac 20205370 		.ascii	"  Speed:    0x%03X\015\012\000"
 2266      6565643A 
 2266      20202020 
 2266      30782530 
 2266      33580D0A 
 2267 00c1 000000   		.align	2
 2268              	.LC53:
 2269 00c4 2020506F 		.ascii	"  Position: 0x%03X\015\012\000"
 2269      73697469 
 2269      6F6E3A20 
 2269      30782530 
 2269      33580D0A 
 2270 00d9 000000   		.align	2
 2271              	.LC54:
 2272 00dc 2020456E 		.ascii	"  Enable:   0x%03X\015\012\000"
 2272      61626C65 
 2272      3A202020 
 2272      30782530 
 2272      33580D0A 
ARM GAS  /tmp/ccC7I5pD.s 			page 60


 2273 00f1 000000   		.align	2
 2274              	.LC55:
 2275 00f4 0D0A5374 		.ascii	"\015\012Status IDs:\015\012\000"
 2275      61747573 
 2275      20494473 
 2275      3A0D0A00 
 2276              		.align	2
 2277              	.LC56:
 2278 0104 20204261 		.ascii	"  Battery:  0x%03X\015\012\000"
 2278      74746572 
 2278      793A2020 
 2278      30782530 
 2278      33580D0A 
 2279 0119 000000   		.align	2
 2280              	.LC57:
 2281 011c 2020426F 		.ascii	"  Boot:     0x%03X\015\012\000"
 2281      6F743A20 
 2281      20202020 
 2281      30782530 
 2281      33580D0A 
 2282 0131 000000   		.align	2
 2283              	.LC58:
 2284 0134 3D3D3D3D 		.ascii	"========================\015\012\015\012\000"
 2284      3D3D3D3D 
 2284      3D3D3D3D 
 2284      3D3D3D3D 
 2284      3D3D3D3D 
 2285              		.section	.text.CAN_PrintConfiguration,"ax",%progbits
 2286              		.align	1
 2287              		.global	CAN_PrintConfiguration
 2288              		.syntax unified
 2289              		.thumb
 2290              		.thumb_func
 2292              	CAN_PrintConfiguration:
 2293              	.LFB75:
 609:src/can_bus.c **** 
 610:src/can_bus.c **** // Print current CAN configuration to console
 611:src/can_bus.c **** void CAN_PrintConfiguration(void) {
 2294              		.loc 1 611 35 view -0
 2295              		.cfi_startproc
 2296              		@ args = 0, pretend = 0, frame = 128
 2297              		@ frame_needed = 0, uses_anonymous_args = 0
 2298 0000 70B5     		push	{r4, r5, r6, lr}
 2299              	.LCFI20:
 2300              		.cfi_def_cfa_offset 16
 2301              		.cfi_offset 4, -16
 2302              		.cfi_offset 5, -12
 2303              		.cfi_offset 6, -8
 2304              		.cfi_offset 14, -4
 2305 0002 A0B0     		sub	sp, sp, #128
 2306              	.LCFI21:
 2307              		.cfi_def_cfa_offset 144
 612:src/can_bus.c ****     char msg[128];
 2308              		.loc 1 612 5 view .LVU639
 613:src/can_bus.c ****     
 614:src/can_bus.c ****     sprintf(msg, "\r\n=== CAN Configuration ===\r\n");
 2309              		.loc 1 614 5 view .LVU640
ARM GAS  /tmp/ccC7I5pD.s 			page 61


 2310 0004 6C46     		mov	r4, sp
 2311 0006 A446     		mov	ip, r4
 2312 0008 4B4D     		ldr	r5, .L133
 2313 000a 0FCD     		ldmia	r5!, {r0, r1, r2, r3}
 2314 000c ACE80F00 		stmia	ip!, {r0, r1, r2, r3}
 2315 0010 95E80F00 		ldm	r5, {r0, r1, r2, r3}
 2316 0014 ACE80700 		stmia	ip!, {r0, r1, r2}
 2317 0018 ACF80030 		strh	r3, [ip]	@ movhi
 615:src/can_bus.c ****     forceLog(msg);
 2318              		.loc 1 615 5 view .LVU641
 2319 001c 2046     		mov	r0, r4
 2320 001e FFF7FEFF 		bl	forceLog
 2321              	.LVL169:
 616:src/can_bus.c ****     
 617:src/can_bus.c ****     sprintf(msg, "Board ID: %d\r\n", FlashContent.CAN_BoardID);
 2322              		.loc 1 617 5 view .LVU642
 2323              		.loc 1 617 50 is_stmt 0 view .LVU643
 2324 0022 464D     		ldr	r5, .L133+4
 2325              		.loc 1 617 5 view .LVU644
 2326 0024 AA8B     		ldrh	r2, [r5, #28]
 2327 0026 4649     		ldr	r1, .L133+8
 2328 0028 2046     		mov	r0, r4
 2329 002a FFF7FEFF 		bl	sprintf
 2330              	.LVL170:
 618:src/can_bus.c ****     forceLog(msg);
 2331              		.loc 1 618 5 is_stmt 1 view .LVU645
 2332 002e 2046     		mov	r0, r4
 2333 0030 FFF7FEFF 		bl	forceLog
 2334              	.LVL171:
 619:src/can_bus.c ****     
 620:src/can_bus.c ****     // Print CAN bus speed
 621:src/can_bus.c ****     const char* speed_str;
 2335              		.loc 1 621 5 view .LVU646
 622:src/can_bus.c ****     switch(CAN_SPEED) {
 2336              		.loc 1 622 5 view .LVU647
 623:src/can_bus.c ****         case MCP2515_SPEED_125KBPS: speed_str = "125 kbps"; break;
 624:src/can_bus.c ****         case MCP2515_SPEED_250KBPS: speed_str = "250 kbps"; break;
 2337              		.loc 1 624 37 view .LVU648
 2338              		.loc 1 624 61 view .LVU649
 625:src/can_bus.c ****         case MCP2515_SPEED_500KBPS: speed_str = "500 kbps"; break;
 626:src/can_bus.c ****         case MCP2515_SPEED_1MBPS:   speed_str = "1 Mbps"; break;
 627:src/can_bus.c ****         default: speed_str = "Unknown"; break;
 628:src/can_bus.c ****     }
 629:src/can_bus.c ****     sprintf(msg, "CAN Speed: %s\r\n", speed_str);
 2339              		.loc 1 629 5 view .LVU650
 2340 0034 434A     		ldr	r2, .L133+12
 2341 0036 4449     		ldr	r1, .L133+16
 2342 0038 2046     		mov	r0, r4
 2343 003a FFF7FEFF 		bl	sprintf
 2344              	.LVL172:
 630:src/can_bus.c ****     forceLog(msg);
 2345              		.loc 1 630 5 view .LVU651
 2346 003e 2046     		mov	r0, r4
 2347 0040 FFF7FEFF 		bl	forceLog
 2348              	.LVL173:
 631:src/can_bus.c ****     
 632:src/can_bus.c ****     sprintf(msg, "Base CMD ID: 0x%03X\r\n", (unsigned int)FlashContent.CAN_BaseID_CMD);
ARM GAS  /tmp/ccC7I5pD.s 			page 62


 2349              		.loc 1 632 5 view .LVU652
 2350 0044 EA8B     		ldrh	r2, [r5, #30]
 2351 0046 4149     		ldr	r1, .L133+20
 2352 0048 2046     		mov	r0, r4
 2353 004a FFF7FEFF 		bl	sprintf
 2354              	.LVL174:
 633:src/can_bus.c ****     forceLog(msg);
 2355              		.loc 1 633 5 view .LVU653
 2356 004e 2046     		mov	r0, r4
 2357 0050 FFF7FEFF 		bl	forceLog
 2358              	.LVL175:
 634:src/can_bus.c ****     
 635:src/can_bus.c ****     sprintf(msg, "Base STATUS ID: 0x%03X\r\n", (unsigned int)FlashContent.CAN_BaseID_STATUS);
 2359              		.loc 1 635 5 view .LVU654
 2360 0054 2A8C     		ldrh	r2, [r5, #32]
 2361 0056 3E49     		ldr	r1, .L133+24
 2362 0058 2046     		mov	r0, r4
 2363 005a FFF7FEFF 		bl	sprintf
 2364              	.LVL176:
 636:src/can_bus.c ****     forceLog(msg);
 2365              		.loc 1 636 5 view .LVU655
 2366 005e 2046     		mov	r0, r4
 2367 0060 FFF7FEFF 		bl	forceLog
 2368              	.LVL177:
 637:src/can_bus.c ****     
 638:src/can_bus.c ****     sprintf(msg, "\r\nCommand IDs:\r\n");
 2369              		.loc 1 638 5 view .LVU656
 2370 0064 2546     		mov	r5, r4
 2371 0066 3B4E     		ldr	r6, .L133+28
 2372 0068 0FCE     		ldmia	r6!, {r0, r1, r2, r3}
 2373 006a 0FC5     		stmia	r5!, {r0, r1, r2, r3}
 2374 006c 3368     		ldr	r3, [r6]
 2375 006e 2B70     		strb	r3, [r5]
 639:src/can_bus.c ****     forceLog(msg);
 2376              		.loc 1 639 5 view .LVU657
 2377 0070 2046     		mov	r0, r4
 2378 0072 FFF7FEFF 		bl	forceLog
 2379              	.LVL178:
 640:src/can_bus.c ****     sprintf(msg, "  PWM:      0x%03X\r\n", (unsigned int)can_cmd_pwm);
 2380              		.loc 1 640 5 view .LVU658
 2381 0076 384B     		ldr	r3, .L133+32
 2382 0078 1A68     		ldr	r2, [r3]
 2383 007a 3849     		ldr	r1, .L133+36
 2384 007c 2046     		mov	r0, r4
 2385 007e FFF7FEFF 		bl	sprintf
 2386              	.LVL179:
 641:src/can_bus.c ****     forceLog(msg);
 2387              		.loc 1 641 5 view .LVU659
 2388 0082 2046     		mov	r0, r4
 2389 0084 FFF7FEFF 		bl	forceLog
 2390              	.LVL180:
 642:src/can_bus.c ****     sprintf(msg, "  Speed:    0x%03X\r\n", (unsigned int)can_cmd_speed);
 2391              		.loc 1 642 5 view .LVU660
 2392 0088 354E     		ldr	r6, .L133+40
 2393 008a 364B     		ldr	r3, .L133+44
 2394 008c 1A68     		ldr	r2, [r3]
 2395 008e 3146     		mov	r1, r6
ARM GAS  /tmp/ccC7I5pD.s 			page 63


 2396 0090 2046     		mov	r0, r4
 2397 0092 FFF7FEFF 		bl	sprintf
 2398              	.LVL181:
 643:src/can_bus.c ****     forceLog(msg);
 2399              		.loc 1 643 5 view .LVU661
 2400 0096 2046     		mov	r0, r4
 2401 0098 FFF7FEFF 		bl	forceLog
 2402              	.LVL182:
 644:src/can_bus.c ****     sprintf(msg, "  Position: 0x%03X\r\n", (unsigned int)can_cmd_position);
 2403              		.loc 1 644 5 view .LVU662
 2404 009c 324D     		ldr	r5, .L133+48
 2405 009e 334B     		ldr	r3, .L133+52
 2406 00a0 1A68     		ldr	r2, [r3]
 2407 00a2 2946     		mov	r1, r5
 2408 00a4 2046     		mov	r0, r4
 2409 00a6 FFF7FEFF 		bl	sprintf
 2410              	.LVL183:
 645:src/can_bus.c ****     forceLog(msg);
 2411              		.loc 1 645 5 view .LVU663
 2412 00aa 2046     		mov	r0, r4
 2413 00ac FFF7FEFF 		bl	forceLog
 2414              	.LVL184:
 646:src/can_bus.c ****     sprintf(msg, "  Enable:   0x%03X\r\n", (unsigned int)can_cmd_enable);
 2415              		.loc 1 646 5 view .LVU664
 2416 00b0 2F4B     		ldr	r3, .L133+56
 2417 00b2 1A68     		ldr	r2, [r3]
 2418 00b4 2F49     		ldr	r1, .L133+60
 2419 00b6 2046     		mov	r0, r4
 2420 00b8 FFF7FEFF 		bl	sprintf
 2421              	.LVL185:
 647:src/can_bus.c ****     forceLog(msg);
 2422              		.loc 1 647 5 view .LVU665
 2423 00bc 2046     		mov	r0, r4
 2424 00be FFF7FEFF 		bl	forceLog
 2425              	.LVL186:
 648:src/can_bus.c ****     
 649:src/can_bus.c ****     sprintf(msg, "\r\nStatus IDs:\r\n");
 2426              		.loc 1 649 5 view .LVU666
 2427 00c2 2D4B     		ldr	r3, .L133+64
 2428 00c4 0FCB     		ldm	r3, {r0, r1, r2, r3}
 2429 00c6 84E80F00 		stm	r4, {r0, r1, r2, r3}
 650:src/can_bus.c ****     forceLog(msg);
 2430              		.loc 1 650 5 view .LVU667
 2431 00ca 2046     		mov	r0, r4
 2432 00cc FFF7FEFF 		bl	forceLog
 2433              	.LVL187:
 651:src/can_bus.c ****     sprintf(msg, "  Speed:    0x%03X\r\n", (unsigned int)can_status_speed);
 2434              		.loc 1 651 5 view .LVU668
 2435 00d0 2A4B     		ldr	r3, .L133+68
 2436 00d2 1A68     		ldr	r2, [r3]
 2437 00d4 3146     		mov	r1, r6
 2438 00d6 2046     		mov	r0, r4
 2439 00d8 FFF7FEFF 		bl	sprintf
 2440              	.LVL188:
 652:src/can_bus.c ****     forceLog(msg);
 2441              		.loc 1 652 5 view .LVU669
 2442 00dc 2046     		mov	r0, r4
ARM GAS  /tmp/ccC7I5pD.s 			page 64


 2443 00de FFF7FEFF 		bl	forceLog
 2444              	.LVL189:
 653:src/can_bus.c ****     sprintf(msg, "  Position: 0x%03X\r\n", (unsigned int)can_status_pos);
 2445              		.loc 1 653 5 view .LVU670
 2446 00e2 274B     		ldr	r3, .L133+72
 2447 00e4 1A68     		ldr	r2, [r3]
 2448 00e6 2946     		mov	r1, r5
 2449 00e8 2046     		mov	r0, r4
 2450 00ea FFF7FEFF 		bl	sprintf
 2451              	.LVL190:
 654:src/can_bus.c ****     forceLog(msg);
 2452              		.loc 1 654 5 view .LVU671
 2453 00ee 2046     		mov	r0, r4
 2454 00f0 FFF7FEFF 		bl	forceLog
 2455              	.LVL191:
 655:src/can_bus.c ****     sprintf(msg, "  Battery:  0x%03X\r\n", (unsigned int)can_status_batt);
 2456              		.loc 1 655 5 view .LVU672
 2457 00f4 234B     		ldr	r3, .L133+76
 2458 00f6 1A68     		ldr	r2, [r3]
 2459 00f8 2349     		ldr	r1, .L133+80
 2460 00fa 2046     		mov	r0, r4
 2461 00fc FFF7FEFF 		bl	sprintf
 2462              	.LVL192:
 656:src/can_bus.c ****     forceLog(msg);
 2463              		.loc 1 656 5 view .LVU673
 2464 0100 2046     		mov	r0, r4
 2465 0102 FFF7FEFF 		bl	forceLog
 2466              	.LVL193:
 657:src/can_bus.c ****     sprintf(msg, "  Boot:     0x%03X\r\n", (unsigned int)can_status_bootup);
 2467              		.loc 1 657 5 view .LVU674
 2468 0106 214B     		ldr	r3, .L133+84
 2469 0108 1A68     		ldr	r2, [r3]
 2470 010a 2149     		ldr	r1, .L133+88
 2471 010c 2046     		mov	r0, r4
 2472 010e FFF7FEFF 		bl	sprintf
 2473              	.LVL194:
 658:src/can_bus.c ****     forceLog(msg);
 2474              		.loc 1 658 5 view .LVU675
 2475 0112 2046     		mov	r0, r4
 2476 0114 FFF7FEFF 		bl	forceLog
 2477              	.LVL195:
 659:src/can_bus.c ****     
 660:src/can_bus.c ****     sprintf(msg, "========================\r\n\r\n");
 2478              		.loc 1 660 5 view .LVU676
 2479 0118 A446     		mov	ip, r4
 2480 011a 1E4D     		ldr	r5, .L133+92
 2481 011c 0FCD     		ldmia	r5!, {r0, r1, r2, r3}
 2482 011e ACE80F00 		stmia	ip!, {r0, r1, r2, r3}
 2483 0122 95E80F00 		ldm	r5, {r0, r1, r2, r3}
 2484 0126 ACE80700 		stmia	ip!, {r0, r1, r2}
 2485 012a 8CF80030 		strb	r3, [ip]
 661:src/can_bus.c ****     forceLog(msg);
 2486              		.loc 1 661 5 view .LVU677
 2487 012e 2046     		mov	r0, r4
 2488 0130 FFF7FEFF 		bl	forceLog
 2489              	.LVL196:
 662:src/can_bus.c **** }
ARM GAS  /tmp/ccC7I5pD.s 			page 65


 2490              		.loc 1 662 1 is_stmt 0 view .LVU678
 2491 0134 20B0     		add	sp, sp, #128
 2492              	.LCFI22:
 2493              		.cfi_def_cfa_offset 16
 2494              		@ sp needed
 2495 0136 70BD     		pop	{r4, r5, r6, pc}
 2496              	.L134:
 2497              		.align	2
 2498              	.L133:
 2499 0138 00000000 		.word	.LC44
 2500 013c 00000000 		.word	FlashContent
 2501 0140 20000000 		.word	.LC45
 2502 0144 30000000 		.word	.LC46
 2503 0148 3C000000 		.word	.LC47
 2504 014c 4C000000 		.word	.LC48
 2505 0150 64000000 		.word	.LC49
 2506 0154 80000000 		.word	.LC50
 2507 0158 00000000 		.word	can_cmd_pwm
 2508 015c 94000000 		.word	.LC51
 2509 0160 AC000000 		.word	.LC52
 2510 0164 00000000 		.word	can_cmd_speed
 2511 0168 C4000000 		.word	.LC53
 2512 016c 00000000 		.word	can_cmd_position
 2513 0170 00000000 		.word	can_cmd_enable
 2514 0174 DC000000 		.word	.LC54
 2515 0178 F4000000 		.word	.LC55
 2516 017c 00000000 		.word	can_status_speed
 2517 0180 00000000 		.word	can_status_pos
 2518 0184 00000000 		.word	can_status_batt
 2519 0188 04010000 		.word	.LC56
 2520 018c 00000000 		.word	can_status_bootup
 2521 0190 1C010000 		.word	.LC57
 2522 0194 34010000 		.word	.LC58
 2523              		.cfi_endproc
 2524              	.LFE75:
 2526              		.section	.rodata.CAN_PrintStatistics.str1.4,"aMS",%progbits,1
 2527              		.align	2
 2528              	.LC59:
 2529 0000 4F4B00   		.ascii	"OK\000"
 2530 0003 00       		.align	2
 2531              	.LC60:
 2532 0004 4D49534D 		.ascii	"MISMATCH!\000"
 2532      41544348 
 2532      2100
 2533 000e 0000     		.align	2
 2534              	.LC61:
 2535 0010 0D0A3D3D 		.ascii	"\015\012=== CAN Statistics ===\015\012\000"
 2535      3D204341 
 2535      4E205374 
 2535      61746973 
 2535      74696373 
 2536 002b 00       		.align	2
 2537              	.LC62:
 2538 002c 52582054 		.ascii	"RX Total:     %lu\015\012\000"
 2538      6F74616C 
 2538      3A202020 
 2538      2020256C 
ARM GAS  /tmp/ccC7I5pD.s 			page 66


 2538      750D0A00 
 2539              		.align	2
 2540              	.LC63:
 2541 0040 20205057 		.ascii	"  PWM:        %lu\015\012\000"
 2541      4D3A2020 
 2541      20202020 
 2541      2020256C 
 2541      750D0A00 
 2542              		.align	2
 2543              	.LC64:
 2544 0054 20205370 		.ascii	"  Speed:      %lu\015\012\000"
 2544      6565643A 
 2544      20202020 
 2544      2020256C 
 2544      750D0A00 
 2545              		.align	2
 2546              	.LC65:
 2547 0068 2020506F 		.ascii	"  Position:   %lu\015\012\000"
 2547      73697469 
 2547      6F6E3A20 
 2547      2020256C 
 2547      750D0A00 
 2548              		.align	2
 2549              	.LC66:
 2550 007c 2020456E 		.ascii	"  Enable:     %lu\015\012\000"
 2550      61626C65 
 2550      3A202020 
 2550      2020256C 
 2550      750D0A00 
 2551              		.align	2
 2552              	.LC67:
 2553 0090 2020556E 		.ascii	"  Unknown:    %lu\015\012\000"
 2553      6B6E6F77 
 2553      6E3A2020 
 2553      2020256C 
 2553      750D0A00 
 2554              		.align	2
 2555              	.LC68:
 2556 00a4 0D0A5458 		.ascii	"\015\012TX Total:     %lu\015\012\000"
 2556      20546F74 
 2556      616C3A20 
 2556      20202020 
 2556      256C750D 
 2557 00ba 0000     		.align	2
 2558              	.LC69:
 2559 00bc 20204261 		.ascii	"  Battery:    %lu\015\012\000"
 2559      74746572 
 2559      793A2020 
 2559      2020256C 
 2559      750D0A00 
 2560              		.align	2
 2561              	.LC70:
 2562 00d0 0D0A4572 		.ascii	"\015\012Errors:       %lu\015\012\000"
 2562      726F7273 
 2562      3A202020 
 2562      20202020 
 2562      256C750D 
ARM GAS  /tmp/ccC7I5pD.s 			page 67


 2563 00e6 0000     		.align	2
 2564              	.LC71:
 2565 00e8 4C617374 		.ascii	"Last Error Flags: 0x%02lX\015\012\000"
 2565      20457272 
 2565      6F722046 
 2565      6C616773 
 2565      3A203078 
 2566              		.align	2
 2567              	.LC72:
 2568 0104 53504920 		.ascii	"SPI Check: CNF1=0x%02X CNF2=0x%02X CNF3=0x%02X %s\015"
 2568      43686563 
 2568      6B3A2043 
 2568      4E46313D 
 2568      30782530 
 2569 0136 0A00     		.ascii	"\012\000"
 2570              		.align	2
 2571              	.LC73:
 2572 0138 3D3D3D3D 		.ascii	"======================\015\012\000"
 2572      3D3D3D3D 
 2572      3D3D3D3D 
 2572      3D3D3D3D 
 2572      3D3D3D3D 
 2573              		.section	.text.CAN_PrintStatistics,"ax",%progbits
 2574              		.align	1
 2575              		.global	CAN_PrintStatistics
 2576              		.syntax unified
 2577              		.thumb
 2578              		.thumb_func
 2580              	CAN_PrintStatistics:
 2581              	.LFB76:
 663:src/can_bus.c **** 
 664:src/can_bus.c **** // Print CAN statistics and diagnostics
 665:src/can_bus.c **** void CAN_PrintStatistics(void) {
 2582              		.loc 1 665 32 is_stmt 1 view -0
 2583              		.cfi_startproc
 2584              		@ args = 0, pretend = 0, frame = 128
 2585              		@ frame_needed = 0, uses_anonymous_args = 0
 2586 0000 70B5     		push	{r4, r5, r6, lr}
 2587              	.LCFI23:
 2588              		.cfi_def_cfa_offset 16
 2589              		.cfi_offset 4, -16
 2590              		.cfi_offset 5, -12
 2591              		.cfi_offset 6, -8
 2592              		.cfi_offset 14, -4
 2593 0002 A2B0     		sub	sp, sp, #136
 2594              	.LCFI24:
 2595              		.cfi_def_cfa_offset 152
 666:src/can_bus.c ****     char msg[128];
 2596              		.loc 1 666 5 view .LVU680
 667:src/can_bus.c ****     
 668:src/can_bus.c ****     sprintf(msg, "\r\n=== CAN Statistics ===\r\n");
 2597              		.loc 1 668 5 view .LVU681
 2598 0004 0DF1080C 		add	ip, sp, #8
 2599 0008 514C     		ldr	r4, .L144
 2600 000a 0FCC     		ldmia	r4!, {r0, r1, r2, r3}
 2601 000c ACE80F00 		stmia	ip!, {r0, r1, r2, r3}
 2602 0010 94E80700 		ldm	r4, {r0, r1, r2}
ARM GAS  /tmp/ccC7I5pD.s 			page 68


 2603 0014 ACE80300 		stmia	ip!, {r0, r1}
 2604 0018 2CF8022B 		strh	r2, [ip], #2	@ movhi
 2605 001c 120C     		lsrs	r2, r2, #16
 2606 001e 8CF80020 		strb	r2, [ip]
 669:src/can_bus.c ****     forceLog(msg);
 2607              		.loc 1 669 5 view .LVU682
 2608 0022 02A8     		add	r0, sp, #8
 2609 0024 FFF7FEFF 		bl	forceLog
 2610              	.LVL197:
 670:src/can_bus.c ****     
 671:src/can_bus.c ****     sprintf(msg, "RX Total:     %lu\r\n", can_stats.rx_total);
 2611              		.loc 1 671 5 view .LVU683
 2612 0028 4A4C     		ldr	r4, .L144+4
 2613 002a 2268     		ldr	r2, [r4]
 2614 002c 4A49     		ldr	r1, .L144+8
 2615 002e 02A8     		add	r0, sp, #8
 2616 0030 FFF7FEFF 		bl	sprintf
 2617              	.LVL198:
 672:src/can_bus.c ****     forceLog(msg);
 2618              		.loc 1 672 5 view .LVU684
 2619 0034 02A8     		add	r0, sp, #8
 2620 0036 FFF7FEFF 		bl	forceLog
 2621              	.LVL199:
 673:src/can_bus.c ****     sprintf(msg, "  PWM:        %lu\r\n", can_stats.rx_pwm);
 2622              		.loc 1 673 5 view .LVU685
 2623 003a 6268     		ldr	r2, [r4, #4]
 2624 003c 4749     		ldr	r1, .L144+12
 2625 003e 02A8     		add	r0, sp, #8
 2626 0040 FFF7FEFF 		bl	sprintf
 2627              	.LVL200:
 674:src/can_bus.c ****     forceLog(msg);
 2628              		.loc 1 674 5 view .LVU686
 2629 0044 02A8     		add	r0, sp, #8
 2630 0046 FFF7FEFF 		bl	forceLog
 2631              	.LVL201:
 675:src/can_bus.c ****     sprintf(msg, "  Speed:      %lu\r\n", can_stats.rx_speed);
 2632              		.loc 1 675 5 view .LVU687
 2633 004a 454E     		ldr	r6, .L144+16
 2634 004c A268     		ldr	r2, [r4, #8]
 2635 004e 3146     		mov	r1, r6
 2636 0050 02A8     		add	r0, sp, #8
 2637 0052 FFF7FEFF 		bl	sprintf
 2638              	.LVL202:
 676:src/can_bus.c ****     forceLog(msg);
 2639              		.loc 1 676 5 view .LVU688
 2640 0056 02A8     		add	r0, sp, #8
 2641 0058 FFF7FEFF 		bl	forceLog
 2642              	.LVL203:
 677:src/can_bus.c ****     sprintf(msg, "  Position:   %lu\r\n", can_stats.rx_position);
 2643              		.loc 1 677 5 view .LVU689
 2644 005c 414D     		ldr	r5, .L144+20
 2645 005e E268     		ldr	r2, [r4, #12]
 2646 0060 2946     		mov	r1, r5
 2647 0062 02A8     		add	r0, sp, #8
 2648 0064 FFF7FEFF 		bl	sprintf
 2649              	.LVL204:
 678:src/can_bus.c ****     forceLog(msg);
ARM GAS  /tmp/ccC7I5pD.s 			page 69


 2650              		.loc 1 678 5 view .LVU690
 2651 0068 02A8     		add	r0, sp, #8
 2652 006a FFF7FEFF 		bl	forceLog
 2653              	.LVL205:
 679:src/can_bus.c ****     sprintf(msg, "  Enable:     %lu\r\n", can_stats.rx_enable);
 2654              		.loc 1 679 5 view .LVU691
 2655 006e 2269     		ldr	r2, [r4, #16]
 2656 0070 3D49     		ldr	r1, .L144+24
 2657 0072 02A8     		add	r0, sp, #8
 2658 0074 FFF7FEFF 		bl	sprintf
 2659              	.LVL206:
 680:src/can_bus.c ****     forceLog(msg);
 2660              		.loc 1 680 5 view .LVU692
 2661 0078 02A8     		add	r0, sp, #8
 2662 007a FFF7FEFF 		bl	forceLog
 2663              	.LVL207:
 681:src/can_bus.c ****     sprintf(msg, "  Unknown:    %lu\r\n", can_stats.rx_unknown);
 2664              		.loc 1 681 5 view .LVU693
 2665 007e 6269     		ldr	r2, [r4, #20]
 2666 0080 3A49     		ldr	r1, .L144+28
 2667 0082 02A8     		add	r0, sp, #8
 2668 0084 FFF7FEFF 		bl	sprintf
 2669              	.LVL208:
 682:src/can_bus.c ****     forceLog(msg);
 2670              		.loc 1 682 5 view .LVU694
 2671 0088 02A8     		add	r0, sp, #8
 2672 008a FFF7FEFF 		bl	forceLog
 2673              	.LVL209:
 683:src/can_bus.c ****     
 684:src/can_bus.c ****     sprintf(msg, "\r\nTX Total:     %lu\r\n", can_stats.tx_total);
 2674              		.loc 1 684 5 view .LVU695
 2675 008e A269     		ldr	r2, [r4, #24]
 2676 0090 3749     		ldr	r1, .L144+32
 2677 0092 02A8     		add	r0, sp, #8
 2678 0094 FFF7FEFF 		bl	sprintf
 2679              	.LVL210:
 685:src/can_bus.c ****     forceLog(msg);
 2680              		.loc 1 685 5 view .LVU696
 2681 0098 02A8     		add	r0, sp, #8
 2682 009a FFF7FEFF 		bl	forceLog
 2683              	.LVL211:
 686:src/can_bus.c ****     sprintf(msg, "  Speed:      %lu\r\n", can_stats.tx_status_speed);
 2684              		.loc 1 686 5 view .LVU697
 2685 009e E269     		ldr	r2, [r4, #28]
 2686 00a0 3146     		mov	r1, r6
 2687 00a2 02A8     		add	r0, sp, #8
 2688 00a4 FFF7FEFF 		bl	sprintf
 2689              	.LVL212:
 687:src/can_bus.c ****     forceLog(msg);
 2690              		.loc 1 687 5 view .LVU698
 2691 00a8 02A8     		add	r0, sp, #8
 2692 00aa FFF7FEFF 		bl	forceLog
 2693              	.LVL213:
 688:src/can_bus.c ****     sprintf(msg, "  Position:   %lu\r\n", can_stats.tx_status_pos);
 2694              		.loc 1 688 5 view .LVU699
 2695 00ae 226A     		ldr	r2, [r4, #32]
 2696 00b0 2946     		mov	r1, r5
ARM GAS  /tmp/ccC7I5pD.s 			page 70


 2697 00b2 02A8     		add	r0, sp, #8
 2698 00b4 FFF7FEFF 		bl	sprintf
 2699              	.LVL214:
 689:src/can_bus.c ****     forceLog(msg);
 2700              		.loc 1 689 5 view .LVU700
 2701 00b8 02A8     		add	r0, sp, #8
 2702 00ba FFF7FEFF 		bl	forceLog
 2703              	.LVL215:
 690:src/can_bus.c ****     sprintf(msg, "  Battery:    %lu\r\n", can_stats.tx_status_batt);
 2704              		.loc 1 690 5 view .LVU701
 2705 00be 626A     		ldr	r2, [r4, #36]
 2706 00c0 2C49     		ldr	r1, .L144+36
 2707 00c2 02A8     		add	r0, sp, #8
 2708 00c4 FFF7FEFF 		bl	sprintf
 2709              	.LVL216:
 691:src/can_bus.c ****     forceLog(msg);
 2710              		.loc 1 691 5 view .LVU702
 2711 00c8 02A8     		add	r0, sp, #8
 2712 00ca FFF7FEFF 		bl	forceLog
 2713              	.LVL217:
 692:src/can_bus.c ****     
 693:src/can_bus.c ****     sprintf(msg, "\r\nErrors:       %lu\r\n", can_stats.errors);
 2714              		.loc 1 693 5 view .LVU703
 2715 00ce A26A     		ldr	r2, [r4, #40]
 2716 00d0 2949     		ldr	r1, .L144+40
 2717 00d2 02A8     		add	r0, sp, #8
 2718 00d4 FFF7FEFF 		bl	sprintf
 2719              	.LVL218:
 694:src/can_bus.c ****     forceLog(msg);
 2720              		.loc 1 694 5 view .LVU704
 2721 00d8 02A8     		add	r0, sp, #8
 2722 00da FFF7FEFF 		bl	forceLog
 2723              	.LVL219:
 695:src/can_bus.c ****     
 696:src/can_bus.c ****     if (can_stats.last_error_flags) {
 2724              		.loc 1 696 5 view .LVU705
 2725              		.loc 1 696 18 is_stmt 0 view .LVU706
 2726 00de E26A     		ldr	r2, [r4, #44]
 2727              		.loc 1 696 8 view .LVU707
 2728 00e0 7AB9     		cbnz	r2, .L142
 2729              	.L136:
 697:src/can_bus.c ****         sprintf(msg, "Last Error Flags: 0x%02lX\r\n", (unsigned long)can_stats.last_error_flags);
 698:src/can_bus.c ****         forceLog(msg);
 699:src/can_bus.c ****     }
 700:src/can_bus.c **** 
 701:src/can_bus.c ****     // Verify SPI is still working by reading CNF registers
 702:src/can_bus.c ****     uint8_t cnf1 = MCP2515_ReadRegister(MCP2515_CNF1);
 2730              		.loc 1 702 5 is_stmt 1 view .LVU708
 2731              		.loc 1 702 20 is_stmt 0 view .LVU709
 2732 00e2 2A20     		movs	r0, #42
 2733 00e4 FFF7FEFF 		bl	MCP2515_ReadRegister
 2734              	.LVL220:
 2735 00e8 0446     		mov	r4, r0
 2736              	.LVL221:
 703:src/can_bus.c ****     uint8_t cnf2 = MCP2515_ReadRegister(MCP2515_CNF2);
 2737              		.loc 1 703 5 is_stmt 1 view .LVU710
 2738              		.loc 1 703 20 is_stmt 0 view .LVU711
ARM GAS  /tmp/ccC7I5pD.s 			page 71


 2739 00ea 2920     		movs	r0, #41
 2740 00ec FFF7FEFF 		bl	MCP2515_ReadRegister
 2741              	.LVL222:
 2742 00f0 0546     		mov	r5, r0
 2743              	.LVL223:
 704:src/can_bus.c ****     uint8_t cnf3 = MCP2515_ReadRegister(MCP2515_CNF3);
 2744              		.loc 1 704 5 is_stmt 1 view .LVU712
 2745              		.loc 1 704 20 is_stmt 0 view .LVU713
 2746 00f2 2820     		movs	r0, #40
 2747 00f4 FFF7FEFF 		bl	MCP2515_ReadRegister
 2748              	.LVL224:
 705:src/can_bus.c ****     // Expected CNF values depend on CAN_SPEED (8MHz crystal).
 706:src/can_bus.c ****     // Old check hardcoded 500kbps values (0x00,0x90,0x82) — always
 707:src/can_bus.c ****     // reported MISMATCH when deployed at 250kbps.
 708:src/can_bus.c ****     uint8_t exp1, exp2, exp3;
 2749              		.loc 1 708 5 is_stmt 1 view .LVU714
 709:src/can_bus.c ****     switch (CAN_SPEED) {
 2750              		.loc 1 709 5 view .LVU715
 710:src/can_bus.c ****         case MCP2515_SPEED_125KBPS: exp1=0x01; exp2=0x9E; exp3=0x03; break;
 711:src/can_bus.c ****         case MCP2515_SPEED_250KBPS: exp1=0x00; exp2=0x9E; exp3=0x03; break;
 2751              		.loc 1 711 37 view .LVU716
 2752              		.loc 1 711 48 view .LVU717
 2753              		.loc 1 711 59 view .LVU718
 2754              		.loc 1 711 70 view .LVU719
 712:src/can_bus.c ****         case MCP2515_SPEED_500KBPS: exp1=0x00; exp2=0x90; exp3=0x02; break;
 713:src/can_bus.c ****         case MCP2515_SPEED_1MBPS:   exp1=0x00; exp2=0x80; exp3=0x00; break;
 714:src/can_bus.c ****         default:                    exp1=0xFF; exp2=0xFF; exp3=0xFF; break;
 715:src/can_bus.c ****     }
 716:src/can_bus.c ****     const char *cnf_ok = (cnf1==exp1 && cnf2==exp2 && cnf3==exp3) ? "OK" : "MISMATCH!";
 2755              		.loc 1 716 5 view .LVU720
 2756              		.loc 1 716 74 is_stmt 0 view .LVU721
 2757 00f8 7CB9     		cbnz	r4, .L138
 2758              		.loc 1 716 38 discriminator 1 view .LVU722
 2759 00fa 9E2D     		cmp	r5, #158
 2760 00fc 09D0     		beq	.L143
 2761              		.loc 1 716 74 discriminator 6 view .LVU723
 2762 00fe 1F4B     		ldr	r3, .L144+44
 2763 0100 0CE0     		b	.L137
 2764              	.LVL225:
 2765              	.L142:
 697:src/can_bus.c ****         forceLog(msg);
 2766              		.loc 1 697 9 is_stmt 1 view .LVU724
 2767 0102 1F49     		ldr	r1, .L144+48
 2768 0104 02A8     		add	r0, sp, #8
 2769 0106 FFF7FEFF 		bl	sprintf
 2770              	.LVL226:
 698:src/can_bus.c ****     }
 2771              		.loc 1 698 9 view .LVU725
 2772 010a 02A8     		add	r0, sp, #8
 2773 010c FFF7FEFF 		bl	forceLog
 2774              	.LVL227:
 2775 0110 E7E7     		b	.L136
 2776              	.LVL228:
 2777              	.L143:
 2778              		.loc 1 716 52 is_stmt 0 discriminator 3 view .LVU726
 2779 0112 0328     		cmp	r0, #3
 2780 0114 1AD0     		beq	.L140
ARM GAS  /tmp/ccC7I5pD.s 			page 72


 2781              		.loc 1 716 74 discriminator 6 view .LVU727
 2782 0116 194B     		ldr	r3, .L144+44
 2783 0118 00E0     		b	.L137
 2784              	.L138:
 2785 011a 184B     		ldr	r3, .L144+44
 2786              	.L137:
 2787              	.LVL229:
 717:src/can_bus.c ****     sprintf(msg, "SPI Check: CNF1=0x%02X CNF2=0x%02X CNF3=0x%02X %s\r\n",
 2788              		.loc 1 717 5 is_stmt 1 view .LVU728
 2789 011c 0193     		str	r3, [sp, #4]
 2790 011e 0090     		str	r0, [sp]
 2791 0120 2B46     		mov	r3, r5
 2792              	.LVL230:
 2793              		.loc 1 717 5 is_stmt 0 view .LVU729
 2794 0122 2246     		mov	r2, r4
 2795 0124 1749     		ldr	r1, .L144+52
 2796 0126 02A8     		add	r0, sp, #8
 2797              	.LVL231:
 2798              		.loc 1 717 5 view .LVU730
 2799 0128 FFF7FEFF 		bl	sprintf
 2800              	.LVL232:
 718:src/can_bus.c ****             cnf1, cnf2, cnf3, cnf_ok);
 719:src/can_bus.c ****     forceLog(msg);
 2801              		.loc 1 719 5 is_stmt 1 view .LVU731
 2802 012c 02A8     		add	r0, sp, #8
 2803 012e FFF7FEFF 		bl	forceLog
 2804              	.LVL233:
 720:src/can_bus.c **** 
 721:src/can_bus.c ****     sprintf(msg, "======================\r\n");
 2805              		.loc 1 721 5 view .LVU732
 2806 0132 02AC     		add	r4, sp, #8
 2807              	.LVL234:
 2808              		.loc 1 721 5 is_stmt 0 view .LVU733
 2809 0134 144D     		ldr	r5, .L144+56
 2810              	.LVL235:
 2811              		.loc 1 721 5 view .LVU734
 2812 0136 0FCD     		ldmia	r5!, {r0, r1, r2, r3}
 2813 0138 0FC4     		stmia	r4!, {r0, r1, r2, r3}
 2814 013a 95E80700 		ldm	r5, {r0, r1, r2}
 2815 013e 03C4     		stmia	r4!, {r0, r1}
 2816 0140 2270     		strb	r2, [r4]
 722:src/can_bus.c ****     forceLog(msg);
 2817              		.loc 1 722 5 is_stmt 1 view .LVU735
 2818 0142 02A8     		add	r0, sp, #8
 2819 0144 FFF7FEFF 		bl	forceLog
 2820              	.LVL236:
 723:src/can_bus.c **** }
 2821              		.loc 1 723 1 is_stmt 0 view .LVU736
 2822 0148 22B0     		add	sp, sp, #136
 2823              	.LCFI25:
 2824              		.cfi_remember_state
 2825              		.cfi_def_cfa_offset 16
 2826              		@ sp needed
 2827 014a 70BD     		pop	{r4, r5, r6, pc}
 2828              	.LVL237:
 2829              	.L140:
 2830              	.LCFI26:
ARM GAS  /tmp/ccC7I5pD.s 			page 73


 2831              		.cfi_restore_state
 716:src/can_bus.c ****     sprintf(msg, "SPI Check: CNF1=0x%02X CNF2=0x%02X CNF3=0x%02X %s\r\n",
 2832              		.loc 1 716 74 discriminator 5 view .LVU737
 2833 014c 0F4B     		ldr	r3, .L144+60
 2834 014e E5E7     		b	.L137
 2835              	.L145:
 2836              		.align	2
 2837              	.L144:
 2838 0150 10000000 		.word	.LC61
 2839 0154 00000000 		.word	can_stats
 2840 0158 2C000000 		.word	.LC62
 2841 015c 40000000 		.word	.LC63
 2842 0160 54000000 		.word	.LC64
 2843 0164 68000000 		.word	.LC65
 2844 0168 7C000000 		.word	.LC66
 2845 016c 90000000 		.word	.LC67
 2846 0170 A4000000 		.word	.LC68
 2847 0174 BC000000 		.word	.LC69
 2848 0178 D0000000 		.word	.LC70
 2849 017c 04000000 		.word	.LC60
 2850 0180 E8000000 		.word	.LC71
 2851 0184 04010000 		.word	.LC72
 2852 0188 38010000 		.word	.LC73
 2853 018c 00000000 		.word	.LC59
 2854              		.cfi_endproc
 2855              	.LFE76:
 2857              		.section	.rodata.CAN_ResetStatistics.str1.4,"aMS",%progbits,1
 2858              		.align	2
 2859              	.LC74:
 2860 0000 43414E20 		.ascii	"CAN statistics reset\015\012\000"
 2860      73746174 
 2860      69737469 
 2860      63732072 
 2860      65736574 
 2861              		.section	.text.CAN_ResetStatistics,"ax",%progbits
 2862              		.align	1
 2863              		.global	CAN_ResetStatistics
 2864              		.syntax unified
 2865              		.thumb
 2866              		.thumb_func
 2868              	CAN_ResetStatistics:
 2869              	.LFB77:
 724:src/can_bus.c **** 
 725:src/can_bus.c **** // Reset CAN statistics
 726:src/can_bus.c **** void CAN_ResetStatistics(void) {
 2870              		.loc 1 726 32 is_stmt 1 view -0
 2871              		.cfi_startproc
 2872              		@ args = 0, pretend = 0, frame = 0
 2873              		@ frame_needed = 0, uses_anonymous_args = 0
 2874 0000 08B5     		push	{r3, lr}
 2875              	.LCFI27:
 2876              		.cfi_def_cfa_offset 8
 2877              		.cfi_offset 3, -8
 2878              		.cfi_offset 14, -4
 727:src/can_bus.c ****     memset(&can_stats, 0, sizeof(can_stats));
 2879              		.loc 1 727 5 view .LVU739
 2880 0002 3022     		movs	r2, #48
ARM GAS  /tmp/ccC7I5pD.s 			page 74


 2881 0004 0021     		movs	r1, #0
 2882 0006 0348     		ldr	r0, .L148
 2883 0008 FFF7FEFF 		bl	memset
 2884              	.LVL238:
 728:src/can_bus.c ****     forceLog("CAN statistics reset\r\n");
 2885              		.loc 1 728 5 view .LVU740
 2886 000c 0248     		ldr	r0, .L148+4
 2887 000e FFF7FEFF 		bl	forceLog
 2888              	.LVL239:
 729:src/can_bus.c **** }
 2889              		.loc 1 729 1 is_stmt 0 view .LVU741
 2890 0012 08BD     		pop	{r3, pc}
 2891              	.L149:
 2892              		.align	2
 2893              	.L148:
 2894 0014 00000000 		.word	can_stats
 2895 0018 00000000 		.word	.LC74
 2896              		.cfi_endproc
 2897              	.LFE77:
 2899              		.section	.rodata.CAN_CheckErrors.str1.4,"aMS",%progbits,1
 2900              		.align	2
 2901              	.LC75:
 2902 0000 5B43414E 		.ascii	"[CAN ERROR] Flags:0x%02X TEC:%d REC:%d\000"
 2902      20455252 
 2902      4F525D20 
 2902      466C6167 
 2902      733A3078 
 2903 0027 00       		.align	2
 2904              	.LC76:
 2905 0028 20525831 		.ascii	" RX1OVR\000"
 2905      4F565200 
 2906              		.align	2
 2907              	.LC77:
 2908 0030 20525830 		.ascii	" RX0OVR\000"
 2908      4F565200 
 2909              		.align	2
 2910              	.LC78:
 2911 0038 20545842 		.ascii	" TXBO\000"
 2911      4F00
 2912 003e 0000     		.align	2
 2913              	.LC79:
 2914 0040 20545845 		.ascii	" TXEP\000"
 2914      5000
 2915 0046 0000     		.align	2
 2916              	.LC80:
 2917 0048 20525845 		.ascii	" RXEP\000"
 2917      5000
 2918 004e 0000     		.align	2
 2919              	.LC81:
 2920 0050 20545857 		.ascii	" TXWAR\000"
 2920      415200
 2921 0057 00       		.align	2
 2922              	.LC82:
 2923 0058 20525857 		.ascii	" RXWAR\000"
 2923      415200
 2924 005f 00       		.align	2
 2925              	.LC83:
ARM GAS  /tmp/ccC7I5pD.s 			page 75


 2926 0060 20455741 		.ascii	" EWARN\000"
 2926      524E00
 2927              		.section	.text.CAN_CheckErrors,"ax",%progbits
 2928              		.align	1
 2929              		.global	CAN_CheckErrors
 2930              		.syntax unified
 2931              		.thumb
 2932              		.thumb_func
 2934              	CAN_CheckErrors:
 2935              	.LFB78:
 730:src/can_bus.c **** 
 731:src/can_bus.c **** // Check MCP2515 error flags
 732:src/can_bus.c **** void CAN_CheckErrors(void) {
 2936              		.loc 1 732 28 is_stmt 1 view -0
 2937              		.cfi_startproc
 2938              		@ args = 0, pretend = 0, frame = 120
 2939              		@ frame_needed = 0, uses_anonymous_args = 0
 733:src/can_bus.c **** #ifdef ENABLE_CAN_BUS
 734:src/can_bus.c ****     if (!can_mode_active) {
 2940              		.loc 1 734 5 view .LVU743
 2941              		.loc 1 734 9 is_stmt 0 view .LVU744
 2942 0000 304B     		ldr	r3, .L174
 2943 0002 1B78     		ldrb	r3, [r3]	@ zero_extendqisi2
 2944              		.loc 1 734 8 view .LVU745
 2945 0004 03B9     		cbnz	r3, .L164
 2946 0006 7047     		bx	lr
 2947              	.L164:
 732:src/can_bus.c **** #ifdef ENABLE_CAN_BUS
 2948              		.loc 1 732 28 view .LVU746
 2949 0008 30B5     		push	{r4, r5, lr}
 2950              	.LCFI28:
 2951              		.cfi_def_cfa_offset 12
 2952              		.cfi_offset 4, -12
 2953              		.cfi_offset 5, -8
 2954              		.cfi_offset 14, -4
 2955 000a A1B0     		sub	sp, sp, #132
 2956              	.LCFI29:
 2957              		.cfi_def_cfa_offset 144
 735:src/can_bus.c ****         return;
 736:src/can_bus.c ****     }
 737:src/can_bus.c **** 
 738:src/can_bus.c ****     uint8_t error_flags = MCP2515_GetErrorFlags();
 2958              		.loc 1 738 5 is_stmt 1 view .LVU747
 2959              		.loc 1 738 27 is_stmt 0 view .LVU748
 2960 000c FFF7FEFF 		bl	MCP2515_GetErrorFlags
 2961              	.LVL240:
 739:src/can_bus.c **** 
 740:src/can_bus.c ****     if (error_flags != 0) {
 2962              		.loc 1 740 5 is_stmt 1 view .LVU749
 2963              		.loc 1 740 8 is_stmt 0 view .LVU750
 2964 0010 0446     		mov	r4, r0
 2965 0012 08B9     		cbnz	r0, .L165
 2966              	.LVL241:
 2967              	.L150:
 741:src/can_bus.c ****         char msg[120];
 742:src/can_bus.c ****         can_stats.errors++;
 743:src/can_bus.c ****         can_stats.last_error_flags = error_flags;
ARM GAS  /tmp/ccC7I5pD.s 			page 76


 744:src/can_bus.c **** 
 745:src/can_bus.c ****         // Read error counters (TEC at 0x1C, REC at 0x1D)
 746:src/can_bus.c ****         uint8_t tec = MCP2515_ReadRegister(0x1C);  // Transmit Error Counter
 747:src/can_bus.c ****         uint8_t rec = MCP2515_ReadRegister(0x1D);  // Receive Error Counter
 748:src/can_bus.c **** 
 749:src/can_bus.c ****         sprintf(msg, "[CAN ERROR] Flags:0x%02X TEC:%d REC:%d", error_flags, tec, rec);
 750:src/can_bus.c ****         forceLog(msg);
 751:src/can_bus.c **** 
 752:src/can_bus.c ****         // Correct bit positions per MCP2515 datasheet
 753:src/can_bus.c ****         if (error_flags & 0x80) forceLog(" RX1OVR");
 754:src/can_bus.c ****         if (error_flags & 0x40) forceLog(" RX0OVR");
 755:src/can_bus.c ****         if (error_flags & 0x20) forceLog(" TXBO");
 756:src/can_bus.c ****         if (error_flags & 0x10) forceLog(" TXEP");
 757:src/can_bus.c ****         if (error_flags & 0x08) forceLog(" RXEP");
 758:src/can_bus.c ****         if (error_flags & 0x04) forceLog(" TXWAR");
 759:src/can_bus.c ****         if (error_flags & 0x02) forceLog(" RXWAR");
 760:src/can_bus.c ****         if (error_flags & 0x01) forceLog(" EWARN");
 761:src/can_bus.c **** 
 762:src/can_bus.c ****         forceLog("\r\n");
 763:src/can_bus.c **** 
 764:src/can_bus.c ****         // Clear error flags
 765:src/can_bus.c ****         MCP2515_WriteRegister(MCP2515_EFLG, 0x00);
 766:src/can_bus.c ****     }
 767:src/can_bus.c **** #endif
 768:src/can_bus.c **** }
 2968              		.loc 1 768 1 view .LVU751
 2969 0014 21B0     		add	sp, sp, #132
 2970              	.LCFI30:
 2971              		.cfi_remember_state
 2972              		.cfi_def_cfa_offset 12
 2973              		@ sp needed
 2974 0016 30BD     		pop	{r4, r5, pc}
 2975              	.LVL242:
 2976              	.L165:
 2977              	.LCFI31:
 2978              		.cfi_restore_state
 2979              	.LBB19:
 741:src/can_bus.c ****         char msg[120];
 2980              		.loc 1 741 9 is_stmt 1 view .LVU752
 742:src/can_bus.c ****         can_stats.last_error_flags = error_flags;
 2981              		.loc 1 742 9 view .LVU753
 742:src/can_bus.c ****         can_stats.last_error_flags = error_flags;
 2982              		.loc 1 742 18 is_stmt 0 view .LVU754
 2983 0018 2B4B     		ldr	r3, .L174+4
 2984 001a 9A6A     		ldr	r2, [r3, #40]
 742:src/can_bus.c ****         can_stats.last_error_flags = error_flags;
 2985              		.loc 1 742 25 view .LVU755
 2986 001c 0132     		adds	r2, r2, #1
 2987 001e 9A62     		str	r2, [r3, #40]
 743:src/can_bus.c **** 
 2988              		.loc 1 743 9 is_stmt 1 view .LVU756
 743:src/can_bus.c **** 
 2989              		.loc 1 743 36 is_stmt 0 view .LVU757
 2990 0020 D862     		str	r0, [r3, #44]
 746:src/can_bus.c ****         uint8_t rec = MCP2515_ReadRegister(0x1D);  // Receive Error Counter
 2991              		.loc 1 746 9 is_stmt 1 view .LVU758
 746:src/can_bus.c ****         uint8_t rec = MCP2515_ReadRegister(0x1D);  // Receive Error Counter
ARM GAS  /tmp/ccC7I5pD.s 			page 77


 2992              		.loc 1 746 23 is_stmt 0 view .LVU759
 2993 0022 1C20     		movs	r0, #28
 2994              	.LVL243:
 746:src/can_bus.c ****         uint8_t rec = MCP2515_ReadRegister(0x1D);  // Receive Error Counter
 2995              		.loc 1 746 23 view .LVU760
 2996 0024 FFF7FEFF 		bl	MCP2515_ReadRegister
 2997              	.LVL244:
 2998 0028 0546     		mov	r5, r0
 2999              	.LVL245:
 747:src/can_bus.c **** 
 3000              		.loc 1 747 9 is_stmt 1 view .LVU761
 747:src/can_bus.c **** 
 3001              		.loc 1 747 23 is_stmt 0 view .LVU762
 3002 002a 1D20     		movs	r0, #29
 3003 002c FFF7FEFF 		bl	MCP2515_ReadRegister
 3004              	.LVL246:
 749:src/can_bus.c ****         forceLog(msg);
 3005              		.loc 1 749 9 is_stmt 1 view .LVU763
 3006 0030 0090     		str	r0, [sp]
 3007 0032 2B46     		mov	r3, r5
 3008 0034 2246     		mov	r2, r4
 3009 0036 2549     		ldr	r1, .L174+8
 3010 0038 02A8     		add	r0, sp, #8
 3011              	.LVL247:
 749:src/can_bus.c ****         forceLog(msg);
 3012              		.loc 1 749 9 is_stmt 0 view .LVU764
 3013 003a FFF7FEFF 		bl	sprintf
 3014              	.LVL248:
 750:src/can_bus.c **** 
 3015              		.loc 1 750 9 is_stmt 1 view .LVU765
 3016 003e 02A8     		add	r0, sp, #8
 3017 0040 FFF7FEFF 		bl	forceLog
 3018              	.LVL249:
 753:src/can_bus.c ****         if (error_flags & 0x40) forceLog(" RX0OVR");
 3019              		.loc 1 753 9 view .LVU766
 753:src/can_bus.c ****         if (error_flags & 0x40) forceLog(" RX0OVR");
 3020              		.loc 1 753 12 is_stmt 0 view .LVU767
 3021 0044 14F0800F 		tst	r4, #128
 3022 0048 1CD1     		bne	.L166
 3023              	.L152:
 754:src/can_bus.c ****         if (error_flags & 0x20) forceLog(" TXBO");
 3024              		.loc 1 754 9 is_stmt 1 view .LVU768
 754:src/can_bus.c ****         if (error_flags & 0x20) forceLog(" TXBO");
 3025              		.loc 1 754 12 is_stmt 0 view .LVU769
 3026 004a 14F0400F 		tst	r4, #64
 3027 004e 1DD1     		bne	.L167
 3028              	.L153:
 755:src/can_bus.c ****         if (error_flags & 0x10) forceLog(" TXEP");
 3029              		.loc 1 755 9 is_stmt 1 view .LVU770
 755:src/can_bus.c ****         if (error_flags & 0x10) forceLog(" TXEP");
 3030              		.loc 1 755 12 is_stmt 0 view .LVU771
 3031 0050 14F0200F 		tst	r4, #32
 3032 0054 1ED1     		bne	.L168
 3033              	.L154:
 756:src/can_bus.c ****         if (error_flags & 0x08) forceLog(" RXEP");
 3034              		.loc 1 756 9 is_stmt 1 view .LVU772
 756:src/can_bus.c ****         if (error_flags & 0x08) forceLog(" RXEP");
ARM GAS  /tmp/ccC7I5pD.s 			page 78


 3035              		.loc 1 756 12 is_stmt 0 view .LVU773
 3036 0056 14F0100F 		tst	r4, #16
 3037 005a 1FD1     		bne	.L169
 3038              	.L155:
 757:src/can_bus.c ****         if (error_flags & 0x04) forceLog(" TXWAR");
 3039              		.loc 1 757 9 is_stmt 1 view .LVU774
 757:src/can_bus.c ****         if (error_flags & 0x04) forceLog(" TXWAR");
 3040              		.loc 1 757 12 is_stmt 0 view .LVU775
 3041 005c 14F0080F 		tst	r4, #8
 3042 0060 20D1     		bne	.L170
 3043              	.L156:
 758:src/can_bus.c ****         if (error_flags & 0x02) forceLog(" RXWAR");
 3044              		.loc 1 758 9 is_stmt 1 view .LVU776
 758:src/can_bus.c ****         if (error_flags & 0x02) forceLog(" RXWAR");
 3045              		.loc 1 758 12 is_stmt 0 view .LVU777
 3046 0062 14F0040F 		tst	r4, #4
 3047 0066 21D1     		bne	.L171
 3048              	.L157:
 759:src/can_bus.c ****         if (error_flags & 0x01) forceLog(" EWARN");
 3049              		.loc 1 759 9 is_stmt 1 view .LVU778
 759:src/can_bus.c ****         if (error_flags & 0x01) forceLog(" EWARN");
 3050              		.loc 1 759 12 is_stmt 0 view .LVU779
 3051 0068 14F0020F 		tst	r4, #2
 3052 006c 22D1     		bne	.L172
 3053              	.L158:
 760:src/can_bus.c **** 
 3054              		.loc 1 760 9 is_stmt 1 view .LVU780
 760:src/can_bus.c **** 
 3055              		.loc 1 760 12 is_stmt 0 view .LVU781
 3056 006e 14F0010F 		tst	r4, #1
 3057 0072 23D1     		bne	.L173
 3058              	.L159:
 762:src/can_bus.c **** 
 3059              		.loc 1 762 9 is_stmt 1 view .LVU782
 3060 0074 1648     		ldr	r0, .L174+12
 3061 0076 FFF7FEFF 		bl	forceLog
 3062              	.LVL250:
 765:src/can_bus.c ****     }
 3063              		.loc 1 765 9 view .LVU783
 3064 007a 0021     		movs	r1, #0
 3065 007c 2D20     		movs	r0, #45
 3066 007e FFF7FEFF 		bl	MCP2515_WriteRegister
 3067              	.LVL251:
 3068 0082 C7E7     		b	.L150
 3069              	.L166:
 753:src/can_bus.c ****         if (error_flags & 0x40) forceLog(" RX0OVR");
 3070              		.loc 1 753 33 discriminator 1 view .LVU784
 3071 0084 1348     		ldr	r0, .L174+16
 3072 0086 FFF7FEFF 		bl	forceLog
 3073              	.LVL252:
 3074 008a DEE7     		b	.L152
 3075              	.L167:
 754:src/can_bus.c ****         if (error_flags & 0x20) forceLog(" TXBO");
 3076              		.loc 1 754 33 discriminator 1 view .LVU785
 3077 008c 1248     		ldr	r0, .L174+20
 3078 008e FFF7FEFF 		bl	forceLog
 3079              	.LVL253:
ARM GAS  /tmp/ccC7I5pD.s 			page 79


 3080 0092 DDE7     		b	.L153
 3081              	.L168:
 755:src/can_bus.c ****         if (error_flags & 0x10) forceLog(" TXEP");
 3082              		.loc 1 755 33 discriminator 1 view .LVU786
 3083 0094 1148     		ldr	r0, .L174+24
 3084 0096 FFF7FEFF 		bl	forceLog
 3085              	.LVL254:
 3086 009a DCE7     		b	.L154
 3087              	.L169:
 756:src/can_bus.c ****         if (error_flags & 0x08) forceLog(" RXEP");
 3088              		.loc 1 756 33 discriminator 1 view .LVU787
 3089 009c 1048     		ldr	r0, .L174+28
 3090 009e FFF7FEFF 		bl	forceLog
 3091              	.LVL255:
 3092 00a2 DBE7     		b	.L155
 3093              	.L170:
 757:src/can_bus.c ****         if (error_flags & 0x04) forceLog(" TXWAR");
 3094              		.loc 1 757 33 discriminator 1 view .LVU788
 3095 00a4 0F48     		ldr	r0, .L174+32
 3096 00a6 FFF7FEFF 		bl	forceLog
 3097              	.LVL256:
 3098 00aa DAE7     		b	.L156
 3099              	.L171:
 758:src/can_bus.c ****         if (error_flags & 0x02) forceLog(" RXWAR");
 3100              		.loc 1 758 33 discriminator 1 view .LVU789
 3101 00ac 0E48     		ldr	r0, .L174+36
 3102 00ae FFF7FEFF 		bl	forceLog
 3103              	.LVL257:
 3104 00b2 D9E7     		b	.L157
 3105              	.L172:
 759:src/can_bus.c ****         if (error_flags & 0x01) forceLog(" EWARN");
 3106              		.loc 1 759 33 discriminator 1 view .LVU790
 3107 00b4 0D48     		ldr	r0, .L174+40
 3108 00b6 FFF7FEFF 		bl	forceLog
 3109              	.LVL258:
 3110 00ba D8E7     		b	.L158
 3111              	.L173:
 760:src/can_bus.c **** 
 3112              		.loc 1 760 33 discriminator 1 view .LVU791
 3113 00bc 0C48     		ldr	r0, .L174+44
 3114 00be FFF7FEFF 		bl	forceLog
 3115              	.LVL259:
 3116 00c2 D7E7     		b	.L159
 3117              	.L175:
 3118              		.align	2
 3119              	.L174:
 3120 00c4 00000000 		.word	can_mode_active
 3121 00c8 00000000 		.word	can_stats
 3122 00cc 00000000 		.word	.LC75
 3123 00d0 04020000 		.word	.LC37
 3124 00d4 28000000 		.word	.LC76
 3125 00d8 30000000 		.word	.LC77
 3126 00dc 38000000 		.word	.LC78
 3127 00e0 40000000 		.word	.LC79
 3128 00e4 48000000 		.word	.LC80
 3129 00e8 50000000 		.word	.LC81
 3130 00ec 58000000 		.word	.LC82
ARM GAS  /tmp/ccC7I5pD.s 			page 80


 3131 00f0 60000000 		.word	.LC83
 3132              	.LBE19:
 3133              		.cfi_endproc
 3134              	.LFE78:
 3136              		.section	.bss.motor_status_counter.0,"aw",%nobits
 3139              	motor_status_counter.0:
 3140 0000 00       		.space	1
 3141              		.section	.bss.verbose_counter.1,"aw",%nobits
 3144              	verbose_counter.1:
 3145 0000 00       		.space	1
 3146              		.section	.bss.can_stats,"aw",%nobits
 3147              		.align	2
 3150              	can_stats:
 3151 0000 00000000 		.space	48
 3151      00000000 
 3151      00000000 
 3151      00000000 
 3151      00000000 
 3152              		.section	.bss.rx_frame,"aw",%nobits
 3153              		.align	2
 3156              	rx_frame:
 3157 0000 00000000 		.space	16
 3157      00000000 
 3157      00000000 
 3157      00000000 
 3158              		.section	.bss.can_status_bootup,"aw",%nobits
 3159              		.align	2
 3162              	can_status_bootup:
 3163 0000 00000000 		.space	4
 3164              		.section	.bss.can_status_batt,"aw",%nobits
 3165              		.align	2
 3168              	can_status_batt:
 3169 0000 00000000 		.space	4
 3170              		.section	.bss.can_status_pos,"aw",%nobits
 3171              		.align	2
 3174              	can_status_pos:
 3175 0000 00000000 		.space	4
 3176              		.section	.bss.can_status_speed,"aw",%nobits
 3177              		.align	2
 3180              	can_status_speed:
 3181 0000 00000000 		.space	4
 3182              		.section	.bss.can_cmd_enable,"aw",%nobits
 3183              		.align	2
 3186              	can_cmd_enable:
 3187 0000 00000000 		.space	4
 3188              		.section	.bss.can_cmd_position,"aw",%nobits
 3189              		.align	2
 3192              	can_cmd_position:
 3193 0000 00000000 		.space	4
 3194              		.section	.bss.can_cmd_speed,"aw",%nobits
 3195              		.align	2
 3198              	can_cmd_speed:
 3199 0000 00000000 		.space	4
 3200              		.section	.bss.can_cmd_pwm,"aw",%nobits
 3201              		.align	2
 3204              	can_cmd_pwm:
 3205 0000 00000000 		.space	4
ARM GAS  /tmp/ccC7I5pD.s 			page 81


 3206              		.section	.bss.software_serial_ready,"aw",%nobits
 3209              	software_serial_ready:
 3210 0000 00       		.space	1
 3211              		.global	usart_mode_active
 3212              		.section	.bss.usart_mode_active,"aw",%nobits
 3215              	usart_mode_active:
 3216 0000 00       		.space	1
 3217              		.global	can_mode_active
 3218              		.section	.bss.can_mode_active,"aw",%nobits
 3221              	can_mode_active:
 3222 0000 00       		.space	1
 3223              		.text
 3224              	.Letext0:
 3225              		.file 2 "/usr/lib/gcc/arm-none-eabi/13.2.1/include/stdint.h"
 3226              		.file 3 "Drivers/CMSIS/Device/ST/STM32F1xx/Include/stm32f103xe.h"
 3227              		.file 4 "/usr/lib/gcc/arm-none-eabi/13.2.1/include/stddef.h"
 3228              		.file 5 "Drivers/STM32F1xx_HAL_Driver/Inc/stm32f1xx_hal_gpio.h"
 3229              		.file 6 "inc/can_bus.h"
 3230              		.file 7 "inc/mcp2515.h"
 3231              		.file 8 "inc/protocol.h"
 3232              		.file 9 "inc/flashcontent.h"
 3233              		.file 10 "inc/control_structures.h"
 3234              		.file 11 "inc/softwareserial.h"
 3235              		.file 12 "/usr/include/newlib/string.h"
 3236              		.file 13 "/usr/include/newlib/stdio.h"
 3237              		.file 14 "inc/protocolfunctions.h"
 3238              		.file 15 "<built-in>"
ARM GAS  /tmp/ccC7I5pD.s 			page 82

