ARM GAS  /tmp/ccEQSP5E.s 			page 1


   1              		.cpu cortex-m3
   2              		.arch armv7-m
   3              		.fpu softvfp
   4              		.eabi_attribute 20, 1
   5              		.eabi_attribute 21, 1
   6              		.eabi_attribute 23, 3
   7              		.eabi_attribute 24, 1
   8              		.eabi_attribute 25, 1
   9              		.eabi_attribute 26, 1
  10              		.eabi_attribute 30, 1
  11              		.eabi_attribute 34, 1
  12              		.eabi_attribute 18, 4
  13              		.file	"comms.c"
  14              		.text
  15              	.Ltext0:
  16              		.cfi_sections	.debug_frame
  17              		.file 1 "src/comms.c"
  18              		.section	.text.setScopeChannel,"ax",%progbits
  19              		.align	1
  20              		.global	setScopeChannel
  21              		.syntax unified
  22              		.thumb
  23              		.thumb_func
  25              	setScopeChannel:
  26              	.LVL0:
  27              	.LFB66:
   1:src/comms.c   **** #include "stm32f1xx_hal.h"
   2:src/comms.c   **** #include "defines.h"
   3:src/comms.c   **** #include "setup.h"
   4:src/comms.c   **** #include "config.h"
   5:src/comms.c   **** #include "stdio.h"
   6:src/comms.c   **** #include "string.h"
   7:src/comms.c   **** #include "comms.h"
   8:src/comms.c   **** #include "softwareserial.h"
   9:src/comms.c   **** 
  10:src/comms.c   **** 
  11:src/comms.c   **** extern UART_HandleTypeDef huart2;
  12:src/comms.c   **** extern UART_HandleTypeDef huart3;
  13:src/comms.c   **** 
  14:src/comms.c   **** 
  15:src/comms.c   **** #ifdef DEBUG_SERIAL_USART3
  16:src/comms.c   **** #define UART_DMA_CHANNEL DMA1_Channel2
  17:src/comms.c   **** #endif
  18:src/comms.c   **** 
  19:src/comms.c   **** #ifdef DEBUG_SERIAL_USART2
  20:src/comms.c   **** #define UART_DMA_CHANNEL DMA1_Channel7
  21:src/comms.c   **** #endif
  22:src/comms.c   **** 
  23:src/comms.c   **** 
  24:src/comms.c   **** volatile uint8_t uart_buf[100];
  25:src/comms.c   **** volatile int16_t ch_buf[8];
  26:src/comms.c   **** 
  27:src/comms.c   **** #if defined(SERIAL_USART2_IT)
  28:src/comms.c   ****   volatile SERIAL_USART_BUFFER usart2_it_TXbuffer;
  29:src/comms.c   ****   volatile SERIAL_USART_BUFFER usart2_it_RXbuffer;
  30:src/comms.c   **** #endif
  31:src/comms.c   **** #if defined(SERIAL_USART3_IT)
ARM GAS  /tmp/ccEQSP5E.s 			page 2


  32:src/comms.c   ****   volatile SERIAL_USART_BUFFER usart3_it_TXbuffer;
  33:src/comms.c   ****   volatile SERIAL_USART_BUFFER usart3_it_RXbuffer;
  34:src/comms.c   **** #endif
  35:src/comms.c   **** 
  36:src/comms.c   **** uint8_t debug_out = 1;
  37:src/comms.c   **** uint8_t enablescope = 1;
  38:src/comms.c   **** 
  39:src/comms.c   **** //volatile char char_buf[300];
  40:src/comms.c   **** 
  41:src/comms.c   **** void setScopeChannel(uint8_t ch, int16_t val) {
  28              		.loc 1 41 47 view -0
  29              		.cfi_startproc
  30              		@ args = 0, pretend = 0, frame = 0
  31              		@ frame_needed = 0, uses_anonymous_args = 0
  32              		@ link register save eliminated.
  42:src/comms.c   ****   ch_buf[ch] = val;
  33              		.loc 1 42 3 view .LVU1
  34              		.loc 1 42 14 is_stmt 0 view .LVU2
  35 0000 014B     		ldr	r3, .L2
  36 0002 23F81010 		strh	r1, [r3, r0, lsl #1]	@ movhi
  43:src/comms.c   **** }
  37              		.loc 1 43 1 view .LVU3
  38 0006 7047     		bx	lr
  39              	.L3:
  40              		.align	2
  41              	.L2:
  42 0008 00000000 		.word	ch_buf
  43              		.cfi_endproc
  44              	.LFE66:
  46              		.section	.text.consoleScope,"ax",%progbits
  47              		.align	1
  48              		.global	consoleScope
  49              		.syntax unified
  50              		.thumb
  51              		.thumb_func
  53              	consoleScope:
  54              	.LFB67:
  44:src/comms.c   **** 
  45:src/comms.c   **** void consoleScope() {
  55              		.loc 1 45 21 is_stmt 1 view -0
  56              		.cfi_startproc
  57              		@ args = 0, pretend = 0, frame = 0
  58              		@ frame_needed = 0, uses_anonymous_args = 0
  59              		@ link register save eliminated.
  46:src/comms.c   ****   if (!enablescope)
  60              		.loc 1 46 3 view .LVU5
  47:src/comms.c   ****     return;
  61              		.loc 1 47 5 view .LVU6
  48:src/comms.c   **** 
  49:src/comms.c   ****   #if defined DEBUG_SERIAL_SERVOTERM && defined DEBUG_SERIAL_USART3
  50:src/comms.c   ****     uart_buf[0] = 0xff;
  51:src/comms.c   ****     uart_buf[1] = CLAMP(ch_buf[0]+127, 0, 255);
  52:src/comms.c   ****     uart_buf[2] = CLAMP(ch_buf[1]+127, 0, 255);
  53:src/comms.c   ****     uart_buf[3] = CLAMP(ch_buf[2]+127, 0, 255);
  54:src/comms.c   ****     uart_buf[4] = CLAMP(ch_buf[3]+127, 0, 255);
  55:src/comms.c   ****     uart_buf[5] = CLAMP(ch_buf[4]+127, 0, 255);
  56:src/comms.c   ****     uart_buf[6] = CLAMP(ch_buf[5]+127, 0, 255);
ARM GAS  /tmp/ccEQSP5E.s 			page 3


  57:src/comms.c   ****     uart_buf[7] = CLAMP(ch_buf[6]+127, 0, 255);
  58:src/comms.c   ****     uart_buf[8] = CLAMP(ch_buf[7]+127, 0, 255);
  59:src/comms.c   ****     uart_buf[9] = '\n';
  60:src/comms.c   **** 
  61:src/comms.c   ****     if(UART_DMA_CHANNEL->CNDTR == 0) {
  62:src/comms.c   ****       UART_DMA_CHANNEL->CCR &= ~DMA_CCR_EN;
  63:src/comms.c   ****       UART_DMA_CHANNEL->CNDTR = 10;
  64:src/comms.c   ****       UART_DMA_CHANNEL->CMAR  = (uint32_t)uart_buf;
  65:src/comms.c   ****       UART_DMA_CHANNEL->CCR |= DMA_CCR_EN;
  66:src/comms.c   ****     }
  67:src/comms.c   ****   #endif
  68:src/comms.c   **** 
  69:src/comms.c   ****   #if defined DEBUG_SERIAL_ASCII && defined DEBUG_SERIAL_USART3
  70:src/comms.c   ****     memset(uart_buf, 0, sizeof(uart_buf));
  71:src/comms.c   ****     sprintf(uart_buf, "1:%i 2:%i 3:%i 4:%i 5:%i 6:%i 7:%i 8:%i\r\n", ch_buf[0], ch_buf[1], ch_buf[2
  72:src/comms.c   **** 
  73:src/comms.c   ****     if(UART_DMA_CHANNEL->CNDTR == 0) {
  74:src/comms.c   ****       UART_DMA_CHANNEL->CCR &= ~DMA_CCR_EN;
  75:src/comms.c   ****       UART_DMA_CHANNEL->CNDTR = strlen(uart_buf);
  76:src/comms.c   ****       UART_DMA_CHANNEL->CMAR  = (uint32_t)uart_buf;
  77:src/comms.c   ****       UART_DMA_CHANNEL->CCR |= DMA_CCR_EN;
  78:src/comms.c   ****     }
  79:src/comms.c   ****   #endif
  80:src/comms.c   **** 
  81:src/comms.c   ****   #if defined DEBUG_SERIAL_ASCII && defined DEBUG_SERIAL_SENSOR && defined CONTROL_SENSOR
  82:src/comms.c   ****     memset(uart_buf, 0, sizeof(uart_buf));
  83:src/comms.c   ****     sprintf(uart_buf, "1:%i 2:%i 3:%i 4:%i 5:%i 6:%i 7:%i 8:%i\r\n", ch_buf[0], ch_buf[1], ch_buf[2
  84:src/comms.c   ****     USART_sensorSend(0, uart_buf, strlen(uart_buf), 0);
  85:src/comms.c   ****     USART_sensorSend(1, uart_buf, strlen(uart_buf), 0);
  86:src/comms.c   ****   #endif
  87:src/comms.c   **** 
  88:src/comms.c   ****   #if defined DEBUG_SERIAL_ASCII && defined DEBUG_SOFTWARE_SERIAL
  89:src/comms.c   ****     if (debug_out){
  90:src/comms.c   ****       memset((void *)uart_buf, 0, sizeof(uart_buf));
  91:src/comms.c   ****       sprintf((void *)uart_buf, "1:%i 2:%i 3:%i 4:%i 5:%i 6:%i 7:%i 8:%i\r\n", ch_buf[0], ch_buf[1]
  92:src/comms.c   ****       softwareserial_Send((unsigned char *)uart_buf, strlen((char*)uart_buf));
  93:src/comms.c   ****     }
  94:src/comms.c   ****   #endif
  95:src/comms.c   **** 
  96:src/comms.c   **** }
  62              		.loc 1 96 1 is_stmt 0 view .LVU7
  63 0000 7047     		bx	lr
  64              		.cfi_endproc
  65              	.LFE67:
  67              		.section	.text.serial_usart_buffer_count,"ax",%progbits
  68              		.align	1
  69              		.global	serial_usart_buffer_count
  70              		.syntax unified
  71              		.thumb
  72              		.thumb_func
  74              	serial_usart_buffer_count:
  75              	.LVL1:
  76              	.LFB68:
  97:src/comms.c   **** 
  98:src/comms.c   **** #ifdef SERIAL_USART2_IT
  99:src/comms.c   **** 
 100:src/comms.c   **** int USART2_IT_starttx() {
ARM GAS  /tmp/ccEQSP5E.s 			page 4


 101:src/comms.c   ****     __HAL_UART_ENABLE_IT(&huart2, UART_IT_TXE);
 102:src/comms.c   ****     return 1;
 103:src/comms.c   **** }
 104:src/comms.c   **** 
 105:src/comms.c   **** int USART2_IT_send(unsigned char *data, int len) {
 106:src/comms.c   **** 
 107:src/comms.c   ****     int count = serial_usart_buffer_count(&usart2_it_TXbuffer);
 108:src/comms.c   ****     if (count + len + 1 > SERIAL_USART_BUFFER_SIZE-3){
 109:src/comms.c   ****         usart2_it_TXbuffer.overflow++;
 110:src/comms.c   ****         return -1;
 111:src/comms.c   ****     }
 112:src/comms.c   **** 
 113:src/comms.c   ****     for (int i = 0; i < len; i++){
 114:src/comms.c   ****         serial_usart_buffer_push(&usart2_it_TXbuffer, (SERIAL_USART_IT_BUFFERTYPE) data[i]);
 115:src/comms.c   ****     }
 116:src/comms.c   **** 
 117:src/comms.c   ****     return USART2_IT_starttx();
 118:src/comms.c   **** }
 119:src/comms.c   **** 
 120:src/comms.c   **** //////////////////////////////////////////////////////
 121:src/comms.c   **** // called from actual IRQ routines
 122:src/comms.c   **** void USART2_IT_IRQ(USART_TypeDef *us) {
 123:src/comms.c   ****   volatile uint32_t *SR     = &us->SR;  // USART Status register
 124:src/comms.c   ****   volatile uint32_t *DR     = &us->DR;  // USART Data register
 125:src/comms.c   ****   volatile uint32_t *CR1    = &us->CR1; // USART Control register 1
 126:src/comms.c   **** 
 127:src/comms.c   ****   // Transmit
 128:src/comms.c   ****   if ((*SR) & UART_FLAG_TXE) {
 129:src/comms.c   ****     if (serial_usart_buffer_count(&usart2_it_TXbuffer) == 0) {
 130:src/comms.c   ****       *CR1 = (*CR1 & ~(USART_CR1_TXEIE | USART_CR1_TCIE));
 131:src/comms.c   ****     } else {
 132:src/comms.c   ****       *DR = (serial_usart_buffer_pop(&usart2_it_TXbuffer) & 0x1ff);
 133:src/comms.c   ****     }
 134:src/comms.c   ****   }
 135:src/comms.c   **** 
 136:src/comms.c   ****   // Receive
 137:src/comms.c   ****   if (((*SR) & UART_FLAG_RXNE)) {
 138:src/comms.c   ****     SERIAL_USART_IT_BUFFERTYPE rword = (*DR) & 0x01FF;
 139:src/comms.c   ****     serial_usart_buffer_push(&usart2_it_RXbuffer, rword);
 140:src/comms.c   ****   }
 141:src/comms.c   **** 
 142:src/comms.c   ****   return;
 143:src/comms.c   **** }
 144:src/comms.c   **** 
 145:src/comms.c   **** #endif
 146:src/comms.c   **** 
 147:src/comms.c   **** #ifdef SERIAL_USART3_IT
 148:src/comms.c   **** 
 149:src/comms.c   **** int USART3_IT_starttx() {
 150:src/comms.c   ****     __HAL_UART_ENABLE_IT(&huart3, UART_IT_TXE);
 151:src/comms.c   ****     return 1;
 152:src/comms.c   **** }
 153:src/comms.c   **** 
 154:src/comms.c   **** int USART3_IT_send(unsigned char *data, int len) {
 155:src/comms.c   **** 
 156:src/comms.c   ****     int count = serial_usart_buffer_count(&usart3_it_TXbuffer);
 157:src/comms.c   ****     if (count + len + 1 > SERIAL_USART_BUFFER_SIZE-3){
ARM GAS  /tmp/ccEQSP5E.s 			page 5


 158:src/comms.c   ****         usart3_it_TXbuffer.overflow++;
 159:src/comms.c   ****         return -1;
 160:src/comms.c   ****     }
 161:src/comms.c   **** 
 162:src/comms.c   ****     for (int i = 0; i < len; i++){
 163:src/comms.c   ****         serial_usart_buffer_push(&usart3_it_TXbuffer, (SERIAL_USART_IT_BUFFERTYPE) data[i]);
 164:src/comms.c   ****     }
 165:src/comms.c   **** 
 166:src/comms.c   ****     return USART3_IT_starttx();
 167:src/comms.c   **** }
 168:src/comms.c   **** 
 169:src/comms.c   **** //////////////////////////////////////////////////////
 170:src/comms.c   **** // called from actual IRQ routines
 171:src/comms.c   **** void USART3_IT_IRQ(USART_TypeDef *us) {
 172:src/comms.c   ****   volatile uint32_t *SR     = &us->SR;  // USART Status register
 173:src/comms.c   ****   volatile uint32_t *DR     = &us->DR;  // USART Data register
 174:src/comms.c   ****   volatile uint32_t *CR1    = &us->CR1; // USART Control register 1
 175:src/comms.c   **** 
 176:src/comms.c   ****   // Transmit
 177:src/comms.c   ****   if ((*SR) & UART_FLAG_TXE) {
 178:src/comms.c   ****     if (serial_usart_buffer_count(&usart3_it_TXbuffer) == 0) {
 179:src/comms.c   ****       *CR1 = (*CR1 & ~(USART_CR1_TXEIE | USART_CR1_TCIE));
 180:src/comms.c   ****     } else {
 181:src/comms.c   ****       *DR = (serial_usart_buffer_pop(&usart3_it_TXbuffer) & 0x1ff);
 182:src/comms.c   ****     }
 183:src/comms.c   ****   }
 184:src/comms.c   **** 
 185:src/comms.c   ****   // Receive
 186:src/comms.c   ****   if (((*SR) & UART_FLAG_RXNE)) {
 187:src/comms.c   ****     SERIAL_USART_IT_BUFFERTYPE rword = (*DR) & 0x01FF;
 188:src/comms.c   ****     serial_usart_buffer_push(&usart3_it_RXbuffer, rword);
 189:src/comms.c   ****   }
 190:src/comms.c   **** 
 191:src/comms.c   ****   return;
 192:src/comms.c   **** }
 193:src/comms.c   **** 
 194:src/comms.c   **** #endif
 195:src/comms.c   **** 
 196:src/comms.c   **** int serial_usart_buffer_count(volatile SERIAL_USART_BUFFER *usart_buf) {
  77              		.loc 1 196 72 is_stmt 1 view -0
  78              		.cfi_startproc
  79              		@ args = 0, pretend = 0, frame = 0
  80              		@ frame_needed = 0, uses_anonymous_args = 0
  81              		@ link register save eliminated.
 197:src/comms.c   ****     int count = usart_buf->head - usart_buf->tail;
  82              		.loc 1 197 5 view .LVU9
  83              		.loc 1 197 26 is_stmt 0 view .LVU10
  84 0000 D0F80034 		ldr	r3, [r0, #1024]
  85              		.loc 1 197 44 view .LVU11
  86 0004 D0F80404 		ldr	r0, [r0, #1028]
  87              	.LVL2:
 198:src/comms.c   ****     if (count < 0) count += SERIAL_USART_BUFFER_SIZE;
  88              		.loc 1 198 5 is_stmt 1 view .LVU12
  89              		.loc 1 198 8 is_stmt 0 view .LVU13
  90 0008 181A     		subs	r0, r3, r0
  91              	.LVL3:
  92              		.loc 1 198 8 view .LVU14
ARM GAS  /tmp/ccEQSP5E.s 			page 6


  93 000a 00D4     		bmi	.L7
  94              	.LVL4:
  95              	.L5:
 199:src/comms.c   ****     return count;
 200:src/comms.c   **** }
  96              		.loc 1 200 1 view .LVU15
  97 000c 7047     		bx	lr
  98              	.LVL5:
  99              	.L7:
 198:src/comms.c   ****     if (count < 0) count += SERIAL_USART_BUFFER_SIZE;
 100              		.loc 1 198 20 is_stmt 1 discriminator 1 view .LVU16
 198:src/comms.c   ****     if (count < 0) count += SERIAL_USART_BUFFER_SIZE;
 101              		.loc 1 198 26 is_stmt 0 discriminator 1 view .LVU17
 102 000e 00F58060 		add	r0, r0, #1024
 103              	.LVL6:
 199:src/comms.c   ****     return count;
 104              		.loc 1 199 5 is_stmt 1 view .LVU18
 199:src/comms.c   ****     return count;
 105              		.loc 1 199 12 is_stmt 0 view .LVU19
 106 0012 FBE7     		b	.L5
 107              		.cfi_endproc
 108              	.LFE68:
 110              		.section	.text.serial_usart_buffer_push,"ax",%progbits
 111              		.align	1
 112              		.global	serial_usart_buffer_push
 113              		.syntax unified
 114              		.thumb
 115              		.thumb_func
 117              	serial_usart_buffer_push:
 118              	.LVL7:
 119              	.LFB69:
 201:src/comms.c   **** 
 202:src/comms.c   **** void serial_usart_buffer_push(volatile SERIAL_USART_BUFFER *usart_buf, SERIAL_USART_IT_BUFFERTYPE v
 120              		.loc 1 202 106 is_stmt 1 view -0
 121              		.cfi_startproc
 122              		@ args = 0, pretend = 0, frame = 0
 123              		@ frame_needed = 0, uses_anonymous_args = 0
 124              		.loc 1 202 106 is_stmt 0 view .LVU21
 125 0000 38B5     		push	{r3, r4, r5, lr}
 126              	.LCFI0:
 127              		.cfi_def_cfa_offset 16
 128              		.cfi_offset 3, -16
 129              		.cfi_offset 4, -12
 130              		.cfi_offset 5, -8
 131              		.cfi_offset 14, -4
 132 0002 0446     		mov	r4, r0
 133 0004 0D46     		mov	r5, r1
 203:src/comms.c   ****     int count = serial_usart_buffer_count(usart_buf);
 134              		.loc 1 203 5 is_stmt 1 view .LVU22
 135              		.loc 1 203 17 is_stmt 0 view .LVU23
 136 0006 FFF7FEFF 		bl	serial_usart_buffer_count
 137              	.LVL8:
 204:src/comms.c   ****     if (count >=  SERIAL_USART_BUFFER_SIZE-2){
 138              		.loc 1 204 5 is_stmt 1 view .LVU24
 139              		.loc 1 204 8 is_stmt 0 view .LVU25
 140 000a 40F2FD33 		movw	r3, #1021
 141 000e 9842     		cmp	r0, r3
ARM GAS  /tmp/ccEQSP5E.s 			page 7


 142 0010 0FDC     		bgt	.L12
 205:src/comms.c   ****         usart_buf->overflow++;
 206:src/comms.c   ****         return;
 207:src/comms.c   ****     }
 208:src/comms.c   **** 
 209:src/comms.c   ****     usart_buf->buff[usart_buf->head] = value;
 143              		.loc 1 209 5 is_stmt 1 view .LVU26
 144              		.loc 1 209 30 is_stmt 0 view .LVU27
 145 0012 D4F80034 		ldr	r3, [r4, #1024]
 146              		.loc 1 209 38 view .LVU28
 147 0016 E554     		strb	r5, [r4, r3]
 210:src/comms.c   ****     usart_buf->head = ((usart_buf->head + 1 ) % SERIAL_USART_BUFFER_SIZE);
 148              		.loc 1 210 5 is_stmt 1 view .LVU29
 149              		.loc 1 210 34 is_stmt 0 view .LVU30
 150 0018 D4F80034 		ldr	r3, [r4, #1024]
 151              		.loc 1 210 41 view .LVU31
 152 001c 0133     		adds	r3, r3, #1
 153              		.loc 1 210 47 view .LVU32
 154 001e 5A42     		rsbs	r2, r3, #0
 155 0020 C3F30903 		ubfx	r3, r3, #0, #10
 156 0024 C2F30902 		ubfx	r2, r2, #0, #10
 157 0028 58BF     		it	pl
 158 002a 5342     		rsbpl	r3, r2, #0
 159              		.loc 1 210 21 view .LVU33
 160 002c C4F80034 		str	r3, [r4, #1024]
 161              	.L8:
 211:src/comms.c   **** }
 162              		.loc 1 211 1 view .LVU34
 163 0030 38BD     		pop	{r3, r4, r5, pc}
 164              	.LVL9:
 165              	.L12:
 205:src/comms.c   ****         usart_buf->overflow++;
 166              		.loc 1 205 9 is_stmt 1 view .LVU35
 205:src/comms.c   ****         usart_buf->overflow++;
 167              		.loc 1 205 18 is_stmt 0 view .LVU36
 168 0032 D4F80834 		ldr	r3, [r4, #1032]
 205:src/comms.c   ****         usart_buf->overflow++;
 169              		.loc 1 205 28 view .LVU37
 170 0036 0133     		adds	r3, r3, #1
 171 0038 C4F80834 		str	r3, [r4, #1032]
 206:src/comms.c   ****     }
 172              		.loc 1 206 9 is_stmt 1 view .LVU38
 173 003c F8E7     		b	.L8
 174              		.cfi_endproc
 175              	.LFE69:
 177              		.section	.text.serial_usart_buffer_pop,"ax",%progbits
 178              		.align	1
 179              		.global	serial_usart_buffer_pop
 180              		.syntax unified
 181              		.thumb
 182              		.thumb_func
 184              	serial_usart_buffer_pop:
 185              	.LVL10:
 186              	.LFB70:
 212:src/comms.c   **** 
 213:src/comms.c   **** SERIAL_USART_IT_BUFFERTYPE serial_usart_buffer_pop(volatile SERIAL_USART_BUFFER *usart_buf) {
 187              		.loc 1 213 93 view -0
ARM GAS  /tmp/ccEQSP5E.s 			page 8


 188              		.cfi_startproc
 189              		@ args = 0, pretend = 0, frame = 0
 190              		@ frame_needed = 0, uses_anonymous_args = 0
 191              		@ link register save eliminated.
 192              		.loc 1 213 93 is_stmt 0 view .LVU40
 193 0000 0346     		mov	r3, r0
 214:src/comms.c   ****   SERIAL_USART_IT_BUFFERTYPE t = 0;
 194              		.loc 1 214 3 is_stmt 1 view .LVU41
 195              	.LVL11:
 215:src/comms.c   ****   if (usart_buf->head != usart_buf->tail){
 196              		.loc 1 215 3 view .LVU42
 197              		.loc 1 215 16 is_stmt 0 view .LVU43
 198 0002 D0F80014 		ldr	r1, [r0, #1024]
 199              		.loc 1 215 35 view .LVU44
 200 0006 D0F80424 		ldr	r2, [r0, #1028]
 201              		.loc 1 215 6 view .LVU45
 202 000a 9142     		cmp	r1, r2
 203 000c 10D0     		beq	.L15
 216:src/comms.c   ****       t = usart_buf->buff[usart_buf->tail];
 204              		.loc 1 216 7 is_stmt 1 view .LVU46
 205              		.loc 1 216 36 is_stmt 0 view .LVU47
 206 000e D0F80424 		ldr	r2, [r0, #1028]
 207              		.loc 1 216 9 view .LVU48
 208 0012 805C     		ldrb	r0, [r0, r2]	@ zero_extendqisi2
 209              	.LVL12:
 210              		.loc 1 216 9 view .LVU49
 211 0014 C0B2     		uxtb	r0, r0
 212              	.LVL13:
 217:src/comms.c   ****       usart_buf->tail = ((usart_buf->tail + 1 ) % SERIAL_USART_BUFFER_SIZE);
 213              		.loc 1 217 7 is_stmt 1 view .LVU50
 214              		.loc 1 217 36 is_stmt 0 view .LVU51
 215 0016 D3F80424 		ldr	r2, [r3, #1028]
 216              		.loc 1 217 43 view .LVU52
 217 001a 0132     		adds	r2, r2, #1
 218              		.loc 1 217 49 view .LVU53
 219 001c 5142     		rsbs	r1, r2, #0
 220 001e C2F30902 		ubfx	r2, r2, #0, #10
 221 0022 C1F30901 		ubfx	r1, r1, #0, #10
 222 0026 58BF     		it	pl
 223 0028 4A42     		rsbpl	r2, r1, #0
 224              		.loc 1 217 23 view .LVU54
 225 002a C3F80424 		str	r2, [r3, #1028]
 226 002e 7047     		bx	lr
 227              	.LVL14:
 228              	.L15:
 214:src/comms.c   ****   if (usart_buf->head != usart_buf->tail){
 229              		.loc 1 214 30 view .LVU55
 230 0030 0020     		movs	r0, #0
 231              	.LVL15:
 218:src/comms.c   ****   }
 219:src/comms.c   ****   return t;
 232              		.loc 1 219 3 is_stmt 1 view .LVU56
 220:src/comms.c   **** }
 233              		.loc 1 220 1 is_stmt 0 view .LVU57
 234 0032 7047     		bx	lr
 235              		.cfi_endproc
 236              	.LFE70:
ARM GAS  /tmp/ccEQSP5E.s 			page 9


 238              		.global	enablescope
 239              		.section	.data.enablescope,"aw"
 242              	enablescope:
 243 0000 01       		.byte	1
 244              		.global	debug_out
 245              		.section	.data.debug_out,"aw"
 248              	debug_out:
 249 0000 01       		.byte	1
 250              		.comm	ch_buf,16,4
 251              		.comm	uart_buf,100,4
 252              		.text
 253              	.Letext0:
 254              		.file 2 "/usr/lib/gcc/arm-none-eabi/13.2.1/include/stdint.h"
 255              		.file 3 "inc/comms.h"
ARM GAS  /tmp/ccEQSP5E.s 			page 10

