ARM GAS  /tmp/cc7G3T4Q.s 			page 1


   1              		.cpu cortex-m3
   2              		.arch armv7-m
   3              		.fpu softvfp
   4              		.eabi_attribute 20, 1
   5              		.eabi_attribute 21, 1
   6              		.eabi_attribute 23, 3
   7              		.eabi_attribute 24, 1
   8              		.eabi_attribute 25, 1
   9              		.eabi_attribute 26, 1
  10              		.eabi_attribute 30, 1
  11              		.eabi_attribute 34, 1
  12              		.eabi_attribute 18, 4
  13              		.file	"machine_protocol.c"
  14              		.text
  15              	.Ltext0:
  16              		.cfi_sections	.debug_frame
  17              		.file 1 "src/hbprotocol/machine_protocol.c"
  18              		.section	.text.mpGetTxByte,"ax",%progbits
  19              		.align	1
  20              		.syntax unified
  21              		.thumb
  22              		.thumb_func
  24              	mpGetTxByte:
  25              	.LVL0:
  26              	.LFB13:
   1:src/hbprotocol/machine_protocol.c **** /*
   2:src/hbprotocol/machine_protocol.c **** * This file is part of the hoverboard-firmware-hack project.
   3:src/hbprotocol/machine_protocol.c **** *
   4:src/hbprotocol/machine_protocol.c **** * Copyright (C) 2018 Simon Hailes <btsimonh@googlemail.com>
   5:src/hbprotocol/machine_protocol.c **** *
   6:src/hbprotocol/machine_protocol.c **** * This program is free software: you can redistribute it and/or modify
   7:src/hbprotocol/machine_protocol.c **** * it under the terms of the GNU General Public License as published by
   8:src/hbprotocol/machine_protocol.c **** * the Free Software Foundation, either version 3 of the License, or
   9:src/hbprotocol/machine_protocol.c **** * (at your option) any later version.
  10:src/hbprotocol/machine_protocol.c **** *
  11:src/hbprotocol/machine_protocol.c **** * This program is distributed in the hope that it will be useful,
  12:src/hbprotocol/machine_protocol.c **** * but WITHOUT ANY WARRANTY; without even the implied warranty of
  13:src/hbprotocol/machine_protocol.c **** * MERCHANTABILITY or FITNESS FOR A PARTICULAR PURPOSE.  See the
  14:src/hbprotocol/machine_protocol.c **** * GNU General Public License for more details.
  15:src/hbprotocol/machine_protocol.c **** *
  16:src/hbprotocol/machine_protocol.c **** * You should have received a copy of the GNU General Public License
  17:src/hbprotocol/machine_protocol.c **** * along with this program.  If not, see <http://www.gnu.org/licenses/>.
  18:src/hbprotocol/machine_protocol.c **** */
  19:src/hbprotocol/machine_protocol.c **** 
  20:src/hbprotocol/machine_protocol.c **** /*
  21:src/hbprotocol/machine_protocol.c **** * usage:
  22:src/hbprotocol/machine_protocol.c **** * call void protocol_byte( unsigned char byte ); with incoming bytes from main.call
  23:src/hbprotocol/machine_protocol.c **** * will call protocol_process_message when message received (protocol.c)
  24:src/hbprotocol/machine_protocol.c **** * call protocol_post to send a message
  25:src/hbprotocol/machine_protocol.c **** */
  26:src/hbprotocol/machine_protocol.c **** 
  27:src/hbprotocol/machine_protocol.c **** #include "protocol_private.h"
  28:src/hbprotocol/machine_protocol.c **** #include "cobsr.h"
  29:src/hbprotocol/machine_protocol.c **** 
  30:src/hbprotocol/machine_protocol.c **** #include <string.h>
  31:src/hbprotocol/machine_protocol.c **** #include <stdlib.h>
  32:src/hbprotocol/machine_protocol.c **** 
ARM GAS  /tmp/cc7G3T4Q.s 			page 2


  33:src/hbprotocol/machine_protocol.c **** 
  34:src/hbprotocol/machine_protocol.c **** 
  35:src/hbprotocol/machine_protocol.c **** 
  36:src/hbprotocol/machine_protocol.c **** 
  37:src/hbprotocol/machine_protocol.c **** static unsigned char mpGetTxByte(MACHINE_PROTOCOL_TX_BUFFER *buf);
  38:src/hbprotocol/machine_protocol.c **** static char mpGetTxMsg(MACHINE_PROTOCOL_TX_BUFFER *buf, unsigned char *dest);
  39:src/hbprotocol/machine_protocol.c **** static void mpPutTx(MACHINE_PROTOCOL_TX_BUFFER *buf, unsigned char value);
  40:src/hbprotocol/machine_protocol.c **** 
  41:src/hbprotocol/machine_protocol.c **** //////////////////////////////////////////////////////////////////
  42:src/hbprotocol/machine_protocol.c **** 
  43:src/hbprotocol/machine_protocol.c **** 
  44:src/hbprotocol/machine_protocol.c **** 
  45:src/hbprotocol/machine_protocol.c **** 
  46:src/hbprotocol/machine_protocol.c **** #define PROTOCOL_STATE_IDLE 0
  47:src/hbprotocol/machine_protocol.c **** #define PROTOCOL_STATE_WAIT_CMD 1
  48:src/hbprotocol/machine_protocol.c **** #define PROTOCOL_STATE_WAIT_CI 2
  49:src/hbprotocol/machine_protocol.c **** #define PROTOCOL_STATE_WAIT_LEN 3
  50:src/hbprotocol/machine_protocol.c **** #define PROTOCOL_STATE_WAIT_END 4
  51:src/hbprotocol/machine_protocol.c **** #define PROTOCOL_STATE_BADCHAR 5
  52:src/hbprotocol/machine_protocol.c **** 
  53:src/hbprotocol/machine_protocol.c **** #define PROTOCOL_ACK_TX_IDLE 0
  54:src/hbprotocol/machine_protocol.c **** #define PROTOCOL_ACK_TX_WAITING 1
  55:src/hbprotocol/machine_protocol.c **** 
  56:src/hbprotocol/machine_protocol.c **** 
  57:src/hbprotocol/machine_protocol.c **** 
  58:src/hbprotocol/machine_protocol.c **** // private to us
  59:src/hbprotocol/machine_protocol.c **** static void protocol_send_nack(int (*send_serial_data)( unsigned char *data, int len ), unsigned ch
  60:src/hbprotocol/machine_protocol.c **** static void protocol_send_ack(int (*send_serial_data)( unsigned char *data, int len ), unsigned cha
  61:src/hbprotocol/machine_protocol.c **** static int protocol_send(PROTOCOL_STAT *s, PROTOCOL_MSG3full *msg);
  62:src/hbprotocol/machine_protocol.c **** static int protocol_send_raw(int (*send_serial_data)( unsigned char *data, int len ), PROTOCOL_MSG3
  63:src/hbprotocol/machine_protocol.c **** 
  64:src/hbprotocol/machine_protocol.c **** 
  65:src/hbprotocol/machine_protocol.c **** int protocol_cobsr_decode(PROTOCOL_MSG3 *msg)
  66:src/hbprotocol/machine_protocol.c **** {
  67:src/hbprotocol/machine_protocol.c ****     cobsr_decode_result result = cobsr_decode(msg->bytes, (size_t)msg->len, msg->bytes, (size_t)msg
  68:src/hbprotocol/machine_protocol.c **** 
  69:src/hbprotocol/machine_protocol.c ****     if(result.out_len == 1) // Minimum CS
  70:src/hbprotocol/machine_protocol.c ****     {
  71:src/hbprotocol/machine_protocol.c ****         msg->len = 0;                  // No Code, no Payload
  72:src/hbprotocol/machine_protocol.c ****         msg->bytes[1] = msg->bytes[0]; // Copy Checksum one byte further to create space for 'code'
  73:src/hbprotocol/machine_protocol.c ****         msg->bytes[0] = 0;             // Set 'code' which was optional to 0
  74:src/hbprotocol/machine_protocol.c ****     }
  75:src/hbprotocol/machine_protocol.c ****     else if(result.out_len >= 2) // CS and Code and optional payload
  76:src/hbprotocol/machine_protocol.c ****     {
  77:src/hbprotocol/machine_protocol.c ****         msg->len = (unsigned char) result.out_len - sizeof(unsigned char) - sizeof(unsigned char); 
  78:src/hbprotocol/machine_protocol.c ****     }
  79:src/hbprotocol/machine_protocol.c ****     else
  80:src/hbprotocol/machine_protocol.c ****     {
  81:src/hbprotocol/machine_protocol.c ****         return -1; // Message too short, invalid.
  82:src/hbprotocol/machine_protocol.c ****     }
  83:src/hbprotocol/machine_protocol.c ****     return (int) result.status;
  84:src/hbprotocol/machine_protocol.c **** }
  85:src/hbprotocol/machine_protocol.c **** 
  86:src/hbprotocol/machine_protocol.c **** int protocol_cobsr_encode(PROTOCOL_MSG3 *msg)
  87:src/hbprotocol/machine_protocol.c **** {
  88:src/hbprotocol/machine_protocol.c ****     // COBSR encoding can result in a length which is 1 byte longer. Enough Memory has to be provid
  89:src/hbprotocol/machine_protocol.c ****     cobsr_encode_result result = cobsr_encode(msg->bytes, (size_t)msg->len + 1, msg->bytes, (size_t
ARM GAS  /tmp/cc7G3T4Q.s 			page 3


  90:src/hbprotocol/machine_protocol.c **** 
  91:src/hbprotocol/machine_protocol.c ****     if(result.out_len >= 1) // At least CS
  92:src/hbprotocol/machine_protocol.c ****     {
  93:src/hbprotocol/machine_protocol.c ****         msg->len = (unsigned char) result.out_len;
  94:src/hbprotocol/machine_protocol.c ****     }
  95:src/hbprotocol/machine_protocol.c ****     else
  96:src/hbprotocol/machine_protocol.c ****     {
  97:src/hbprotocol/machine_protocol.c ****         return -1; // Message too short, invalid.
  98:src/hbprotocol/machine_protocol.c ****     }
  99:src/hbprotocol/machine_protocol.c ****     return (int) result.status;
 100:src/hbprotocol/machine_protocol.c **** }
 101:src/hbprotocol/machine_protocol.c **** 
 102:src/hbprotocol/machine_protocol.c **** void protocol_SOM_decode(PROTOCOL_MSG3 *msg) {
 103:src/hbprotocol/machine_protocol.c **** 
 104:src/hbprotocol/machine_protocol.c ****     if(0b10000000 & msg->cmd) {
 105:src/hbprotocol/machine_protocol.c ****         msg->SOM = PROTOCOL_SOM_ACK;
 106:src/hbprotocol/machine_protocol.c ****     } else {
 107:src/hbprotocol/machine_protocol.c ****         msg->SOM = PROTOCOL_SOM_NOACK;
 108:src/hbprotocol/machine_protocol.c ****     }
 109:src/hbprotocol/machine_protocol.c **** 
 110:src/hbprotocol/machine_protocol.c ****     msg->cmd = 0b01111111 & msg->cmd;
 111:src/hbprotocol/machine_protocol.c **** }
 112:src/hbprotocol/machine_protocol.c **** 
 113:src/hbprotocol/machine_protocol.c **** int protocol_SOM_encode(PROTOCOL_MSG3 *msg) {
 114:src/hbprotocol/machine_protocol.c **** 
 115:src/hbprotocol/machine_protocol.c ****     if( msg->SOM == PROTOCOL_SOM_ACK ) {
 116:src/hbprotocol/machine_protocol.c ****         msg->cmd = msg->cmd | 0b10000000;
 117:src/hbprotocol/machine_protocol.c ****         msg->SOM = PROTOCOL_SOM;
 118:src/hbprotocol/machine_protocol.c ****         return 0; // all went well
 119:src/hbprotocol/machine_protocol.c **** 
 120:src/hbprotocol/machine_protocol.c ****     } else  if( msg->SOM == PROTOCOL_SOM_NOACK ) {
 121:src/hbprotocol/machine_protocol.c ****         msg->cmd = msg->cmd & 0b01111111;
 122:src/hbprotocol/machine_protocol.c ****         msg->SOM = PROTOCOL_SOM;
 123:src/hbprotocol/machine_protocol.c ****         return 0; // all went well
 124:src/hbprotocol/machine_protocol.c ****     }
 125:src/hbprotocol/machine_protocol.c **** 
 126:src/hbprotocol/machine_protocol.c ****     return 1; // Unknowm SOM
 127:src/hbprotocol/machine_protocol.c **** 
 128:src/hbprotocol/machine_protocol.c **** }
 129:src/hbprotocol/machine_protocol.c **** 
 130:src/hbprotocol/machine_protocol.c **** // called from main.c
 131:src/hbprotocol/machine_protocol.c **** // externed in protocol.h
 132:src/hbprotocol/machine_protocol.c **** void protocol_byte(PROTOCOL_STAT *s, unsigned char byte ){
 133:src/hbprotocol/machine_protocol.c **** 
 134:src/hbprotocol/machine_protocol.c ****     s->last_char_time = protocol_GetTick();
 135:src/hbprotocol/machine_protocol.c **** 
 136:src/hbprotocol/machine_protocol.c **** 
 137:src/hbprotocol/machine_protocol.c ****     if (byte == PROTOCOL_SOM) {
 138:src/hbprotocol/machine_protocol.c ****         // PROTOCOL_SOM indicates a new protocol Message.
 139:src/hbprotocol/machine_protocol.c ****         switch(s->state) {
 140:src/hbprotocol/machine_protocol.c ****             case PROTOCOL_STATE_IDLE:
 141:src/hbprotocol/machine_protocol.c ****                 // Everything as planned, start new Message.
 142:src/hbprotocol/machine_protocol.c ****                 break;
 143:src/hbprotocol/machine_protocol.c ****             case PROTOCOL_STATE_WAIT_CMD:
 144:src/hbprotocol/machine_protocol.c ****             case PROTOCOL_STATE_WAIT_CI:
 145:src/hbprotocol/machine_protocol.c ****                 // Not idle, no new CI received yet. Send NACK with incremented CI.
 146:src/hbprotocol/machine_protocol.c ****                 protocol_send_nack(s->send_serial_data, s->curr_msg.CI+1, s->curr_msg.SOM);
ARM GAS  /tmp/cc7G3T4Q.s 			page 4


 147:src/hbprotocol/machine_protocol.c ****                 break;
 148:src/hbprotocol/machine_protocol.c ****             default:
 149:src/hbprotocol/machine_protocol.c ****                 // all other cases, send NACK for current CI. Even though we no it might be wrong..
 150:src/hbprotocol/machine_protocol.c ****                 protocol_send_nack(s->send_serial_data, s->curr_msg.CI, s->curr_msg.SOM);
 151:src/hbprotocol/machine_protocol.c ****                 break;
 152:src/hbprotocol/machine_protocol.c ****         }
 153:src/hbprotocol/machine_protocol.c ****         s->curr_msg.SOM = byte;
 154:src/hbprotocol/machine_protocol.c ****         s->CS = 0;
 155:src/hbprotocol/machine_protocol.c ****         s->state = PROTOCOL_STATE_WAIT_CMD;
 156:src/hbprotocol/machine_protocol.c ****         return; // leave function.
 157:src/hbprotocol/machine_protocol.c ****     }
 158:src/hbprotocol/machine_protocol.c **** 
 159:src/hbprotocol/machine_protocol.c ****     switch(s->state){
 160:src/hbprotocol/machine_protocol.c ****     case PROTOCOL_STATE_BADCHAR:
 161:src/hbprotocol/machine_protocol.c ****     case PROTOCOL_STATE_IDLE:
 162:src/hbprotocol/machine_protocol.c ****         if (s->allow_ascii){
 163:src/hbprotocol/machine_protocol.c ****             //////////////////////////////////////////////////////
 164:src/hbprotocol/machine_protocol.c ****             // if the byte was NOT SOM (02), then treat it as an
 165:src/hbprotocol/machine_protocol.c ****             // ascii protocol byte.  BOTH protocol can co-exist
 166:src/hbprotocol/machine_protocol.c ****             s->last_char_time = 0;
 167:src/hbprotocol/machine_protocol.c ****             ascii_byte(s, byte );
 168:src/hbprotocol/machine_protocol.c ****             //////////////////////////////////////////////////////
 169:src/hbprotocol/machine_protocol.c ****         } else {
 170:src/hbprotocol/machine_protocol.c ****             s->state = PROTOCOL_STATE_BADCHAR;
 171:src/hbprotocol/machine_protocol.c ****         }
 172:src/hbprotocol/machine_protocol.c ****         break;
 173:src/hbprotocol/machine_protocol.c **** 
 174:src/hbprotocol/machine_protocol.c ****     case PROTOCOL_STATE_WAIT_CMD:
 175:src/hbprotocol/machine_protocol.c ****         s->curr_msg.cmd = byte;
 176:src/hbprotocol/machine_protocol.c ****         s->state = PROTOCOL_STATE_WAIT_CI;
 177:src/hbprotocol/machine_protocol.c ****         break;
 178:src/hbprotocol/machine_protocol.c **** 
 179:src/hbprotocol/machine_protocol.c ****     case PROTOCOL_STATE_WAIT_CI:
 180:src/hbprotocol/machine_protocol.c ****         s->curr_msg.CI = byte;
 181:src/hbprotocol/machine_protocol.c ****         s->state = PROTOCOL_STATE_WAIT_LEN;
 182:src/hbprotocol/machine_protocol.c ****         break;
 183:src/hbprotocol/machine_protocol.c **** 
 184:src/hbprotocol/machine_protocol.c ****     case PROTOCOL_STATE_WAIT_LEN:
 185:src/hbprotocol/machine_protocol.c ****         s->curr_msg.len = byte;
 186:src/hbprotocol/machine_protocol.c ****         s->count = 0;
 187:src/hbprotocol/machine_protocol.c ****         s->state = PROTOCOL_STATE_WAIT_END;
 188:src/hbprotocol/machine_protocol.c ****         break;
 189:src/hbprotocol/machine_protocol.c **** 
 190:src/hbprotocol/machine_protocol.c ****     case PROTOCOL_STATE_WAIT_END:
 191:src/hbprotocol/machine_protocol.c ****         s->curr_msg.bytes[s->count++] = byte;
 192:src/hbprotocol/machine_protocol.c **** 
 193:src/hbprotocol/machine_protocol.c ****         if (s->count == s->curr_msg.len){
 194:src/hbprotocol/machine_protocol.c ****             s->last_char_time = 0;
 195:src/hbprotocol/machine_protocol.c ****             s->state = PROTOCOL_STATE_IDLE;
 196:src/hbprotocol/machine_protocol.c **** 
 197:src/hbprotocol/machine_protocol.c **** 
 198:src/hbprotocol/machine_protocol.c ****             // Decode COBS/R
 199:src/hbprotocol/machine_protocol.c ****             if(protocol_cobsr_decode(&s->curr_msg) != 0) {
 200:src/hbprotocol/machine_protocol.c ****                 protocol_send_nack(s->send_serial_data, s->curr_msg.CI, s->curr_msg.SOM);
 201:src/hbprotocol/machine_protocol.c ****             }
 202:src/hbprotocol/machine_protocol.c **** 
 203:src/hbprotocol/machine_protocol.c ****             // Verify Checksum
ARM GAS  /tmp/cc7G3T4Q.s 			page 5


 204:src/hbprotocol/machine_protocol.c ****             s->CS = s->curr_msg.SOM + s->curr_msg.cmd + s->curr_msg.CI + s->curr_msg.len;
 205:src/hbprotocol/machine_protocol.c **** 
 206:src/hbprotocol/machine_protocol.c ****             for (int i = 0; i < s->curr_msg.len + 2; i++) { // Include 'code' and CS in calculation
 207:src/hbprotocol/machine_protocol.c ****                 s->CS += s->curr_msg.bytes[i];
 208:src/hbprotocol/machine_protocol.c ****             }
 209:src/hbprotocol/machine_protocol.c **** 
 210:src/hbprotocol/machine_protocol.c ****             // Decode SOM
 211:src/hbprotocol/machine_protocol.c ****             protocol_SOM_decode(&s->curr_msg);
 212:src/hbprotocol/machine_protocol.c **** 
 213:src/hbprotocol/machine_protocol.c ****             switch(s->curr_msg.SOM) {
 214:src/hbprotocol/machine_protocol.c ****             case PROTOCOL_SOM_ACK:
 215:src/hbprotocol/machine_protocol.c ****                 switch(s->curr_msg.cmd) {
 216:src/hbprotocol/machine_protocol.c ****                 case PROTOCOL_CMD_ACK:
 217:src/hbprotocol/machine_protocol.c ****                     if (s->send_state == PROTOCOL_ACK_TX_WAITING){
 218:src/hbprotocol/machine_protocol.c ****                         if (s->curr_msg.CI == s->ack.curr_send_msg.CI){
 219:src/hbprotocol/machine_protocol.c ****                             s->ack.last_send_time = 0;
 220:src/hbprotocol/machine_protocol.c ****                             s->send_state = PROTOCOL_ACK_TX_IDLE;
 221:src/hbprotocol/machine_protocol.c ****                             // if we got ack, then try to send a next message
 222:src/hbprotocol/machine_protocol.c ****                             int txcount = mpTxQueued(&s->ack.TxBuffer);
 223:src/hbprotocol/machine_protocol.c ****                             if (txcount){
 224:src/hbprotocol/machine_protocol.c ****                                 // send from tx queue
 225:src/hbprotocol/machine_protocol.c ****                                 protocol_send(s, NULL);
 226:src/hbprotocol/machine_protocol.c ****                             }
 227:src/hbprotocol/machine_protocol.c ****                         } else {
 228:src/hbprotocol/machine_protocol.c ****                             // ignore
 229:src/hbprotocol/machine_protocol.c ****                             s->ack.counters.unwantedacks++;
 230:src/hbprotocol/machine_protocol.c ****                             // 'if an ACK is received which contains a CI different to the last sen
 231:src/hbprotocol/machine_protocol.c ****                         }
 232:src/hbprotocol/machine_protocol.c ****                     } else {
 233:src/hbprotocol/machine_protocol.c ****                         // ignore, sort of:
 234:src/hbprotocol/machine_protocol.c ****                         // 'if an ACK is received which contains the same CI as the last ACK, the A
 235:src/hbprotocol/machine_protocol.c ****                         s->ack.counters.unwantedacks++;
 236:src/hbprotocol/machine_protocol.c ****                     }
 237:src/hbprotocol/machine_protocol.c ****                     break;
 238:src/hbprotocol/machine_protocol.c **** 
 239:src/hbprotocol/machine_protocol.c ****                 case PROTOCOL_CMD_NACK:
 240:src/hbprotocol/machine_protocol.c ****                     // 'If an end receives a NACK, it should resend the last message with the same 
 241:src/hbprotocol/machine_protocol.c ****                     if (s->send_state == PROTOCOL_ACK_TX_WAITING){
 242:src/hbprotocol/machine_protocol.c ****                         // ignore CI
 243:src/hbprotocol/machine_protocol.c ****                         if (s->ack.retries > 0){
 244:src/hbprotocol/machine_protocol.c ****                             s->ack.counters.txRetries++;
 245:src/hbprotocol/machine_protocol.c ****                             protocol_send_raw(s->send_serial_data, &s->ack.curr_send_msg);
 246:src/hbprotocol/machine_protocol.c ****                             s->ack.last_send_time = protocol_GetTick();
 247:src/hbprotocol/machine_protocol.c ****                             s->ack.retries--;
 248:src/hbprotocol/machine_protocol.c ****                         } else {
 249:src/hbprotocol/machine_protocol.c ****                             s->send_state = PROTOCOL_ACK_TX_IDLE;
 250:src/hbprotocol/machine_protocol.c ****                             s->ack.counters.txFailed++;
 251:src/hbprotocol/machine_protocol.c ****                             // if we run out of retries, then try to send a next message
 252:src/hbprotocol/machine_protocol.c ****                             int txcount = mpTxQueued(&s->ack.TxBuffer);
 253:src/hbprotocol/machine_protocol.c ****                             if (txcount){
 254:src/hbprotocol/machine_protocol.c ****                                 // send from tx queue
 255:src/hbprotocol/machine_protocol.c ****                                 protocol_send(s, NULL);
 256:src/hbprotocol/machine_protocol.c ****                             }
 257:src/hbprotocol/machine_protocol.c ****                         }
 258:src/hbprotocol/machine_protocol.c ****                     } else {
 259:src/hbprotocol/machine_protocol.c ****                         // unsolicited NACK received?
 260:src/hbprotocol/machine_protocol.c ****                         s->ack.counters.unwantednacks++;
ARM GAS  /tmp/cc7G3T4Q.s 			page 6


 261:src/hbprotocol/machine_protocol.c ****                         // ignore
 262:src/hbprotocol/machine_protocol.c ****                     }
 263:src/hbprotocol/machine_protocol.c ****                     break;
 264:src/hbprotocol/machine_protocol.c ****                 default:
 265:src/hbprotocol/machine_protocol.c ****                     if (s->CS != 0){
 266:src/hbprotocol/machine_protocol.c ****                         // Checksum invalid. Complain and Discard.
 267:src/hbprotocol/machine_protocol.c ****                         protocol_send_nack(s->send_serial_data, s->curr_msg.CI, s->curr_msg.SOM);
 268:src/hbprotocol/machine_protocol.c ****                         break;
 269:src/hbprotocol/machine_protocol.c ****                     }
 270:src/hbprotocol/machine_protocol.c **** 
 271:src/hbprotocol/machine_protocol.c ****                     if (s->ack.lastRXCI == s->curr_msg.CI) {
 272:src/hbprotocol/machine_protocol.c ****                         // 'if a message is received with the same CI as the last received message,
 273:src/hbprotocol/machine_protocol.c ****                         protocol_send_ack(s->send_serial_data, s->curr_msg.CI);
 274:src/hbprotocol/machine_protocol.c ****                         break;
 275:src/hbprotocol/machine_protocol.c ****                     }
 276:src/hbprotocol/machine_protocol.c **** 
 277:src/hbprotocol/machine_protocol.c ****                     if( s->curr_msg.CI < s->ack.lastRXCI) {
 278:src/hbprotocol/machine_protocol.c ****                         // CI is smaller than a received message. Probably Overflow of CI. (Other c
 279:src/hbprotocol/machine_protocol.c ****                         s->ack.lastRXCI = s->ack.lastRXCI - 256; // Max value of char is 255
 280:src/hbprotocol/machine_protocol.c ****                     }
 281:src/hbprotocol/machine_protocol.c **** 
 282:src/hbprotocol/machine_protocol.c ****                     // Add to rxMissing Counter, when CIs where skipped
 283:src/hbprotocol/machine_protocol.c ****                     s->ack.counters.rxMissing += s->curr_msg.CI - (s->ack.lastRXCI + 1);
 284:src/hbprotocol/machine_protocol.c **** 
 285:src/hbprotocol/machine_protocol.c ****                     // process message
 286:src/hbprotocol/machine_protocol.c ****                     protocol_send_ack(s->send_serial_data, s->curr_msg.CI);
 287:src/hbprotocol/machine_protocol.c ****                     s->ack.lastRXCI = s->curr_msg.CI;
 288:src/hbprotocol/machine_protocol.c ****                     s->ack.counters.rx++;
 289:src/hbprotocol/machine_protocol.c ****                     protocol_process_message(s, (PROTOCOL_MSG3full *)&(s->curr_msg));
 290:src/hbprotocol/machine_protocol.c ****                     break;
 291:src/hbprotocol/machine_protocol.c ****                 }
 292:src/hbprotocol/machine_protocol.c ****                 break;
 293:src/hbprotocol/machine_protocol.c **** 
 294:src/hbprotocol/machine_protocol.c ****             case PROTOCOL_SOM_NOACK:
 295:src/hbprotocol/machine_protocol.c ****                 switch(s->curr_msg.cmd) {
 296:src/hbprotocol/machine_protocol.c ****                 case PROTOCOL_CMD_ACK:
 297:src/hbprotocol/machine_protocol.c ****                     // We shouldn't get ACKs in the NoACK protocol..
 298:src/hbprotocol/machine_protocol.c ****                     s->noack.counters.unwantedacks++;
 299:src/hbprotocol/machine_protocol.c ****                     break;
 300:src/hbprotocol/machine_protocol.c **** 
 301:src/hbprotocol/machine_protocol.c ****                 case PROTOCOL_CMD_NACK:
 302:src/hbprotocol/machine_protocol.c ****                     // 'If an end receives a NACK, it should resend the last message with the same 
 303:src/hbprotocol/machine_protocol.c ****                     if (s->noack.retries > 0){
 304:src/hbprotocol/machine_protocol.c ****                         s->noack.counters.txRetries++;
 305:src/hbprotocol/machine_protocol.c ****                         protocol_send_raw(s->send_serial_data, &s->noack.curr_send_msg);
 306:src/hbprotocol/machine_protocol.c ****                         s->noack.retries--;
 307:src/hbprotocol/machine_protocol.c ****                     } else {
 308:src/hbprotocol/machine_protocol.c ****                         s->noack.counters.txFailed++;
 309:src/hbprotocol/machine_protocol.c ****                         // if we run out of retries, then try to send a next message
 310:src/hbprotocol/machine_protocol.c ****                         int txcount = mpTxQueued(&s->noack.TxBuffer);
 311:src/hbprotocol/machine_protocol.c ****                         if (txcount){
 312:src/hbprotocol/machine_protocol.c ****                             // send from tx queue
 313:src/hbprotocol/machine_protocol.c ****                             protocol_send(s, NULL);
 314:src/hbprotocol/machine_protocol.c ****                         }
 315:src/hbprotocol/machine_protocol.c ****                     }
 316:src/hbprotocol/machine_protocol.c ****                     break;
 317:src/hbprotocol/machine_protocol.c ****                 default:
ARM GAS  /tmp/cc7G3T4Q.s 			page 7


 318:src/hbprotocol/machine_protocol.c ****                     if (s->CS != 0){
 319:src/hbprotocol/machine_protocol.c ****                         // Checksum invalid. Complain and Discard.
 320:src/hbprotocol/machine_protocol.c ****                         protocol_send_nack(s->send_serial_data, s->curr_msg.CI, s->curr_msg.SOM);
 321:src/hbprotocol/machine_protocol.c ****                         break;
 322:src/hbprotocol/machine_protocol.c ****                     }
 323:src/hbprotocol/machine_protocol.c **** 
 324:src/hbprotocol/machine_protocol.c ****                     if (s->noack.lastRXCI == s->curr_msg.CI) {
 325:src/hbprotocol/machine_protocol.c ****                         // if a message is received with the same CI as the last received message, 
 326:src/hbprotocol/machine_protocol.c ****                         break;
 327:src/hbprotocol/machine_protocol.c ****                     }
 328:src/hbprotocol/machine_protocol.c **** 
 329:src/hbprotocol/machine_protocol.c ****                     if( s->curr_msg.CI < s->noack.lastRXCI) {
 330:src/hbprotocol/machine_protocol.c ****                         // CI is smaller than a received message. Probably Overflow of CI. (Other c
 331:src/hbprotocol/machine_protocol.c ****                         s->noack.lastRXCI = s->noack.lastRXCI - 256; // Max value of char is 255
 332:src/hbprotocol/machine_protocol.c ****                     }
 333:src/hbprotocol/machine_protocol.c **** 
 334:src/hbprotocol/machine_protocol.c ****                     // Add to rxMissing Counter, when CIs where skipped
 335:src/hbprotocol/machine_protocol.c ****                     s->noack.counters.rxMissing += s->curr_msg.CI - (s->noack.lastRXCI + 1);
 336:src/hbprotocol/machine_protocol.c **** 
 337:src/hbprotocol/machine_protocol.c ****                     // process message
 338:src/hbprotocol/machine_protocol.c ****                     s->noack.lastRXCI = s->curr_msg.CI;
 339:src/hbprotocol/machine_protocol.c ****                     s->noack.counters.rx++;
 340:src/hbprotocol/machine_protocol.c ****                     protocol_process_message(s, (PROTOCOL_MSG3full *)&(s->curr_msg));
 341:src/hbprotocol/machine_protocol.c ****                     break;
 342:src/hbprotocol/machine_protocol.c ****                 }
 343:src/hbprotocol/machine_protocol.c ****                 break;
 344:src/hbprotocol/machine_protocol.c ****             }
 345:src/hbprotocol/machine_protocol.c ****             s->state = PROTOCOL_STATE_IDLE;
 346:src/hbprotocol/machine_protocol.c ****         }
 347:src/hbprotocol/machine_protocol.c ****         break;
 348:src/hbprotocol/machine_protocol.c ****     }
 349:src/hbprotocol/machine_protocol.c **** }
 350:src/hbprotocol/machine_protocol.c **** 
 351:src/hbprotocol/machine_protocol.c **** 
 352:src/hbprotocol/machine_protocol.c **** // private
 353:src/hbprotocol/machine_protocol.c **** void protocol_send_nack(int (*send_serial_data)( unsigned char *data, int len ), unsigned char CI, 
 354:src/hbprotocol/machine_protocol.c **** 
 355:src/hbprotocol/machine_protocol.c ****     // Enforce valid SOM, otherwise Message is discarded by protocol_send_raw.
 356:src/hbprotocol/machine_protocol.c ****     // PROTOCOL_SOM_ACK is chosen to ensure backwards compatibilty.
 357:src/hbprotocol/machine_protocol.c ****     // If ANY SOM could be send, it would be identified as a badchar, which would trigger a NACK wi
 358:src/hbprotocol/machine_protocol.c ****     // That's an infinite loop of NACKs with invalid SOM.
 359:src/hbprotocol/machine_protocol.c ****     if(som != PROTOCOL_SOM_ACK && som != PROTOCOL_SOM_NOACK) {
 360:src/hbprotocol/machine_protocol.c ****         som = PROTOCOL_SOM_ACK;
 361:src/hbprotocol/machine_protocol.c ****     }
 362:src/hbprotocol/machine_protocol.c **** 
 363:src/hbprotocol/machine_protocol.c ****     // Enforce valid CI
 364:src/hbprotocol/machine_protocol.c ****     if(CI == 0) CI = 1;
 365:src/hbprotocol/machine_protocol.c **** 
 366:src/hbprotocol/machine_protocol.c ****     char tmp[] = { som, PROTOCOL_CMD_NACK, CI, 0, 0, 0, 0}; // Length 0, Memory for code, CS and st
 367:src/hbprotocol/machine_protocol.c ****     protocol_send_raw(send_serial_data, (PROTOCOL_MSG3full *)tmp);
 368:src/hbprotocol/machine_protocol.c **** }
 369:src/hbprotocol/machine_protocol.c **** 
 370:src/hbprotocol/machine_protocol.c **** // private
 371:src/hbprotocol/machine_protocol.c **** void protocol_send_ack(int (*send_serial_data)( unsigned char *data, int len ), unsigned char CI){
 372:src/hbprotocol/machine_protocol.c ****     char tmp[] = { PROTOCOL_SOM_ACK, PROTOCOL_CMD_ACK, CI, 0, 0, 0, 0}; // Length 0, Memory for cod
 373:src/hbprotocol/machine_protocol.c ****     protocol_send_raw(send_serial_data, (PROTOCOL_MSG3full *)tmp);
 374:src/hbprotocol/machine_protocol.c **** }
ARM GAS  /tmp/cc7G3T4Q.s 			page 8


 375:src/hbprotocol/machine_protocol.c **** 
 376:src/hbprotocol/machine_protocol.c **** 
 377:src/hbprotocol/machine_protocol.c **** // called to send a message.
 378:src/hbprotocol/machine_protocol.c **** // just supply len|bytes - no SOM, CI, or CS
 379:src/hbprotocol/machine_protocol.c **** // returns:
 380:src/hbprotocol/machine_protocol.c **** //  -1 - cannot even queue
 381:src/hbprotocol/machine_protocol.c **** //  0 sent immediately
 382:src/hbprotocol/machine_protocol.c **** //  1 queued for later TX
 383:src/hbprotocol/machine_protocol.c **** int protocol_post(PROTOCOL_STAT *s, PROTOCOL_MSG3full *msg){
 384:src/hbprotocol/machine_protocol.c **** 
 385:src/hbprotocol/machine_protocol.c ****     if(msg->SOM == PROTOCOL_SOM_ACK) {
 386:src/hbprotocol/machine_protocol.c ****         int txcount = mpTxQueued(&s->ack.TxBuffer);
 387:src/hbprotocol/machine_protocol.c ****         if ((s->send_state != PROTOCOL_ACK_TX_WAITING) && !txcount){
 388:src/hbprotocol/machine_protocol.c **** 
 389:src/hbprotocol/machine_protocol.c ****             return protocol_send(s, msg);
 390:src/hbprotocol/machine_protocol.c ****         }
 391:src/hbprotocol/machine_protocol.c **** 
 392:src/hbprotocol/machine_protocol.c ****         // add to tx queue
 393:src/hbprotocol/machine_protocol.c ****         int total = msg->lenPayload + 4; // cmd, CI, len, code + size of content
 394:src/hbprotocol/machine_protocol.c **** 
 395:src/hbprotocol/machine_protocol.c ****         if (txcount + total >= MACHINE_PROTOCOL_TX_BUFFER_SIZE-2) {
 396:src/hbprotocol/machine_protocol.c ****             s->ack.TxBuffer.overflow++;
 397:src/hbprotocol/machine_protocol.c ****             return -1;
 398:src/hbprotocol/machine_protocol.c ****         }
 399:src/hbprotocol/machine_protocol.c **** 
 400:src/hbprotocol/machine_protocol.c ****         char *src = (char *) &(msg->cmd); // Do not copy SOM
 401:src/hbprotocol/machine_protocol.c ****         for (int i = 0; i < total; i++) {
 402:src/hbprotocol/machine_protocol.c ****             mpPutTx(&s->ack.TxBuffer, *(src++));
 403:src/hbprotocol/machine_protocol.c ****         }
 404:src/hbprotocol/machine_protocol.c **** 
 405:src/hbprotocol/machine_protocol.c ****         return 1; // added to queue
 406:src/hbprotocol/machine_protocol.c **** 
 407:src/hbprotocol/machine_protocol.c ****     } else if(msg->SOM == PROTOCOL_SOM_NOACK) { // Do not buffer NOACK Messages.
 408:src/hbprotocol/machine_protocol.c ****         return protocol_send(s, msg);
 409:src/hbprotocol/machine_protocol.c ****     }
 410:src/hbprotocol/machine_protocol.c ****     return -1;
 411:src/hbprotocol/machine_protocol.c **** }
 412:src/hbprotocol/machine_protocol.c **** 
 413:src/hbprotocol/machine_protocol.c **** 
 414:src/hbprotocol/machine_protocol.c **** // private
 415:src/hbprotocol/machine_protocol.c **** // note: if NULL in, send one message from queue
 416:src/hbprotocol/machine_protocol.c **** int protocol_send(PROTOCOL_STAT *s, PROTOCOL_MSG3full *msg){
 417:src/hbprotocol/machine_protocol.c ****     if(msg) {
 418:src/hbprotocol/machine_protocol.c ****         if(msg->SOM == PROTOCOL_SOM_ACK && s->send_state == PROTOCOL_ACK_TX_WAITING) {
 419:src/hbprotocol/machine_protocol.c ****             // Tried to Send Message which requires ACK, but a message is still pending.
 420:src/hbprotocol/machine_protocol.c ****             return -1;
 421:src/hbprotocol/machine_protocol.c **** 
 422:src/hbprotocol/machine_protocol.c ****         } else if(msg->SOM == PROTOCOL_SOM_ACK && s->send_state == PROTOCOL_ACK_TX_IDLE) {
 423:src/hbprotocol/machine_protocol.c ****             // Idling (not waiting for ACK), send the Message directly
 424:src/hbprotocol/machine_protocol.c ****             memcpy(&s->ack.curr_send_msg, msg, 5 + msg->lenPayload); // SOM, cmd, CI, len, code + s
 425:src/hbprotocol/machine_protocol.c ****             if( !(++(s->ack.lastTXCI)) ) s->ack.lastTXCI = 1;        // 0 is not a valid CI
 426:src/hbprotocol/machine_protocol.c ****             s->ack.curr_send_msg.CI = s->ack.lastTXCI;
 427:src/hbprotocol/machine_protocol.c ****             s->ack.counters.tx++;
 428:src/hbprotocol/machine_protocol.c ****             protocol_send_raw(s->send_serial_data, &s->ack.curr_send_msg);
 429:src/hbprotocol/machine_protocol.c ****             s->send_state = PROTOCOL_ACK_TX_WAITING;
 430:src/hbprotocol/machine_protocol.c ****             s->ack.last_send_time = protocol_GetTick();
 431:src/hbprotocol/machine_protocol.c ****             s->ack.retries = 2;
ARM GAS  /tmp/cc7G3T4Q.s 			page 9


 432:src/hbprotocol/machine_protocol.c ****             return 0;
 433:src/hbprotocol/machine_protocol.c **** 
 434:src/hbprotocol/machine_protocol.c ****         } else if (msg->SOM == PROTOCOL_SOM_NOACK) {
 435:src/hbprotocol/machine_protocol.c ****             // Send Message without ACK immediately
 436:src/hbprotocol/machine_protocol.c ****             memcpy(&s->noack.curr_send_msg, msg, 5 + msg->lenPayload); // SOM, cmd, CI, len, code +
 437:src/hbprotocol/machine_protocol.c ****             if( !(++(s->noack.lastTXCI)) ) s->noack.lastTXCI = 1;        // 0 is not a valid CI
 438:src/hbprotocol/machine_protocol.c ****             s->noack.curr_send_msg.CI = s->noack.lastTXCI;
 439:src/hbprotocol/machine_protocol.c ****             s->noack.counters.tx++;
 440:src/hbprotocol/machine_protocol.c ****             protocol_send_raw(s->send_serial_data, &s->noack.curr_send_msg);
 441:src/hbprotocol/machine_protocol.c ****             return 0;
 442:src/hbprotocol/machine_protocol.c **** 
 443:src/hbprotocol/machine_protocol.c ****         } else {
 444:src/hbprotocol/machine_protocol.c ****             // Shouldn't happen, unknowm SOM
 445:src/hbprotocol/machine_protocol.c ****             return -1;
 446:src/hbprotocol/machine_protocol.c ****         }
 447:src/hbprotocol/machine_protocol.c ****     } else {
 448:src/hbprotocol/machine_protocol.c ****         // No Message was given, work on Buffers then..
 449:src/hbprotocol/machine_protocol.c **** 
 450:src/hbprotocol/machine_protocol.c ****         if(s->send_state == PROTOCOL_STATE_IDLE && mpTxQueued(&s->ack.TxBuffer)) {
 451:src/hbprotocol/machine_protocol.c ****             // Make sure we are not waiting for another ACK. Check if There is something in the buf
 452:src/hbprotocol/machine_protocol.c ****             mpGetTxMsg(&s->ack.TxBuffer, &s->ack.curr_send_msg.cmd);
 453:src/hbprotocol/machine_protocol.c ****             s->ack.curr_send_msg.SOM = PROTOCOL_SOM_ACK;
 454:src/hbprotocol/machine_protocol.c ****             if( !(++(s->ack.lastTXCI)) ) s->ack.lastTXCI = 1;        // 0 is not a valid CI
 455:src/hbprotocol/machine_protocol.c ****             s->ack.curr_send_msg.CI = s->ack.lastTXCI;
 456:src/hbprotocol/machine_protocol.c ****             s->ack.counters.tx++;
 457:src/hbprotocol/machine_protocol.c ****             protocol_send_raw(s->send_serial_data, &s->ack.curr_send_msg);
 458:src/hbprotocol/machine_protocol.c ****             s->send_state = PROTOCOL_ACK_TX_WAITING;
 459:src/hbprotocol/machine_protocol.c ****             s->ack.last_send_time = protocol_GetTick();
 460:src/hbprotocol/machine_protocol.c ****             s->ack.retries = 2;
 461:src/hbprotocol/machine_protocol.c ****             return 0;
 462:src/hbprotocol/machine_protocol.c **** 
 463:src/hbprotocol/machine_protocol.c ****         } else {
 464:src/hbprotocol/machine_protocol.c ****             // Do the other queue
 465:src/hbprotocol/machine_protocol.c ****             int ismsg = mpGetTxMsg(&s->noack.TxBuffer, &s->noack.curr_send_msg.cmd);
 466:src/hbprotocol/machine_protocol.c ****             if (ismsg){
 467:src/hbprotocol/machine_protocol.c ****                 // Queue has message waiting
 468:src/hbprotocol/machine_protocol.c ****                 s->noack.curr_send_msg.SOM = PROTOCOL_SOM_NOACK;
 469:src/hbprotocol/machine_protocol.c ****                 if( !(++(s->noack.lastTXCI)) ) s->noack.lastTXCI = 1;        // 0 is not a valid CI
 470:src/hbprotocol/machine_protocol.c ****                 s->noack.curr_send_msg.CI = s->noack.lastTXCI;
 471:src/hbprotocol/machine_protocol.c ****                 s->noack.counters.tx++;
 472:src/hbprotocol/machine_protocol.c ****                 protocol_send_raw(s->send_serial_data, &s->noack.curr_send_msg);
 473:src/hbprotocol/machine_protocol.c ****                 return 0;
 474:src/hbprotocol/machine_protocol.c ****             }
 475:src/hbprotocol/machine_protocol.c ****         }
 476:src/hbprotocol/machine_protocol.c ****     }
 477:src/hbprotocol/machine_protocol.c ****     return -1; // nothing to send
 478:src/hbprotocol/machine_protocol.c **** }
 479:src/hbprotocol/machine_protocol.c **** 
 480:src/hbprotocol/machine_protocol.c **** 
 481:src/hbprotocol/machine_protocol.c **** // private
 482:src/hbprotocol/machine_protocol.c **** static int protocol_send_raw(int (*send_serial_data)( unsigned char *data, int len ), PROTOCOL_MSG3
 483:src/hbprotocol/machine_protocol.c **** 
 484:src/hbprotocol/machine_protocol.c ****     PROTOCOL_MSG3 *msg = (PROTOCOL_MSG3 *) msgFull;
 485:src/hbprotocol/machine_protocol.c **** 
 486:src/hbprotocol/machine_protocol.c **** 
 487:src/hbprotocol/machine_protocol.c ****     // Check if Messages is already encoded or not (Resends are already encoded.)
 488:src/hbprotocol/machine_protocol.c ****     if( msgFull->SOM != PROTOCOL_SOM) {
ARM GAS  /tmp/cc7G3T4Q.s 			page 10


 489:src/hbprotocol/machine_protocol.c ****     // Encode SOM
 490:src/hbprotocol/machine_protocol.c ****     if( protocol_SOM_encode(msg) != 0) return 1;
 491:src/hbprotocol/machine_protocol.c **** 
 492:src/hbprotocol/machine_protocol.c ****         // Calculate Checksum
 493:src/hbprotocol/machine_protocol.c ****         unsigned char CS = -msgFull->SOM -msgFull->cmd -msgFull->CI - msgFull->lenPayload;
 494:src/hbprotocol/machine_protocol.c **** 
 495:src/hbprotocol/machine_protocol.c ****         if( msgFull->code != 0) msg->len += 1; // Include code.
 496:src/hbprotocol/machine_protocol.c **** 
 497:src/hbprotocol/machine_protocol.c ****     int i;
 498:src/hbprotocol/machine_protocol.c ****         for (i = 0; i < msg->len; i++) {
 499:src/hbprotocol/machine_protocol.c ****         CS -= msg->bytes[i];
 500:src/hbprotocol/machine_protocol.c ****     }
 501:src/hbprotocol/machine_protocol.c ****     msg->bytes[i] = CS;
 502:src/hbprotocol/machine_protocol.c ****         msg->len += 1; // Include CS.
 503:src/hbprotocol/machine_protocol.c **** 
 504:src/hbprotocol/machine_protocol.c ****     // Encode COBS/R
 505:src/hbprotocol/machine_protocol.c ****         if(protocol_cobsr_encode(msg) != 0) return 2; // failed
 506:src/hbprotocol/machine_protocol.c ****     }
 507:src/hbprotocol/machine_protocol.c **** 
 508:src/hbprotocol/machine_protocol.c ****     // Send
 509:src/hbprotocol/machine_protocol.c ****     send_serial_data((unsigned char *) msg, msg->len+4); // len + size of SOM, cmd, CI & len
 510:src/hbprotocol/machine_protocol.c ****     return 0; // Successful
 511:src/hbprotocol/machine_protocol.c **** }
 512:src/hbprotocol/machine_protocol.c **** 
 513:src/hbprotocol/machine_protocol.c **** int protocol_send_text(PROTOCOL_STAT *s, char *message, unsigned char som) {
 514:src/hbprotocol/machine_protocol.c **** 
 515:src/hbprotocol/machine_protocol.c **** 
 516:src/hbprotocol/machine_protocol.c ****     if( (s->params[0x26]) && (strlen(message) <= s->params[0x26]->len ) ) {
 517:src/hbprotocol/machine_protocol.c **** 
 518:src/hbprotocol/machine_protocol.c ****         PROTOCOL_MSG3full newMsg;
 519:src/hbprotocol/machine_protocol.c ****         memset((void*)&newMsg,0x00,sizeof(PROTOCOL_MSG3full));
 520:src/hbprotocol/machine_protocol.c **** 
 521:src/hbprotocol/machine_protocol.c ****         newMsg.SOM = som;
 522:src/hbprotocol/machine_protocol.c ****         newMsg.lenPayload = strlen(message) + 1;  // +1 for Null character \0
 523:src/hbprotocol/machine_protocol.c **** 
 524:src/hbprotocol/machine_protocol.c ****         newMsg.cmd = PROTOCOL_CMD_WRITEVAL;
 525:src/hbprotocol/machine_protocol.c ****         newMsg.code = 0x26;                    // 0x26 for text
 526:src/hbprotocol/machine_protocol.c ****         strcpy( (char *) newMsg.content, message);
 527:src/hbprotocol/machine_protocol.c **** 
 528:src/hbprotocol/machine_protocol.c ****         protocol_post(s, &newMsg);
 529:src/hbprotocol/machine_protocol.c **** 
 530:src/hbprotocol/machine_protocol.c ****         return strlen(message);
 531:src/hbprotocol/machine_protocol.c ****     }
 532:src/hbprotocol/machine_protocol.c ****     return -1; // failed
 533:src/hbprotocol/machine_protocol.c **** }
 534:src/hbprotocol/machine_protocol.c **** 
 535:src/hbprotocol/machine_protocol.c **** // called regularly from main.c
 536:src/hbprotocol/machine_protocol.c **** // externed from protocol.h
 537:src/hbprotocol/machine_protocol.c **** void protocol_tick(PROTOCOL_STAT *s){
 538:src/hbprotocol/machine_protocol.c ****     s->last_tick_time = protocol_GetTick();
 539:src/hbprotocol/machine_protocol.c **** 
 540:src/hbprotocol/machine_protocol.c **** 
 541:src/hbprotocol/machine_protocol.c ****     if(s->send_state == PROTOCOL_ACK_TX_WAITING) {
 542:src/hbprotocol/machine_protocol.c ****         if ((s->last_tick_time - s->ack.last_send_time) > s->timeout1){
 543:src/hbprotocol/machine_protocol.c ****             // 'If an end does not receive an ACK response within (TIMEOUT1), it should resend the 
 544:src/hbprotocol/machine_protocol.c ****             if (s->ack.retries > 0){
 545:src/hbprotocol/machine_protocol.c ****                 s->ack.counters.txRetries++;
ARM GAS  /tmp/cc7G3T4Q.s 			page 11


 546:src/hbprotocol/machine_protocol.c ****                 protocol_send_raw(s->send_serial_data, &s->ack.curr_send_msg);
 547:src/hbprotocol/machine_protocol.c ****                 s->ack.last_send_time = protocol_GetTick();
 548:src/hbprotocol/machine_protocol.c ****                 s->ack.retries--;
 549:src/hbprotocol/machine_protocol.c ****             } else {
 550:src/hbprotocol/machine_protocol.c ****                 // if we run out of retries, then try to send a next message
 551:src/hbprotocol/machine_protocol.c ****                 s->send_state = PROTOCOL_ACK_TX_IDLE;
 552:src/hbprotocol/machine_protocol.c ****             }
 553:src/hbprotocol/machine_protocol.c ****         }
 554:src/hbprotocol/machine_protocol.c ****     }
 555:src/hbprotocol/machine_protocol.c **** 
 556:src/hbprotocol/machine_protocol.c ****     // send from tx queue
 557:src/hbprotocol/machine_protocol.c ****     protocol_send(s, NULL);
 558:src/hbprotocol/machine_protocol.c **** 
 559:src/hbprotocol/machine_protocol.c ****     switch(s->state){
 560:src/hbprotocol/machine_protocol.c ****         case PROTOCOL_STATE_IDLE:
 561:src/hbprotocol/machine_protocol.c ****             break;
 562:src/hbprotocol/machine_protocol.c ****         case PROTOCOL_STATE_BADCHAR:
 563:src/hbprotocol/machine_protocol.c ****             // 'normally, characters received BETWEEN messages which are not SOM should be treated 
 564:src/hbprotocol/machine_protocol.c ****             // 'implement a mode where non SOM characters between messages cause (TIMEOUT2) to be s
 565:src/hbprotocol/machine_protocol.c ****             // resulting in a _NACK with CI of last received message + 1_.'
 566:src/hbprotocol/machine_protocol.c ****             if ((s->last_tick_time - s->last_char_time) > s->timeout2){
 567:src/hbprotocol/machine_protocol.c ****                 protocol_send_nack(s->send_serial_data, s->curr_msg.CI+1, s->curr_msg.SOM);
 568:src/hbprotocol/machine_protocol.c ****                 s->last_char_time = 0;
 569:src/hbprotocol/machine_protocol.c ****                 s->state = PROTOCOL_STATE_IDLE;
 570:src/hbprotocol/machine_protocol.c ****             }
 571:src/hbprotocol/machine_protocol.c ****             break;
 572:src/hbprotocol/machine_protocol.c ****         default:
 573:src/hbprotocol/machine_protocol.c ****             // in a message
 574:src/hbprotocol/machine_protocol.c ****             // 'In receive, if in a message (SOM has been received) and the time since the last cha
 575:src/hbprotocol/machine_protocol.c ****             // exceeds (TIMEOUT2), the incomming message should be discarded,
 576:src/hbprotocol/machine_protocol.c ****             // and a NACK should be sent with the CI of the message in progress or zero if no CI re
 577:src/hbprotocol/machine_protocol.c ****             if ((s->last_tick_time - s->last_char_time) > s->timeout2){
 578:src/hbprotocol/machine_protocol.c ****                 protocol_send_nack(s->send_serial_data, s->curr_msg.CI, s->curr_msg.SOM);
 579:src/hbprotocol/machine_protocol.c ****                 s->last_char_time = 0;
 580:src/hbprotocol/machine_protocol.c ****                 s->state = PROTOCOL_STATE_IDLE;
 581:src/hbprotocol/machine_protocol.c ****             }
 582:src/hbprotocol/machine_protocol.c ****             break;
 583:src/hbprotocol/machine_protocol.c ****     }
 584:src/hbprotocol/machine_protocol.c **** 
 585:src/hbprotocol/machine_protocol.c **** 
 586:src/hbprotocol/machine_protocol.c ****     // process subscriptions
 587:src/hbprotocol/machine_protocol.c ****     int len = sizeof(s->subscriptions)/sizeof(s->subscriptions[0]);
 588:src/hbprotocol/machine_protocol.c ****     int index = 0;
 589:src/hbprotocol/machine_protocol.c **** 
 590:src/hbprotocol/machine_protocol.c ****     // Check if subscription exists.
 591:src/hbprotocol/machine_protocol.c ****     for (index = 0; index < len; index++) {
 592:src/hbprotocol/machine_protocol.c ****         if( s->subscriptions[index].code != 0 && s->subscriptions[index].count != 0 ) {
 593:src/hbprotocol/machine_protocol.c **** 
 594:src/hbprotocol/machine_protocol.c ****             // Check if message is due
 595:src/hbprotocol/machine_protocol.c ****             if( s->subscriptions[index].next_send_time <= s->last_tick_time) {
 596:src/hbprotocol/machine_protocol.c **** 
 597:src/hbprotocol/machine_protocol.c ****                 //If so, pretend that a Read request has arrived.
 598:src/hbprotocol/machine_protocol.c **** 
 599:src/hbprotocol/machine_protocol.c ****                 PROTOCOL_MSG3full newMsg;
 600:src/hbprotocol/machine_protocol.c ****                 memset((void*)&newMsg,0x00,sizeof(PROTOCOL_MSG3full));
 601:src/hbprotocol/machine_protocol.c **** 
 602:src/hbprotocol/machine_protocol.c ****                 newMsg.cmd  = PROTOCOL_CMD_READVAL;
ARM GAS  /tmp/cc7G3T4Q.s 			page 12


 603:src/hbprotocol/machine_protocol.c ****                 newMsg.code = s->subscriptions[index].code;
 604:src/hbprotocol/machine_protocol.c ****                 newMsg.SOM = s->subscriptions[index].som;
 605:src/hbprotocol/machine_protocol.c **** 
 606:src/hbprotocol/machine_protocol.c ****                 protocol_process_message(s, &newMsg);
 607:src/hbprotocol/machine_protocol.c **** 
 608:src/hbprotocol/machine_protocol.c **** 
 609:src/hbprotocol/machine_protocol.c ****                 //reschedule job
 610:src/hbprotocol/machine_protocol.c ****                 s->subscriptions[index].next_send_time = s->last_tick_time + s->subscriptions[index
 611:src/hbprotocol/machine_protocol.c ****                 if(s->subscriptions[index].count > 0) {
 612:src/hbprotocol/machine_protocol.c ****                     s->subscriptions[index].count = s->subscriptions[index].count - 1;
 613:src/hbprotocol/machine_protocol.c ****                 }
 614:src/hbprotocol/machine_protocol.c **** 
 615:src/hbprotocol/machine_protocol.c ****             }
 616:src/hbprotocol/machine_protocol.c **** 
 617:src/hbprotocol/machine_protocol.c **** 
 618:src/hbprotocol/machine_protocol.c ****         }
 619:src/hbprotocol/machine_protocol.c ****     }
 620:src/hbprotocol/machine_protocol.c **** 
 621:src/hbprotocol/machine_protocol.c **** }
 622:src/hbprotocol/machine_protocol.c **** 
 623:src/hbprotocol/machine_protocol.c **** 
 624:src/hbprotocol/machine_protocol.c **** int mpTxQueued(MACHINE_PROTOCOL_TX_BUFFER *buf){
 625:src/hbprotocol/machine_protocol.c ****     if (buf->head != buf->tail){
 626:src/hbprotocol/machine_protocol.c ****         int count = buf->head - buf->tail;
 627:src/hbprotocol/machine_protocol.c ****         if (count < 0){
 628:src/hbprotocol/machine_protocol.c ****             count += MACHINE_PROTOCOL_TX_BUFFER_SIZE;
 629:src/hbprotocol/machine_protocol.c ****         }
 630:src/hbprotocol/machine_protocol.c ****         return count;
 631:src/hbprotocol/machine_protocol.c ****     }
 632:src/hbprotocol/machine_protocol.c ****     return 0;
 633:src/hbprotocol/machine_protocol.c **** }
 634:src/hbprotocol/machine_protocol.c **** 
 635:src/hbprotocol/machine_protocol.c **** unsigned char mpGetTxByte(MACHINE_PROTOCOL_TX_BUFFER *buf){
  27              		.loc 1 635 59 view -0
  28              		.cfi_startproc
  29              		@ args = 0, pretend = 0, frame = 0
  30              		@ frame_needed = 0, uses_anonymous_args = 0
  31              		@ link register save eliminated.
 636:src/hbprotocol/machine_protocol.c ****     short t = -1;
  32              		.loc 1 636 5 view .LVU1
 637:src/hbprotocol/machine_protocol.c ****     if (buf->head != buf->tail){
  33              		.loc 1 637 5 view .LVU2
  34              		.loc 1 637 12 is_stmt 0 view .LVU3
  35 0000 D0F80024 		ldr	r2, [r0, #1024]
  36              		.loc 1 637 25 view .LVU4
  37 0004 D0F80434 		ldr	r3, [r0, #1028]
  38              		.loc 1 637 8 view .LVU5
  39 0008 9A42     		cmp	r2, r3
  40 000a 10D0     		beq	.L3
 638:src/hbprotocol/machine_protocol.c ****         t = buf->buff[buf->tail];
  41              		.loc 1 638 9 is_stmt 1 view .LVU6
  42              		.loc 1 638 26 is_stmt 0 view .LVU7
  43 000c D0F80434 		ldr	r3, [r0, #1028]
  44              		.loc 1 638 22 view .LVU8
  45 0010 C25C     		ldrb	r2, [r0, r3]	@ zero_extendqisi2
  46              	.LVL1:
 639:src/hbprotocol/machine_protocol.c ****         buf->tail = ((buf->tail + 1 ) % MACHINE_PROTOCOL_TX_BUFFER_SIZE);
ARM GAS  /tmp/cc7G3T4Q.s 			page 13


  47              		.loc 1 639 9 is_stmt 1 view .LVU9
  48              		.loc 1 639 26 is_stmt 0 view .LVU10
  49 0012 D0F80434 		ldr	r3, [r0, #1028]
  50              		.loc 1 639 33 view .LVU11
  51 0016 0133     		adds	r3, r3, #1
  52              		.loc 1 639 39 view .LVU12
  53 0018 5942     		rsbs	r1, r3, #0
  54 001a C3F30903 		ubfx	r3, r3, #0, #10
  55 001e C1F30901 		ubfx	r1, r1, #0, #10
  56 0022 58BF     		it	pl
  57 0024 4B42     		rsbpl	r3, r1, #0
  58              		.loc 1 639 19 view .LVU13
  59 0026 C0F80434 		str	r3, [r0, #1028]
  60              	.LVL2:
  61              	.L2:
 640:src/hbprotocol/machine_protocol.c ****     }
 641:src/hbprotocol/machine_protocol.c ****     return t;
  62              		.loc 1 641 5 is_stmt 1 view .LVU14
 642:src/hbprotocol/machine_protocol.c **** }
  63              		.loc 1 642 1 is_stmt 0 view .LVU15
  64 002a D0B2     		uxtb	r0, r2
  65              	.LVL3:
  66              		.loc 1 642 1 view .LVU16
  67 002c 7047     		bx	lr
  68              	.LVL4:
  69              	.L3:
 636:src/hbprotocol/machine_protocol.c ****     if (buf->head != buf->tail){
  70              		.loc 1 636 11 view .LVU17
  71 002e 4FF0FF32 		mov	r2, #-1
  72 0032 FAE7     		b	.L2
  73              		.cfi_endproc
  74              	.LFE13:
  76              		.section	.text.mpPutTx,"ax",%progbits
  77              		.align	1
  78              		.syntax unified
  79              		.thumb
  80              		.thumb_func
  82              	mpPutTx:
  83              	.LVL5:
  84              	.LFB15:
 643:src/hbprotocol/machine_protocol.c **** 
 644:src/hbprotocol/machine_protocol.c **** char mpGetTxMsg(MACHINE_PROTOCOL_TX_BUFFER *buf, unsigned char *dest){
 645:src/hbprotocol/machine_protocol.c ****     if (mpTxQueued(buf)) {
 646:src/hbprotocol/machine_protocol.c ****         *(dest++) = mpGetTxByte(buf); // cmd
 647:src/hbprotocol/machine_protocol.c ****         *(dest++) = mpGetTxByte(buf); // CI, technically not needed..
 648:src/hbprotocol/machine_protocol.c ****         unsigned char len = *(dest++) = mpGetTxByte(buf); // length of payload
 649:src/hbprotocol/machine_protocol.c ****         *(dest++) = mpGetTxByte(buf); // code
 650:src/hbprotocol/machine_protocol.c **** 
 651:src/hbprotocol/machine_protocol.c ****         for (int i = 0; i < len; i++) {
 652:src/hbprotocol/machine_protocol.c ****             *(dest++) = mpGetTxByte(buf); // data
 653:src/hbprotocol/machine_protocol.c ****         }
 654:src/hbprotocol/machine_protocol.c ****         return 1; // we got a message
 655:src/hbprotocol/machine_protocol.c ****     }
 656:src/hbprotocol/machine_protocol.c ****     return 0;
 657:src/hbprotocol/machine_protocol.c **** }
 658:src/hbprotocol/machine_protocol.c **** 
 659:src/hbprotocol/machine_protocol.c **** void mpPutTx(MACHINE_PROTOCOL_TX_BUFFER *buf, unsigned char value){
ARM GAS  /tmp/cc7G3T4Q.s 			page 14


  85              		.loc 1 659 67 is_stmt 1 view -0
  86              		.cfi_startproc
  87              		@ args = 0, pretend = 0, frame = 0
  88              		@ frame_needed = 0, uses_anonymous_args = 0
  89              		@ link register save eliminated.
 660:src/hbprotocol/machine_protocol.c ****     buf->buff[buf->head] = value;
  90              		.loc 1 660 5 view .LVU19
  91              		.loc 1 660 18 is_stmt 0 view .LVU20
  92 0000 D0F80034 		ldr	r3, [r0, #1024]
  93              		.loc 1 660 26 view .LVU21
  94 0004 C154     		strb	r1, [r0, r3]
 661:src/hbprotocol/machine_protocol.c ****     buf->head = ((buf->head + 1 ) % MACHINE_PROTOCOL_TX_BUFFER_SIZE);
  95              		.loc 1 661 5 is_stmt 1 view .LVU22
  96              		.loc 1 661 22 is_stmt 0 view .LVU23
  97 0006 D0F80034 		ldr	r3, [r0, #1024]
  98              		.loc 1 661 29 view .LVU24
  99 000a 0133     		adds	r3, r3, #1
 100              		.loc 1 661 35 view .LVU25
 101 000c 5A42     		rsbs	r2, r3, #0
 102 000e C3F30903 		ubfx	r3, r3, #0, #10
 103 0012 C2F30902 		ubfx	r2, r2, #0, #10
 104 0016 58BF     		it	pl
 105 0018 5342     		rsbpl	r3, r2, #0
 106              		.loc 1 661 15 view .LVU26
 107 001a C0F80034 		str	r3, [r0, #1024]
 662:src/hbprotocol/machine_protocol.c **** }...
 108              		.loc 1 662 1 view .LVU27
 109 001e 7047     		bx	lr
 110              		.cfi_endproc
 111              	.LFE15:
 113              		.section	.text.protocol_cobsr_decode,"ax",%progbits
 114              		.align	1
 115              		.global	protocol_cobsr_decode
 116              		.syntax unified
 117              		.thumb
 118              		.thumb_func
 120              	protocol_cobsr_decode:
 121              	.LVL6:
 122              	.LFB0:
  66:src/hbprotocol/machine_protocol.c **** {
 123              		.loc 1 66 1 is_stmt 1 view -0
 124              		.cfi_startproc
 125              		@ args = 0, pretend = 0, frame = 8
 126              		@ frame_needed = 0, uses_anonymous_args = 0
  66:src/hbprotocol/machine_protocol.c **** {
 127              		.loc 1 66 1 is_stmt 0 view .LVU29
 128 0000 10B5     		push	{r4, lr}
 129              	.LCFI0:
 130              		.cfi_def_cfa_offset 8
 131              		.cfi_offset 4, -8
 132              		.cfi_offset 14, -4
 133 0002 84B0     		sub	sp, sp, #16
 134              	.LCFI1:
 135              		.cfi_def_cfa_offset 24
 136 0004 0446     		mov	r4, r0
  67:src/hbprotocol/machine_protocol.c ****     cobsr_decode_result result = cobsr_decode(msg->bytes, (size_t)msg->len, msg->bytes, (size_t)msg
 137              		.loc 1 67 5 is_stmt 1 view .LVU30
ARM GAS  /tmp/cc7G3T4Q.s 			page 15


  67:src/hbprotocol/machine_protocol.c ****     cobsr_decode_result result = cobsr_decode(msg->bytes, (size_t)msg->len, msg->bytes, (size_t)msg
 138              		.loc 1 67 50 is_stmt 0 view .LVU31
 139 0006 011D     		adds	r1, r0, #4
  67:src/hbprotocol/machine_protocol.c ****     cobsr_decode_result result = cobsr_decode(msg->bytes, (size_t)msg->len, msg->bytes, (size_t)msg
 140              		.loc 1 67 70 view .LVU32
 141 0008 C278     		ldrb	r2, [r0, #3]	@ zero_extendqisi2
  67:src/hbprotocol/machine_protocol.c ****     cobsr_decode_result result = cobsr_decode(msg->bytes, (size_t)msg->len, msg->bytes, (size_t)msg
 142              		.loc 1 67 34 view .LVU33
 143 000a 0092     		str	r2, [sp]
 144 000c 0B46     		mov	r3, r1
 145 000e 02A8     		add	r0, sp, #8
 146              	.LVL7:
  67:src/hbprotocol/machine_protocol.c ****     cobsr_decode_result result = cobsr_decode(msg->bytes, (size_t)msg->len, msg->bytes, (size_t)msg
 147              		.loc 1 67 34 view .LVU34
 148 0010 FFF7FEFF 		bl	cobsr_decode
 149              	.LVL8:
  69:src/hbprotocol/machine_protocol.c ****     if(result.out_len == 1) // Minimum CS
 150              		.loc 1 69 5 is_stmt 1 view .LVU35
  69:src/hbprotocol/machine_protocol.c ****     if(result.out_len == 1) // Minimum CS
 151              		.loc 1 69 14 is_stmt 0 view .LVU36
 152 0014 029B     		ldr	r3, [sp, #8]
  69:src/hbprotocol/machine_protocol.c ****     if(result.out_len == 1) // Minimum CS
 153              		.loc 1 69 7 view .LVU37
 154 0016 012B     		cmp	r3, #1
 155 0018 08D0     		beq	.L11
  75:src/hbprotocol/machine_protocol.c ****     else if(result.out_len >= 2) // CS and Code and optional payload
 156              		.loc 1 75 10 is_stmt 1 view .LVU38
  75:src/hbprotocol/machine_protocol.c ****     else if(result.out_len >= 2) // CS and Code and optional payload
 157              		.loc 1 75 12 is_stmt 0 view .LVU39
 158 001a 012B     		cmp	r3, #1
 159 001c 0CD9     		bls	.L9
  77:src/hbprotocol/machine_protocol.c ****         msg->len = (unsigned char) result.out_len - sizeof(unsigned char) - sizeof(unsigned char); 
 160              		.loc 1 77 9 is_stmt 1 view .LVU40
  77:src/hbprotocol/machine_protocol.c ****         msg->len = (unsigned char) result.out_len - sizeof(unsigned char) - sizeof(unsigned char); 
 161              		.loc 1 77 20 is_stmt 0 view .LVU41
 162 001e DBB2     		uxtb	r3, r3
  77:src/hbprotocol/machine_protocol.c ****         msg->len = (unsigned char) result.out_len - sizeof(unsigned char) - sizeof(unsigned char); 
 163              		.loc 1 77 75 view .LVU42
 164 0020 023B     		subs	r3, r3, #2
  77:src/hbprotocol/machine_protocol.c ****         msg->len = (unsigned char) result.out_len - sizeof(unsigned char) - sizeof(unsigned char); 
 165              		.loc 1 77 18 view .LVU43
 166 0022 E370     		strb	r3, [r4, #3]
 167              	.L7:
  83:src/hbprotocol/machine_protocol.c ****     return (int) result.status;
 168              		.loc 1 83 5 is_stmt 1 view .LVU44
  83:src/hbprotocol/machine_protocol.c ****     return (int) result.status;
 169              		.loc 1 83 24 is_stmt 0 view .LVU45
 170 0024 9DF80C00 		ldrb	r0, [sp, #12]	@ zero_extendqisi2
 171              	.L5:
  84:src/hbprotocol/machine_protocol.c **** }
 172              		.loc 1 84 1 view .LVU46
 173 0028 04B0     		add	sp, sp, #16
 174              	.LCFI2:
 175              		.cfi_remember_state
 176              		.cfi_def_cfa_offset 8
 177              		@ sp needed
 178 002a 10BD     		pop	{r4, pc}
ARM GAS  /tmp/cc7G3T4Q.s 			page 16


 179              	.LVL9:
 180              	.L11:
 181              	.LCFI3:
 182              		.cfi_restore_state
  71:src/hbprotocol/machine_protocol.c ****         msg->len = 0;                  // No Code, no Payload
 183              		.loc 1 71 9 is_stmt 1 view .LVU47
  71:src/hbprotocol/machine_protocol.c ****         msg->len = 0;                  // No Code, no Payload
 184              		.loc 1 71 18 is_stmt 0 view .LVU48
 185 002c 0023     		movs	r3, #0
 186 002e E370     		strb	r3, [r4, #3]
  72:src/hbprotocol/machine_protocol.c ****         msg->bytes[1] = msg->bytes[0]; // Copy Checksum one byte further to create space for 'code'
 187              		.loc 1 72 9 is_stmt 1 view .LVU49
  72:src/hbprotocol/machine_protocol.c ****         msg->bytes[1] = msg->bytes[0]; // Copy Checksum one byte further to create space for 'code'
 188              		.loc 1 72 35 is_stmt 0 view .LVU50
 189 0030 2279     		ldrb	r2, [r4, #4]	@ zero_extendqisi2
  72:src/hbprotocol/machine_protocol.c ****         msg->bytes[1] = msg->bytes[0]; // Copy Checksum one byte further to create space for 'code'
 190              		.loc 1 72 23 view .LVU51
 191 0032 6271     		strb	r2, [r4, #5]
  73:src/hbprotocol/machine_protocol.c ****         msg->bytes[0] = 0;             // Set 'code' which was optional to 0
 192              		.loc 1 73 9 is_stmt 1 view .LVU52
  73:src/hbprotocol/machine_protocol.c ****         msg->bytes[0] = 0;             // Set 'code' which was optional to 0
 193              		.loc 1 73 23 is_stmt 0 view .LVU53
 194 0034 2371     		strb	r3, [r4, #4]
 195 0036 F5E7     		b	.L7
 196              	.L9:
  81:src/hbprotocol/machine_protocol.c ****         return -1; // Message too short, invalid.
 197              		.loc 1 81 16 view .LVU54
 198 0038 4FF0FF30 		mov	r0, #-1
 199 003c F4E7     		b	.L5
 200              		.cfi_endproc
 201              	.LFE0:
 203              		.section	.text.protocol_cobsr_encode,"ax",%progbits
 204              		.align	1
 205              		.global	protocol_cobsr_encode
 206              		.syntax unified
 207              		.thumb
 208              		.thumb_func
 210              	protocol_cobsr_encode:
 211              	.LVL10:
 212              	.LFB1:
  87:src/hbprotocol/machine_protocol.c **** {
 213              		.loc 1 87 1 is_stmt 1 view -0
 214              		.cfi_startproc
 215              		@ args = 0, pretend = 0, frame = 8
 216              		@ frame_needed = 0, uses_anonymous_args = 0
  87:src/hbprotocol/machine_protocol.c **** {
 217              		.loc 1 87 1 is_stmt 0 view .LVU56
 218 0000 10B5     		push	{r4, lr}
 219              	.LCFI4:
 220              		.cfi_def_cfa_offset 8
 221              		.cfi_offset 4, -8
 222              		.cfi_offset 14, -4
 223 0002 84B0     		sub	sp, sp, #16
 224              	.LCFI5:
 225              		.cfi_def_cfa_offset 24
 226 0004 0446     		mov	r4, r0
  89:src/hbprotocol/machine_protocol.c ****     cobsr_encode_result result = cobsr_encode(msg->bytes, (size_t)msg->len + 1, msg->bytes, (size_t
ARM GAS  /tmp/cc7G3T4Q.s 			page 17


 227              		.loc 1 89 5 is_stmt 1 view .LVU57
  89:src/hbprotocol/machine_protocol.c ****     cobsr_encode_result result = cobsr_encode(msg->bytes, (size_t)msg->len + 1, msg->bytes, (size_t
 228              		.loc 1 89 50 is_stmt 0 view .LVU58
 229 0006 011D     		adds	r1, r0, #4
  89:src/hbprotocol/machine_protocol.c ****     cobsr_encode_result result = cobsr_encode(msg->bytes, (size_t)msg->len + 1, msg->bytes, (size_t
 230              		.loc 1 89 70 view .LVU59
 231 0008 C278     		ldrb	r2, [r0, #3]	@ zero_extendqisi2
  89:src/hbprotocol/machine_protocol.c ****     cobsr_encode_result result = cobsr_encode(msg->bytes, (size_t)msg->len + 1, msg->bytes, (size_t
 232              		.loc 1 89 34 view .LVU60
 233 000a 0092     		str	r2, [sp]
 234 000c 0B46     		mov	r3, r1
 235 000e 0132     		adds	r2, r2, #1
 236 0010 02A8     		add	r0, sp, #8
 237              	.LVL11:
  89:src/hbprotocol/machine_protocol.c ****     cobsr_encode_result result = cobsr_encode(msg->bytes, (size_t)msg->len + 1, msg->bytes, (size_t
 238              		.loc 1 89 34 view .LVU61
 239 0012 FFF7FEFF 		bl	cobsr_encode
 240              	.LVL12:
  91:src/hbprotocol/machine_protocol.c ****     if(result.out_len >= 1) // At least CS
 241              		.loc 1 91 5 is_stmt 1 view .LVU62
  91:src/hbprotocol/machine_protocol.c ****     if(result.out_len >= 1) // At least CS
 242              		.loc 1 91 14 is_stmt 0 view .LVU63
 243 0016 029B     		ldr	r3, [sp, #8]
  91:src/hbprotocol/machine_protocol.c ****     if(result.out_len >= 1) // At least CS
 244              		.loc 1 91 7 view .LVU64
 245 0018 23B1     		cbz	r3, .L14
  93:src/hbprotocol/machine_protocol.c ****         msg->len = (unsigned char) result.out_len;
 246              		.loc 1 93 9 is_stmt 1 view .LVU65
  93:src/hbprotocol/machine_protocol.c ****         msg->len = (unsigned char) result.out_len;
 247              		.loc 1 93 18 is_stmt 0 view .LVU66
 248 001a E370     		strb	r3, [r4, #3]
  99:src/hbprotocol/machine_protocol.c ****     return (int) result.status;
 249              		.loc 1 99 5 is_stmt 1 view .LVU67
  99:src/hbprotocol/machine_protocol.c ****     return (int) result.status;
 250              		.loc 1 99 24 is_stmt 0 view .LVU68
 251 001c 9DF80C00 		ldrb	r0, [sp, #12]	@ zero_extendqisi2
 252              	.L12:
 100:src/hbprotocol/machine_protocol.c **** }
 253              		.loc 1 100 1 view .LVU69
 254 0020 04B0     		add	sp, sp, #16
 255              	.LCFI6:
 256              		.cfi_remember_state
 257              		.cfi_def_cfa_offset 8
 258              		@ sp needed
 259 0022 10BD     		pop	{r4, pc}
 260              	.LVL13:
 261              	.L14:
 262              	.LCFI7:
 263              		.cfi_restore_state
  97:src/hbprotocol/machine_protocol.c ****         return -1; // Message too short, invalid.
 264              		.loc 1 97 16 view .LVU70
 265 0024 4FF0FF30 		mov	r0, #-1
 266 0028 FAE7     		b	.L12
 267              		.cfi_endproc
 268              	.LFE1:
 270              		.section	.text.protocol_SOM_decode,"ax",%progbits
 271              		.align	1
ARM GAS  /tmp/cc7G3T4Q.s 			page 18


 272              		.global	protocol_SOM_decode
 273              		.syntax unified
 274              		.thumb
 275              		.thumb_func
 277              	protocol_SOM_decode:
 278              	.LVL14:
 279              	.LFB2:
 102:src/hbprotocol/machine_protocol.c **** void protocol_SOM_decode(PROTOCOL_MSG3 *msg) {
 280              		.loc 1 102 46 is_stmt 1 view -0
 281              		.cfi_startproc
 282              		@ args = 0, pretend = 0, frame = 0
 283              		@ frame_needed = 0, uses_anonymous_args = 0
 284              		@ link register save eliminated.
 104:src/hbprotocol/machine_protocol.c ****     if(0b10000000 & msg->cmd) {
 285              		.loc 1 104 5 view .LVU72
 104:src/hbprotocol/machine_protocol.c ****     if(0b10000000 & msg->cmd) {
 286              		.loc 1 104 24 is_stmt 0 view .LVU73
 287 0000 4378     		ldrb	r3, [r0, #1]	@ zero_extendqisi2
 104:src/hbprotocol/machine_protocol.c ****     if(0b10000000 & msg->cmd) {
 288              		.loc 1 104 8 view .LVU74
 289 0002 90F90120 		ldrsb	r2, [r0, #1]
 104:src/hbprotocol/machine_protocol.c ****     if(0b10000000 & msg->cmd) {
 290              		.loc 1 104 7 view .LVU75
 291 0006 002A     		cmp	r2, #0
 292 0008 05DB     		blt	.L19
 107:src/hbprotocol/machine_protocol.c ****         msg->SOM = PROTOCOL_SOM_NOACK;
 293              		.loc 1 107 9 is_stmt 1 view .LVU76
 107:src/hbprotocol/machine_protocol.c ****         msg->SOM = PROTOCOL_SOM_NOACK;
 294              		.loc 1 107 18 is_stmt 0 view .LVU77
 295 000a 0422     		movs	r2, #4
 296 000c 0270     		strb	r2, [r0]
 297              	.L18:
 110:src/hbprotocol/machine_protocol.c ****     msg->cmd = 0b01111111 & msg->cmd;
 298              		.loc 1 110 5 is_stmt 1 view .LVU78
 110:src/hbprotocol/machine_protocol.c ****     msg->cmd = 0b01111111 & msg->cmd;
 299              		.loc 1 110 27 is_stmt 0 view .LVU79
 300 000e 03F07F03 		and	r3, r3, #127
 110:src/hbprotocol/machine_protocol.c ****     msg->cmd = 0b01111111 & msg->cmd;
 301              		.loc 1 110 14 view .LVU80
 302 0012 4370     		strb	r3, [r0, #1]
 111:src/hbprotocol/machine_protocol.c **** }
 303              		.loc 1 111 1 view .LVU81
 304 0014 7047     		bx	lr
 305              	.L19:
 105:src/hbprotocol/machine_protocol.c ****         msg->SOM = PROTOCOL_SOM_ACK;
 306              		.loc 1 105 9 is_stmt 1 view .LVU82
 105:src/hbprotocol/machine_protocol.c ****         msg->SOM = PROTOCOL_SOM_ACK;
 307              		.loc 1 105 18 is_stmt 0 view .LVU83
 308 0016 0222     		movs	r2, #2
 309 0018 0270     		strb	r2, [r0]
 310 001a F8E7     		b	.L18
 311              		.cfi_endproc
 312              	.LFE2:
 314              		.section	.text.protocol_SOM_encode,"ax",%progbits
 315              		.align	1
 316              		.global	protocol_SOM_encode
 317              		.syntax unified
ARM GAS  /tmp/cc7G3T4Q.s 			page 19


 318              		.thumb
 319              		.thumb_func
 321              	protocol_SOM_encode:
 322              	.LVL15:
 323              	.LFB3:
 113:src/hbprotocol/machine_protocol.c **** int protocol_SOM_encode(PROTOCOL_MSG3 *msg) {
 324              		.loc 1 113 45 is_stmt 1 view -0
 325              		.cfi_startproc
 326              		@ args = 0, pretend = 0, frame = 0
 327              		@ frame_needed = 0, uses_anonymous_args = 0
 328              		@ link register save eliminated.
 115:src/hbprotocol/machine_protocol.c ****     if( msg->SOM == PROTOCOL_SOM_ACK ) {
 329              		.loc 1 115 5 view .LVU85
 115:src/hbprotocol/machine_protocol.c ****     if( msg->SOM == PROTOCOL_SOM_ACK ) {
 330              		.loc 1 115 12 is_stmt 0 view .LVU86
 331 0000 0378     		ldrb	r3, [r0]	@ zero_extendqisi2
 115:src/hbprotocol/machine_protocol.c ****     if( msg->SOM == PROTOCOL_SOM_ACK ) {
 332              		.loc 1 115 7 view .LVU87
 333 0002 022B     		cmp	r3, #2
 334 0004 03D0     		beq	.L24
 120:src/hbprotocol/machine_protocol.c ****     } else  if( msg->SOM == PROTOCOL_SOM_NOACK ) {
 335              		.loc 1 120 13 is_stmt 1 view .LVU88
 120:src/hbprotocol/machine_protocol.c ****     } else  if( msg->SOM == PROTOCOL_SOM_NOACK ) {
 336              		.loc 1 120 15 is_stmt 0 view .LVU89
 337 0006 042B     		cmp	r3, #4
 338 0008 09D0     		beq	.L25
 126:src/hbprotocol/machine_protocol.c ****     return 1; // Unknowm SOM
 339              		.loc 1 126 12 view .LVU90
 340 000a 0120     		movs	r0, #1
 341              	.LVL16:
 128:src/hbprotocol/machine_protocol.c **** }
 342              		.loc 1 128 1 view .LVU91
 343 000c 7047     		bx	lr
 344              	.LVL17:
 345              	.L24:
 116:src/hbprotocol/machine_protocol.c ****         msg->cmd = msg->cmd | 0b10000000;
 346              		.loc 1 116 9 is_stmt 1 view .LVU92
 116:src/hbprotocol/machine_protocol.c ****         msg->cmd = msg->cmd | 0b10000000;
 347              		.loc 1 116 23 is_stmt 0 view .LVU93
 348 000e 4378     		ldrb	r3, [r0, #1]	@ zero_extendqisi2
 116:src/hbprotocol/machine_protocol.c ****         msg->cmd = msg->cmd | 0b10000000;
 349              		.loc 1 116 18 view .LVU94
 350 0010 63F07F03 		orn	r3, r3, #127
 351 0014 4370     		strb	r3, [r0, #1]
 117:src/hbprotocol/machine_protocol.c ****         msg->SOM = PROTOCOL_SOM;
 352              		.loc 1 117 9 is_stmt 1 view .LVU95
 117:src/hbprotocol/machine_protocol.c ****         msg->SOM = PROTOCOL_SOM;
 353              		.loc 1 117 18 is_stmt 0 view .LVU96
 354 0016 0023     		movs	r3, #0
 355 0018 0370     		strb	r3, [r0]
 118:src/hbprotocol/machine_protocol.c ****         return 0; // all went well
 356              		.loc 1 118 9 is_stmt 1 view .LVU97
 118:src/hbprotocol/machine_protocol.c ****         return 0; // all went well
 357              		.loc 1 118 16 is_stmt 0 view .LVU98
 358 001a 1846     		mov	r0, r3
 359              	.LVL18:
 118:src/hbprotocol/machine_protocol.c ****         return 0; // all went well
ARM GAS  /tmp/cc7G3T4Q.s 			page 20


 360              		.loc 1 118 16 view .LVU99
 361 001c 7047     		bx	lr
 362              	.LVL19:
 363              	.L25:
 121:src/hbprotocol/machine_protocol.c ****         msg->cmd = msg->cmd & 0b01111111;
 364              		.loc 1 121 9 is_stmt 1 view .LVU100
 121:src/hbprotocol/machine_protocol.c ****         msg->cmd = msg->cmd & 0b01111111;
 365              		.loc 1 121 23 is_stmt 0 view .LVU101
 366 001e 4378     		ldrb	r3, [r0, #1]	@ zero_extendqisi2
 121:src/hbprotocol/machine_protocol.c ****         msg->cmd = msg->cmd & 0b01111111;
 367              		.loc 1 121 29 view .LVU102
 368 0020 03F07F03 		and	r3, r3, #127
 121:src/hbprotocol/machine_protocol.c ****         msg->cmd = msg->cmd & 0b01111111;
 369              		.loc 1 121 18 view .LVU103
 370 0024 4370     		strb	r3, [r0, #1]
 122:src/hbprotocol/machine_protocol.c ****         msg->SOM = PROTOCOL_SOM;
 371              		.loc 1 122 9 is_stmt 1 view .LVU104
 122:src/hbprotocol/machine_protocol.c ****         msg->SOM = PROTOCOL_SOM;
 372              		.loc 1 122 18 is_stmt 0 view .LVU105
 373 0026 0023     		movs	r3, #0
 374 0028 0370     		strb	r3, [r0]
 123:src/hbprotocol/machine_protocol.c ****         return 0; // all went well
 375              		.loc 1 123 9 is_stmt 1 view .LVU106
 123:src/hbprotocol/machine_protocol.c ****         return 0; // all went well
 376              		.loc 1 123 16 is_stmt 0 view .LVU107
 377 002a 1846     		mov	r0, r3
 378              	.LVL20:
 123:src/hbprotocol/machine_protocol.c ****         return 0; // all went well
 379              		.loc 1 123 16 view .LVU108
 380 002c 7047     		bx	lr
 381              		.cfi_endproc
 382              	.LFE3:
 384              		.section	.text.protocol_send_raw,"ax",%progbits
 385              		.align	1
 386              		.syntax unified
 387              		.thumb
 388              		.thumb_func
 390              	protocol_send_raw:
 391              	.LVL21:
 392              	.LFB9:
 482:src/hbprotocol/machine_protocol.c **** static int protocol_send_raw(int (*send_serial_data)( unsigned char *data, int len ), PROTOCOL_MSG3
 393              		.loc 1 482 114 is_stmt 1 view -0
 394              		.cfi_startproc
 395              		@ args = 0, pretend = 0, frame = 0
 396              		@ frame_needed = 0, uses_anonymous_args = 0
 482:src/hbprotocol/machine_protocol.c **** static int protocol_send_raw(int (*send_serial_data)( unsigned char *data, int len ), PROTOCOL_MSG3
 397              		.loc 1 482 114 is_stmt 0 view .LVU110
 398 0000 38B5     		push	{r3, r4, r5, lr}
 399              	.LCFI8:
 400              		.cfi_def_cfa_offset 16
 401              		.cfi_offset 3, -16
 402              		.cfi_offset 4, -12
 403              		.cfi_offset 5, -8
 404              		.cfi_offset 14, -4
 405 0002 0546     		mov	r5, r0
 406 0004 0C46     		mov	r4, r1
 484:src/hbprotocol/machine_protocol.c ****     PROTOCOL_MSG3 *msg = (PROTOCOL_MSG3 *) msgFull;
ARM GAS  /tmp/cc7G3T4Q.s 			page 21


 407              		.loc 1 484 5 is_stmt 1 view .LVU111
 408              	.LVL22:
 488:src/hbprotocol/machine_protocol.c ****     if( msgFull->SOM != PROTOCOL_SOM) {
 409              		.loc 1 488 5 view .LVU112
 488:src/hbprotocol/machine_protocol.c ****     if( msgFull->SOM != PROTOCOL_SOM) {
 410              		.loc 1 488 16 is_stmt 0 view .LVU113
 411 0006 0B78     		ldrb	r3, [r1]	@ zero_extendqisi2
 488:src/hbprotocol/machine_protocol.c ****     if( msgFull->SOM != PROTOCOL_SOM) {
 412              		.loc 1 488 7 view .LVU114
 413 0008 2BB9     		cbnz	r3, .L35
 414              	.LVL23:
 415              	.L27:
 509:src/hbprotocol/machine_protocol.c ****     send_serial_data((unsigned char *) msg, msg->len+4); // len + size of SOM, cmd, CI & len
 416              		.loc 1 509 5 is_stmt 1 view .LVU115
 509:src/hbprotocol/machine_protocol.c ****     send_serial_data((unsigned char *) msg, msg->len+4); // len + size of SOM, cmd, CI & len
 417              		.loc 1 509 48 is_stmt 0 view .LVU116
 418 000a E178     		ldrb	r1, [r4, #3]	@ zero_extendqisi2
 509:src/hbprotocol/machine_protocol.c ****     send_serial_data((unsigned char *) msg, msg->len+4); // len + size of SOM, cmd, CI & len
 419              		.loc 1 509 5 view .LVU117
 420 000c 0431     		adds	r1, r1, #4
 421 000e 2046     		mov	r0, r4
 422 0010 A847     		blx	r5
 423              	.LVL24:
 510:src/hbprotocol/machine_protocol.c ****     return 0; // Successful
 424              		.loc 1 510 5 is_stmt 1 view .LVU118
 510:src/hbprotocol/machine_protocol.c ****     return 0; // Successful
 425              		.loc 1 510 12 is_stmt 0 view .LVU119
 426 0012 0020     		movs	r0, #0
 427              	.L26:
 511:src/hbprotocol/machine_protocol.c **** }
 428              		.loc 1 511 1 view .LVU120
 429 0014 38BD     		pop	{r3, r4, r5, pc}
 430              	.LVL25:
 431              	.L35:
 432              	.LBB2:
 490:src/hbprotocol/machine_protocol.c ****     if( protocol_SOM_encode(msg) != 0) return 1;
 433              		.loc 1 490 5 is_stmt 1 view .LVU121
 490:src/hbprotocol/machine_protocol.c ****     if( protocol_SOM_encode(msg) != 0) return 1;
 434              		.loc 1 490 9 is_stmt 0 view .LVU122
 435 0016 0846     		mov	r0, r1
 436              	.LVL26:
 490:src/hbprotocol/machine_protocol.c ****     if( protocol_SOM_encode(msg) != 0) return 1;
 437              		.loc 1 490 9 view .LVU123
 438 0018 FFF7FEFF 		bl	protocol_SOM_encode
 439              	.LVL27:
 490:src/hbprotocol/machine_protocol.c ****     if( protocol_SOM_encode(msg) != 0) return 1;
 440              		.loc 1 490 7 discriminator 1 view .LVU124
 441 001c 0246     		mov	r2, r0
 442 001e 10BB     		cbnz	r0, .L32
 493:src/hbprotocol/machine_protocol.c ****         unsigned char CS = -msgFull->SOM -msgFull->cmd -msgFull->CI - msgFull->lenPayload;
 443              		.loc 1 493 9 is_stmt 1 view .LVU125
 493:src/hbprotocol/machine_protocol.c ****         unsigned char CS = -msgFull->SOM -msgFull->cmd -msgFull->CI - msgFull->lenPayload;
 444              		.loc 1 493 36 is_stmt 0 view .LVU126
 445 0020 2378     		ldrb	r3, [r4]	@ zero_extendqisi2
 493:src/hbprotocol/machine_protocol.c ****         unsigned char CS = -msgFull->SOM -msgFull->cmd -msgFull->CI - msgFull->lenPayload;
 446              		.loc 1 493 50 view .LVU127
 447 0022 6178     		ldrb	r1, [r4, #1]	@ zero_extendqisi2
ARM GAS  /tmp/cc7G3T4Q.s 			page 22


 493:src/hbprotocol/machine_protocol.c ****         unsigned char CS = -msgFull->SOM -msgFull->cmd -msgFull->CI - msgFull->lenPayload;
 448              		.loc 1 493 42 view .LVU128
 449 0024 5B42     		rsbs	r3, r3, #0
 450 0026 5B1A     		subs	r3, r3, r1
 451 0028 DBB2     		uxtb	r3, r3
 493:src/hbprotocol/machine_protocol.c ****         unsigned char CS = -msgFull->SOM -msgFull->cmd -msgFull->CI - msgFull->lenPayload;
 452              		.loc 1 493 64 view .LVU129
 453 002a A178     		ldrb	r1, [r4, #2]	@ zero_extendqisi2
 493:src/hbprotocol/machine_protocol.c ****         unsigned char CS = -msgFull->SOM -msgFull->cmd -msgFull->CI - msgFull->lenPayload;
 454              		.loc 1 493 56 view .LVU130
 455 002c 5B1A     		subs	r3, r3, r1
 456 002e DBB2     		uxtb	r3, r3
 493:src/hbprotocol/machine_protocol.c ****         unsigned char CS = -msgFull->SOM -msgFull->cmd -msgFull->CI - msgFull->lenPayload;
 457              		.loc 1 493 78 view .LVU131
 458 0030 E178     		ldrb	r1, [r4, #3]	@ zero_extendqisi2
 493:src/hbprotocol/machine_protocol.c ****         unsigned char CS = -msgFull->SOM -msgFull->cmd -msgFull->CI - msgFull->lenPayload;
 459              		.loc 1 493 23 view .LVU132
 460 0032 5B1A     		subs	r3, r3, r1
 461 0034 DBB2     		uxtb	r3, r3
 462              	.LVL28:
 495:src/hbprotocol/machine_protocol.c ****         if( msgFull->code != 0) msg->len += 1; // Include code.
 463              		.loc 1 495 9 is_stmt 1 view .LVU133
 495:src/hbprotocol/machine_protocol.c ****         if( msgFull->code != 0) msg->len += 1; // Include code.
 464              		.loc 1 495 20 is_stmt 0 view .LVU134
 465 0036 2079     		ldrb	r0, [r4, #4]	@ zero_extendqisi2
 495:src/hbprotocol/machine_protocol.c ****         if( msgFull->code != 0) msg->len += 1; // Include code.
 466              		.loc 1 495 11 view .LVU135
 467 0038 38B1     		cbz	r0, .L30
 495:src/hbprotocol/machine_protocol.c ****         if( msgFull->code != 0) msg->len += 1; // Include code.
 468              		.loc 1 495 33 is_stmt 1 discriminator 1 view .LVU136
 495:src/hbprotocol/machine_protocol.c ****         if( msgFull->code != 0) msg->len += 1; // Include code.
 469              		.loc 1 495 42 is_stmt 0 discriminator 1 view .LVU137
 470 003a 0131     		adds	r1, r1, #1
 471 003c E170     		strb	r1, [r4, #3]
 497:src/hbprotocol/machine_protocol.c ****     int i;
 472              		.loc 1 497 5 is_stmt 1 view .LVU138
 498:src/hbprotocol/machine_protocol.c ****         for (i = 0; i < msg->len; i++) {
 473              		.loc 1 498 9 view .LVU139
 474              	.LVL29:
 498:src/hbprotocol/machine_protocol.c ****         for (i = 0; i < msg->len; i++) {
 475              		.loc 1 498 9 is_stmt 0 view .LVU140
 476 003e 04E0     		b	.L30
 477              	.LVL30:
 478              	.L31:
 499:src/hbprotocol/machine_protocol.c ****         CS -= msg->bytes[i];
 479              		.loc 1 499 9 is_stmt 1 view .LVU141
 499:src/hbprotocol/machine_protocol.c ****         CS -= msg->bytes[i];
 480              		.loc 1 499 25 is_stmt 0 view .LVU142
 481 0040 A118     		adds	r1, r4, r2
 482 0042 0979     		ldrb	r1, [r1, #4]	@ zero_extendqisi2
 499:src/hbprotocol/machine_protocol.c ****         CS -= msg->bytes[i];
 483              		.loc 1 499 12 view .LVU143
 484 0044 5B1A     		subs	r3, r3, r1
 485              	.LVL31:
 499:src/hbprotocol/machine_protocol.c ****         CS -= msg->bytes[i];
 486              		.loc 1 499 12 view .LVU144
 487 0046 DBB2     		uxtb	r3, r3
ARM GAS  /tmp/cc7G3T4Q.s 			page 23


 488              	.LVL32:
 498:src/hbprotocol/machine_protocol.c ****         for (i = 0; i < msg->len; i++) {
 489              		.loc 1 498 36 is_stmt 1 discriminator 3 view .LVU145
 490 0048 0132     		adds	r2, r2, #1
 491              	.LVL33:
 492              	.L30:
 498:src/hbprotocol/machine_protocol.c ****         for (i = 0; i < msg->len; i++) {
 493              		.loc 1 498 23 discriminator 1 view .LVU146
 498:src/hbprotocol/machine_protocol.c ****         for (i = 0; i < msg->len; i++) {
 494              		.loc 1 498 28 is_stmt 0 discriminator 1 view .LVU147
 495 004a E178     		ldrb	r1, [r4, #3]	@ zero_extendqisi2
 498:src/hbprotocol/machine_protocol.c ****         for (i = 0; i < msg->len; i++) {
 496              		.loc 1 498 23 discriminator 1 view .LVU148
 497 004c 9142     		cmp	r1, r2
 498 004e F7DC     		bgt	.L31
 501:src/hbprotocol/machine_protocol.c ****     msg->bytes[i] = CS;
 499              		.loc 1 501 5 is_stmt 1 view .LVU149
 501:src/hbprotocol/machine_protocol.c ****     msg->bytes[i] = CS;
 500              		.loc 1 501 19 is_stmt 0 view .LVU150
 501 0050 2244     		add	r2, r2, r4
 502              	.LVL34:
 501:src/hbprotocol/machine_protocol.c ****     msg->bytes[i] = CS;
 503              		.loc 1 501 19 view .LVU151
 504 0052 1371     		strb	r3, [r2, #4]
 502:src/hbprotocol/machine_protocol.c ****         msg->len += 1; // Include CS.
 505              		.loc 1 502 9 is_stmt 1 view .LVU152
 502:src/hbprotocol/machine_protocol.c ****         msg->len += 1; // Include CS.
 506              		.loc 1 502 18 is_stmt 0 view .LVU153
 507 0054 0131     		adds	r1, r1, #1
 508 0056 E170     		strb	r1, [r4, #3]
 505:src/hbprotocol/machine_protocol.c ****         if(protocol_cobsr_encode(msg) != 0) return 2; // failed
 509              		.loc 1 505 9 is_stmt 1 view .LVU154
 505:src/hbprotocol/machine_protocol.c ****         if(protocol_cobsr_encode(msg) != 0) return 2; // failed
 510              		.loc 1 505 12 is_stmt 0 view .LVU155
 511 0058 2046     		mov	r0, r4
 512 005a FFF7FEFF 		bl	protocol_cobsr_encode
 513              	.LVL35:
 505:src/hbprotocol/machine_protocol.c ****         if(protocol_cobsr_encode(msg) != 0) return 2; // failed
 514              		.loc 1 505 11 discriminator 1 view .LVU156
 515 005e 0028     		cmp	r0, #0
 516 0060 D3D0     		beq	.L27
 505:src/hbprotocol/machine_protocol.c ****         if(protocol_cobsr_encode(msg) != 0) return 2; // failed
 517              		.loc 1 505 52 discriminator 1 view .LVU157
 518 0062 0220     		movs	r0, #2
 519 0064 D6E7     		b	.L26
 520              	.LVL36:
 521              	.L32:
 490:src/hbprotocol/machine_protocol.c ****     if( protocol_SOM_encode(msg) != 0) return 1;
 522              		.loc 1 490 47 discriminator 1 view .LVU158
 523 0066 0120     		movs	r0, #1
 524 0068 D4E7     		b	.L26
 525              	.LBE2:
 526              		.cfi_endproc
 527              	.LFE9:
 529              		.section	.text.protocol_send_ack,"ax",%progbits
 530              		.align	1
 531              		.syntax unified
ARM GAS  /tmp/cc7G3T4Q.s 			page 24


 532              		.thumb
 533              		.thumb_func
 535              	protocol_send_ack:
 536              	.LVL37:
 537              	.LFB6:
 371:src/hbprotocol/machine_protocol.c **** void protocol_send_ack(int (*send_serial_data)( unsigned char *data, int len ), unsigned char CI){
 538              		.loc 1 371 98 is_stmt 1 view -0
 539              		.cfi_startproc
 540              		@ args = 0, pretend = 0, frame = 8
 541              		@ frame_needed = 0, uses_anonymous_args = 0
 371:src/hbprotocol/machine_protocol.c **** void protocol_send_ack(int (*send_serial_data)( unsigned char *data, int len ), unsigned char CI){
 542              		.loc 1 371 98 is_stmt 0 view .LVU160
 543 0000 00B5     		push	{lr}
 544              	.LCFI9:
 545              		.cfi_def_cfa_offset 4
 546              		.cfi_offset 14, -4
 547 0002 83B0     		sub	sp, sp, #12
 548              	.LCFI10:
 549              		.cfi_def_cfa_offset 16
 372:src/hbprotocol/machine_protocol.c ****     char tmp[] = { PROTOCOL_SOM_ACK, PROTOCOL_CMD_ACK, CI, 0, 0, 0, 0}; // Length 0, Memory for cod
 550              		.loc 1 372 5 is_stmt 1 view .LVU161
 372:src/hbprotocol/machine_protocol.c ****     char tmp[] = { PROTOCOL_SOM_ACK, PROTOCOL_CMD_ACK, CI, 0, 0, 0, 0}; // Length 0, Memory for cod
 551              		.loc 1 372 10 is_stmt 0 view .LVU162
 552 0004 0223     		movs	r3, #2
 553 0006 8DF80030 		strb	r3, [sp]
 554 000a 4123     		movs	r3, #65
 555 000c 8DF80130 		strb	r3, [sp, #1]
 556 0010 8DF80210 		strb	r1, [sp, #2]
 557 0014 0023     		movs	r3, #0
 558 0016 8DF80330 		strb	r3, [sp, #3]
 559 001a 8DF80430 		strb	r3, [sp, #4]
 560 001e 8DF80530 		strb	r3, [sp, #5]
 561 0022 8DF80630 		strb	r3, [sp, #6]
 373:src/hbprotocol/machine_protocol.c ****     protocol_send_raw(send_serial_data, (PROTOCOL_MSG3full *)tmp);
 562              		.loc 1 373 5 is_stmt 1 view .LVU163
 563 0026 6946     		mov	r1, sp
 564              	.LVL38:
 373:src/hbprotocol/machine_protocol.c ****     protocol_send_raw(send_serial_data, (PROTOCOL_MSG3full *)tmp);
 565              		.loc 1 373 5 is_stmt 0 view .LVU164
 566 0028 FFF7FEFF 		bl	protocol_send_raw
 567              	.LVL39:
 374:src/hbprotocol/machine_protocol.c **** }
 568              		.loc 1 374 1 view .LVU165
 569 002c 03B0     		add	sp, sp, #12
 570              	.LCFI11:
 571              		.cfi_def_cfa_offset 4
 572              		@ sp needed
 573 002e 5DF804FB 		ldr	pc, [sp], #4
 574              		.cfi_endproc
 575              	.LFE6:
 577              		.section	.text.protocol_send_nack,"ax",%progbits
 578              		.align	1
 579              		.syntax unified
 580              		.thumb
 581              		.thumb_func
 583              	protocol_send_nack:
 584              	.LVL40:
ARM GAS  /tmp/cc7G3T4Q.s 			page 25


 585              	.LFB5:
 353:src/hbprotocol/machine_protocol.c **** void protocol_send_nack(int (*send_serial_data)( unsigned char *data, int len ), unsigned char CI, 
 586              		.loc 1 353 118 is_stmt 1 view -0
 587              		.cfi_startproc
 588              		@ args = 0, pretend = 0, frame = 8
 589              		@ frame_needed = 0, uses_anonymous_args = 0
 353:src/hbprotocol/machine_protocol.c **** void protocol_send_nack(int (*send_serial_data)( unsigned char *data, int len ), unsigned char CI, 
 590              		.loc 1 353 118 is_stmt 0 view .LVU167
 591 0000 00B5     		push	{lr}
 592              	.LCFI12:
 593              		.cfi_def_cfa_offset 4
 594              		.cfi_offset 14, -4
 595 0002 83B0     		sub	sp, sp, #12
 596              	.LCFI13:
 597              		.cfi_def_cfa_offset 16
 359:src/hbprotocol/machine_protocol.c ****     if(som != PROTOCOL_SOM_ACK && som != PROTOCOL_SOM_NOACK) {
 598              		.loc 1 359 5 is_stmt 1 view .LVU168
 359:src/hbprotocol/machine_protocol.c ****     if(som != PROTOCOL_SOM_ACK && som != PROTOCOL_SOM_NOACK) {
 599              		.loc 1 359 7 is_stmt 0 view .LVU169
 600 0004 022A     		cmp	r2, #2
 601 0006 02D0     		beq	.L39
 359:src/hbprotocol/machine_protocol.c ****     if(som != PROTOCOL_SOM_ACK && som != PROTOCOL_SOM_NOACK) {
 602              		.loc 1 359 32 discriminator 1 view .LVU170
 603 0008 042A     		cmp	r2, #4
 604 000a 00D0     		beq	.L39
 360:src/hbprotocol/machine_protocol.c ****         som = PROTOCOL_SOM_ACK;
 605              		.loc 1 360 13 view .LVU171
 606 000c 0222     		movs	r2, #2
 607              	.LVL41:
 608              	.L39:
 364:src/hbprotocol/machine_protocol.c ****     if(CI == 0) CI = 1;
 609              		.loc 1 364 5 is_stmt 1 view .LVU172
 364:src/hbprotocol/machine_protocol.c ****     if(CI == 0) CI = 1;
 610              		.loc 1 364 7 is_stmt 0 view .LVU173
 611 000e 01B9     		cbnz	r1, .L40
 364:src/hbprotocol/machine_protocol.c ****     if(CI == 0) CI = 1;
 612              		.loc 1 364 20 discriminator 1 view .LVU174
 613 0010 0121     		movs	r1, #1
 614              	.LVL42:
 615              	.L40:
 366:src/hbprotocol/machine_protocol.c ****     char tmp[] = { som, PROTOCOL_CMD_NACK, CI, 0, 0, 0, 0}; // Length 0, Memory for code, CS and st
 616              		.loc 1 366 5 is_stmt 1 view .LVU175
 366:src/hbprotocol/machine_protocol.c ****     char tmp[] = { som, PROTOCOL_CMD_NACK, CI, 0, 0, 0, 0}; // Length 0, Memory for code, CS and st
 617              		.loc 1 366 10 is_stmt 0 view .LVU176
 618 0012 8DF80020 		strb	r2, [sp]
 619 0016 4E23     		movs	r3, #78
 620 0018 8DF80130 		strb	r3, [sp, #1]
 621 001c 8DF80210 		strb	r1, [sp, #2]
 622 0020 0023     		movs	r3, #0
 623 0022 8DF80330 		strb	r3, [sp, #3]
 624 0026 8DF80430 		strb	r3, [sp, #4]
 625 002a 8DF80530 		strb	r3, [sp, #5]
 626 002e 8DF80630 		strb	r3, [sp, #6]
 367:src/hbprotocol/machine_protocol.c ****     protocol_send_raw(send_serial_data, (PROTOCOL_MSG3full *)tmp);
 627              		.loc 1 367 5 is_stmt 1 view .LVU177
 628 0032 6946     		mov	r1, sp
 629              	.LVL43:
ARM GAS  /tmp/cc7G3T4Q.s 			page 26


 367:src/hbprotocol/machine_protocol.c ****     protocol_send_raw(send_serial_data, (PROTOCOL_MSG3full *)tmp);
 630              		.loc 1 367 5 is_stmt 0 view .LVU178
 631 0034 FFF7FEFF 		bl	protocol_send_raw
 632              	.LVL44:
 368:src/hbprotocol/machine_protocol.c **** }
 633              		.loc 1 368 1 view .LVU179
 634 0038 03B0     		add	sp, sp, #12
 635              	.LCFI14:
 636              		.cfi_def_cfa_offset 4
 637              		@ sp needed
 638 003a 5DF804FB 		ldr	pc, [sp], #4
 639              		.cfi_endproc
 640              	.LFE5:
 642              		.section	.text.mpTxQueued,"ax",%progbits
 643              		.align	1
 644              		.global	mpTxQueued
 645              		.syntax unified
 646              		.thumb
 647              		.thumb_func
 649              	mpTxQueued:
 650              	.LVL45:
 651              	.LFB12:
 624:src/hbprotocol/machine_protocol.c **** int mpTxQueued(MACHINE_PROTOCOL_TX_BUFFER *buf){
 652              		.loc 1 624 48 is_stmt 1 view -0
 653              		.cfi_startproc
 654              		@ args = 0, pretend = 0, frame = 0
 655              		@ frame_needed = 0, uses_anonymous_args = 0
 656              		@ link register save eliminated.
 625:src/hbprotocol/machine_protocol.c ****     if (buf->head != buf->tail){
 657              		.loc 1 625 5 view .LVU181
 625:src/hbprotocol/machine_protocol.c ****     if (buf->head != buf->tail){
 658              		.loc 1 625 12 is_stmt 0 view .LVU182
 659 0000 D0F80024 		ldr	r2, [r0, #1024]
 625:src/hbprotocol/machine_protocol.c ****     if (buf->head != buf->tail){
 660              		.loc 1 625 25 view .LVU183
 661 0004 D0F80434 		ldr	r3, [r0, #1028]
 625:src/hbprotocol/machine_protocol.c ****     if (buf->head != buf->tail){
 662              		.loc 1 625 8 view .LVU184
 663 0008 9A42     		cmp	r2, r3
 664 000a 08D0     		beq	.L47
 665              	.LBB3:
 626:src/hbprotocol/machine_protocol.c ****         int count = buf->head - buf->tail;
 666              		.loc 1 626 9 is_stmt 1 view .LVU185
 626:src/hbprotocol/machine_protocol.c ****         int count = buf->head - buf->tail;
 667              		.loc 1 626 24 is_stmt 0 view .LVU186
 668 000c D0F80034 		ldr	r3, [r0, #1024]
 626:src/hbprotocol/machine_protocol.c ****         int count = buf->head - buf->tail;
 669              		.loc 1 626 36 view .LVU187
 670 0010 D0F80404 		ldr	r0, [r0, #1028]
 671              	.LVL46:
 627:src/hbprotocol/machine_protocol.c ****         if (count < 0){
 672              		.loc 1 627 9 is_stmt 1 view .LVU188
 627:src/hbprotocol/machine_protocol.c ****         if (count < 0){
 673              		.loc 1 627 12 is_stmt 0 view .LVU189
 674 0014 181A     		subs	r0, r3, r0
 675              	.LVL47:
 627:src/hbprotocol/machine_protocol.c ****         if (count < 0){
ARM GAS  /tmp/cc7G3T4Q.s 			page 27


 676              		.loc 1 627 12 view .LVU190
 677 0016 03D5     		bpl	.L44
 628:src/hbprotocol/machine_protocol.c ****             count += MACHINE_PROTOCOL_TX_BUFFER_SIZE;
 678              		.loc 1 628 13 is_stmt 1 view .LVU191
 628:src/hbprotocol/machine_protocol.c ****             count += MACHINE_PROTOCOL_TX_BUFFER_SIZE;
 679              		.loc 1 628 19 is_stmt 0 view .LVU192
 680 0018 00F58060 		add	r0, r0, #1024
 681              	.LVL48:
 630:src/hbprotocol/machine_protocol.c ****         return count;
 682              		.loc 1 630 9 is_stmt 1 view .LVU193
 630:src/hbprotocol/machine_protocol.c ****         return count;
 683              		.loc 1 630 16 is_stmt 0 view .LVU194
 684 001c 7047     		bx	lr
 685              	.LVL49:
 686              	.L47:
 630:src/hbprotocol/machine_protocol.c ****         return count;
 687              		.loc 1 630 16 view .LVU195
 688              	.LBE3:
 632:src/hbprotocol/machine_protocol.c ****     return 0;
 689              		.loc 1 632 12 view .LVU196
 690 001e 0020     		movs	r0, #0
 691              	.LVL50:
 692              	.L44:
 633:src/hbprotocol/machine_protocol.c **** }
 693              		.loc 1 633 1 view .LVU197
 694 0020 7047     		bx	lr
 695              		.cfi_endproc
 696              	.LFE12:
 698              		.section	.text.mpGetTxMsg,"ax",%progbits
 699              		.align	1
 700              		.syntax unified
 701              		.thumb
 702              		.thumb_func
 704              	mpGetTxMsg:
 705              	.LVL51:
 706              	.LFB14:
 644:src/hbprotocol/machine_protocol.c **** char mpGetTxMsg(MACHINE_PROTOCOL_TX_BUFFER *buf, unsigned char *dest){
 707              		.loc 1 644 70 is_stmt 1 view -0
 708              		.cfi_startproc
 709              		@ args = 0, pretend = 0, frame = 0
 710              		@ frame_needed = 0, uses_anonymous_args = 0
 644:src/hbprotocol/machine_protocol.c **** char mpGetTxMsg(MACHINE_PROTOCOL_TX_BUFFER *buf, unsigned char *dest){
 711              		.loc 1 644 70 is_stmt 0 view .LVU199
 712 0000 F8B5     		push	{r3, r4, r5, r6, r7, lr}
 713              	.LCFI15:
 714              		.cfi_def_cfa_offset 24
 715              		.cfi_offset 3, -24
 716              		.cfi_offset 4, -20
 717              		.cfi_offset 5, -16
 718              		.cfi_offset 6, -12
 719              		.cfi_offset 7, -8
 720              		.cfi_offset 14, -4
 721 0002 0546     		mov	r5, r0
 722 0004 0E46     		mov	r6, r1
 645:src/hbprotocol/machine_protocol.c ****     if (mpTxQueued(buf)) {
 723              		.loc 1 645 5 is_stmt 1 view .LVU200
 645:src/hbprotocol/machine_protocol.c ****     if (mpTxQueued(buf)) {
ARM GAS  /tmp/cc7G3T4Q.s 			page 28


 724              		.loc 1 645 9 is_stmt 0 view .LVU201
 725 0006 FFF7FEFF 		bl	mpTxQueued
 726              	.LVL52:
 645:src/hbprotocol/machine_protocol.c ****     if (mpTxQueued(buf)) {
 727              		.loc 1 645 8 discriminator 1 view .LVU202
 728 000a 08B9     		cbnz	r0, .L54
 656:src/hbprotocol/machine_protocol.c ****     return 0;
 729              		.loc 1 656 12 view .LVU203
 730 000c 0020     		movs	r0, #0
 731              	.LVL53:
 732              	.L49:
 657:src/hbprotocol/machine_protocol.c **** }
 733              		.loc 1 657 1 view .LVU204
 734 000e F8BD     		pop	{r3, r4, r5, r6, r7, pc}
 735              	.LVL54:
 736              	.L54:
 737              	.LBB4:
 646:src/hbprotocol/machine_protocol.c ****         *(dest++) = mpGetTxByte(buf); // cmd
 738              		.loc 1 646 9 is_stmt 1 view .LVU205
 646:src/hbprotocol/machine_protocol.c ****         *(dest++) = mpGetTxByte(buf); // cmd
 739              		.loc 1 646 21 is_stmt 0 view .LVU206
 740 0010 2846     		mov	r0, r5
 741 0012 FFF7FEFF 		bl	mpGetTxByte
 742              	.LVL55:
 646:src/hbprotocol/machine_protocol.c ****         *(dest++) = mpGetTxByte(buf); // cmd
 743              		.loc 1 646 19 discriminator 1 view .LVU207
 744 0016 3070     		strb	r0, [r6]
 647:src/hbprotocol/machine_protocol.c ****         *(dest++) = mpGetTxByte(buf); // CI, technically not needed..
 745              		.loc 1 647 9 is_stmt 1 view .LVU208
 746              	.LVL56:
 647:src/hbprotocol/machine_protocol.c ****         *(dest++) = mpGetTxByte(buf); // CI, technically not needed..
 747              		.loc 1 647 21 is_stmt 0 view .LVU209
 748 0018 2846     		mov	r0, r5
 749 001a FFF7FEFF 		bl	mpGetTxByte
 750              	.LVL57:
 647:src/hbprotocol/machine_protocol.c ****         *(dest++) = mpGetTxByte(buf); // CI, technically not needed..
 751              		.loc 1 647 19 discriminator 1 view .LVU210
 752 001e 7070     		strb	r0, [r6, #1]
 648:src/hbprotocol/machine_protocol.c ****         unsigned char len = *(dest++) = mpGetTxByte(buf); // length of payload
 753              		.loc 1 648 9 is_stmt 1 view .LVU211
 754              	.LVL58:
 648:src/hbprotocol/machine_protocol.c ****         unsigned char len = *(dest++) = mpGetTxByte(buf); // length of payload
 755              		.loc 1 648 41 is_stmt 0 view .LVU212
 756 0020 2846     		mov	r0, r5
 757 0022 FFF7FEFF 		bl	mpGetTxByte
 758              	.LVL59:
 759 0026 0746     		mov	r7, r0
 648:src/hbprotocol/machine_protocol.c ****         unsigned char len = *(dest++) = mpGetTxByte(buf); // length of payload
 760              		.loc 1 648 39 discriminator 1 view .LVU213
 761 0028 B070     		strb	r0, [r6, #2]
 762              	.LVL60:
 649:src/hbprotocol/machine_protocol.c ****         *(dest++) = mpGetTxByte(buf); // code
 763              		.loc 1 649 9 is_stmt 1 view .LVU214
 649:src/hbprotocol/machine_protocol.c ****         *(dest++) = mpGetTxByte(buf); // code
 764              		.loc 1 649 15 is_stmt 0 view .LVU215
 765 002a 341D     		adds	r4, r6, #4
 766              	.LVL61:
ARM GAS  /tmp/cc7G3T4Q.s 			page 29


 649:src/hbprotocol/machine_protocol.c ****         *(dest++) = mpGetTxByte(buf); // code
 767              		.loc 1 649 21 view .LVU216
 768 002c 2846     		mov	r0, r5
 769 002e FFF7FEFF 		bl	mpGetTxByte
 770              	.LVL62:
 649:src/hbprotocol/machine_protocol.c ****         *(dest++) = mpGetTxByte(buf); // code
 771              		.loc 1 649 19 discriminator 1 view .LVU217
 772 0032 F070     		strb	r0, [r6, #3]
 651:src/hbprotocol/machine_protocol.c ****         for (int i = 0; i < len; i++) {
 773              		.loc 1 651 9 is_stmt 1 view .LVU218
 774              	.LBB5:
 651:src/hbprotocol/machine_protocol.c ****         for (int i = 0; i < len; i++) {
 775              		.loc 1 651 14 view .LVU219
 776              	.LVL63:
 651:src/hbprotocol/machine_protocol.c ****         for (int i = 0; i < len; i++) {
 777              		.loc 1 651 18 is_stmt 0 view .LVU220
 778 0034 0026     		movs	r6, #0
 651:src/hbprotocol/machine_protocol.c ****         for (int i = 0; i < len; i++) {
 779              		.loc 1 651 9 view .LVU221
 780 0036 05E0     		b	.L50
 781              	.LVL64:
 782              	.L51:
 652:src/hbprotocol/machine_protocol.c ****             *(dest++) = mpGetTxByte(buf); // data
 783              		.loc 1 652 13 is_stmt 1 view .LVU222
 652:src/hbprotocol/machine_protocol.c ****             *(dest++) = mpGetTxByte(buf); // data
 784              		.loc 1 652 25 is_stmt 0 view .LVU223
 785 0038 2846     		mov	r0, r5
 786 003a FFF7FEFF 		bl	mpGetTxByte
 787              	.LVL65:
 652:src/hbprotocol/machine_protocol.c ****             *(dest++) = mpGetTxByte(buf); // data
 788              		.loc 1 652 23 discriminator 1 view .LVU224
 789 003e 04F8010B 		strb	r0, [r4], #1
 790              	.LVL66:
 651:src/hbprotocol/machine_protocol.c ****         for (int i = 0; i < len; i++) {
 791              		.loc 1 651 35 is_stmt 1 discriminator 3 view .LVU225
 792 0042 0136     		adds	r6, r6, #1
 793              	.LVL67:
 794              	.L50:
 651:src/hbprotocol/machine_protocol.c ****         for (int i = 0; i < len; i++) {
 795              		.loc 1 651 27 discriminator 1 view .LVU226
 796 0044 B742     		cmp	r7, r6
 797 0046 F7DC     		bgt	.L51
 651:src/hbprotocol/machine_protocol.c ****         for (int i = 0; i < len; i++) {
 798              		.loc 1 651 27 is_stmt 0 discriminator 1 view .LVU227
 799              	.LBE5:
 654:src/hbprotocol/machine_protocol.c ****         return 1; // we got a message
 800              		.loc 1 654 16 view .LVU228
 801 0048 0120     		movs	r0, #1
 802              	.LBB6:
 803 004a E0E7     		b	.L49
 804              	.LBE6:
 805              	.LBE4:
 806              		.cfi_endproc
 807              	.LFE14:
 809              		.section	.text.protocol_send,"ax",%progbits
 810              		.align	1
 811              		.syntax unified
ARM GAS  /tmp/cc7G3T4Q.s 			page 30


 812              		.thumb
 813              		.thumb_func
 815              	protocol_send:
 816              	.LVL68:
 817              	.LFB8:
 416:src/hbprotocol/machine_protocol.c **** int protocol_send(PROTOCOL_STAT *s, PROTOCOL_MSG3full *msg){
 818              		.loc 1 416 60 is_stmt 1 view -0
 819              		.cfi_startproc
 820              		@ args = 0, pretend = 0, frame = 0
 821              		@ frame_needed = 0, uses_anonymous_args = 0
 416:src/hbprotocol/machine_protocol.c **** int protocol_send(PROTOCOL_STAT *s, PROTOCOL_MSG3full *msg){
 822              		.loc 1 416 60 is_stmt 0 view .LVU230
 823 0000 38B5     		push	{r3, r4, r5, lr}
 824              	.LCFI16:
 825              		.cfi_def_cfa_offset 16
 826              		.cfi_offset 3, -16
 827              		.cfi_offset 4, -12
 828              		.cfi_offset 5, -8
 829              		.cfi_offset 14, -4
 830 0002 0446     		mov	r4, r0
 417:src/hbprotocol/machine_protocol.c ****     if(msg) {
 831              		.loc 1 417 5 is_stmt 1 view .LVU231
 417:src/hbprotocol/machine_protocol.c ****     if(msg) {
 832              		.loc 1 417 7 is_stmt 0 view .LVU232
 833 0004 0029     		cmp	r1, #0
 834 0006 62D0     		beq	.L56
 835 0008 0B46     		mov	r3, r1
 418:src/hbprotocol/machine_protocol.c ****         if(msg->SOM == PROTOCOL_SOM_ACK && s->send_state == PROTOCOL_ACK_TX_WAITING) {
 836              		.loc 1 418 9 is_stmt 1 view .LVU233
 418:src/hbprotocol/machine_protocol.c ****         if(msg->SOM == PROTOCOL_SOM_ACK && s->send_state == PROTOCOL_ACK_TX_WAITING) {
 837              		.loc 1 418 15 is_stmt 0 view .LVU234
 838 000a 0A78     		ldrb	r2, [r1]	@ zero_extendqisi2
 418:src/hbprotocol/machine_protocol.c ****         if(msg->SOM == PROTOCOL_SOM_ACK && s->send_state == PROTOCOL_ACK_TX_WAITING) {
 839              		.loc 1 418 11 view .LVU235
 840 000c 022A     		cmp	r2, #2
 841 000e 26D0     		beq	.L69
 842              	.LVL69:
 843              	.L57:
 422:src/hbprotocol/machine_protocol.c ****         } else if(msg->SOM == PROTOCOL_SOM_ACK && s->send_state == PROTOCOL_ACK_TX_IDLE) {
 844              		.loc 1 422 16 is_stmt 1 view .LVU236
 422:src/hbprotocol/machine_protocol.c ****         } else if(msg->SOM == PROTOCOL_SOM_ACK && s->send_state == PROTOCOL_ACK_TX_IDLE) {
 845              		.loc 1 422 18 is_stmt 0 view .LVU237
 846 0010 022A     		cmp	r2, #2
 847 0012 2BD0     		beq	.L70
 848              	.L59:
 434:src/hbprotocol/machine_protocol.c ****         } else if (msg->SOM == PROTOCOL_SOM_NOACK) {
 849              		.loc 1 434 16 is_stmt 1 view .LVU238
 434:src/hbprotocol/machine_protocol.c ****         } else if (msg->SOM == PROTOCOL_SOM_NOACK) {
 850              		.loc 1 434 19 is_stmt 0 view .LVU239
 851 0014 042A     		cmp	r2, #4
 852 0016 40F0B780 		bne	.L66
 436:src/hbprotocol/machine_protocol.c ****             memcpy(&s->noack.curr_send_msg, msg, 5 + msg->lenPayload); // SOM, cmd, CI, len, code +
 853              		.loc 1 436 13 is_stmt 1 view .LVU240
 436:src/hbprotocol/machine_protocol.c ****             memcpy(&s->noack.curr_send_msg, msg, 5 + msg->lenPayload); // SOM, cmd, CI, len, code +
 854              		.loc 1 436 20 is_stmt 0 view .LVU241
 855 001a 04F5DE65 		add	r5, r4, #1776
 436:src/hbprotocol/machine_protocol.c ****             memcpy(&s->noack.curr_send_msg, msg, 5 + msg->lenPayload); // SOM, cmd, CI, len, code +
ARM GAS  /tmp/cc7G3T4Q.s 			page 31


 856              		.loc 1 436 57 view .LVU242
 857 001e DA78     		ldrb	r2, [r3, #3]	@ zero_extendqisi2
 436:src/hbprotocol/machine_protocol.c ****             memcpy(&s->noack.curr_send_msg, msg, 5 + msg->lenPayload); // SOM, cmd, CI, len, code +
 858              		.loc 1 436 13 view .LVU243
 859 0020 0532     		adds	r2, r2, #5
 860 0022 1946     		mov	r1, r3
 861 0024 2846     		mov	r0, r5
 862              	.LVL70:
 436:src/hbprotocol/machine_protocol.c ****             memcpy(&s->noack.curr_send_msg, msg, 5 + msg->lenPayload); // SOM, cmd, CI, len, code +
 863              		.loc 1 436 13 view .LVU244
 864 0026 FFF7FEFF 		bl	memcpy
 865              	.LVL71:
 437:src/hbprotocol/machine_protocol.c ****             if( !(++(s->noack.lastTXCI)) ) s->noack.lastTXCI = 1;        // 0 is not a valid CI
 866              		.loc 1 437 13 is_stmt 1 view .LVU245
 437:src/hbprotocol/machine_protocol.c ****             if( !(++(s->noack.lastTXCI)) ) s->noack.lastTXCI = 1;        // 0 is not a valid CI
 867              		.loc 1 437 30 is_stmt 0 view .LVU246
 868 002a 94F8F337 		ldrb	r3, [r4, #2035]	@ zero_extendqisi2
 437:src/hbprotocol/machine_protocol.c ****             if( !(++(s->noack.lastTXCI)) ) s->noack.lastTXCI = 1;        // 0 is not a valid CI
 869              		.loc 1 437 19 view .LVU247
 870 002e 0133     		adds	r3, r3, #1
 871 0030 DBB2     		uxtb	r3, r3
 437:src/hbprotocol/machine_protocol.c ****             if( !(++(s->noack.lastTXCI)) ) s->noack.lastTXCI = 1;        // 0 is not a valid CI
 872              		.loc 1 437 15 view .LVU248
 873 0032 84F8F337 		strb	r3, [r4, #2035]
 874 0036 13B9     		cbnz	r3, .L61
 437:src/hbprotocol/machine_protocol.c ****             if( !(++(s->noack.lastTXCI)) ) s->noack.lastTXCI = 1;        // 0 is not a valid CI
 875              		.loc 1 437 44 is_stmt 1 discriminator 1 view .LVU249
 437:src/hbprotocol/machine_protocol.c ****             if( !(++(s->noack.lastTXCI)) ) s->noack.lastTXCI = 1;        // 0 is not a valid CI
 876              		.loc 1 437 62 is_stmt 0 discriminator 1 view .LVU250
 877 0038 0123     		movs	r3, #1
 878 003a 84F8F337 		strb	r3, [r4, #2035]
 879              	.L61:
 438:src/hbprotocol/machine_protocol.c ****             s->noack.curr_send_msg.CI = s->noack.lastTXCI;
 880              		.loc 1 438 13 is_stmt 1 view .LVU251
 438:src/hbprotocol/machine_protocol.c ****             s->noack.curr_send_msg.CI = s->noack.lastTXCI;
 881              		.loc 1 438 49 is_stmt 0 view .LVU252
 882 003e 94F8F337 		ldrb	r3, [r4, #2035]	@ zero_extendqisi2
 438:src/hbprotocol/machine_protocol.c ****             s->noack.curr_send_msg.CI = s->noack.lastTXCI;
 883              		.loc 1 438 39 view .LVU253
 884 0042 84F8F236 		strb	r3, [r4, #1778]
 439:src/hbprotocol/machine_protocol.c ****             s->noack.counters.tx++;
 885              		.loc 1 439 13 is_stmt 1 view .LVU254
 439:src/hbprotocol/machine_protocol.c ****             s->noack.counters.tx++;
 886              		.loc 1 439 30 is_stmt 0 view .LVU255
 887 0046 D4F80438 		ldr	r3, [r4, #2052]
 439:src/hbprotocol/machine_protocol.c ****             s->noack.counters.tx++;
 888              		.loc 1 439 33 view .LVU256
 889 004a 0133     		adds	r3, r3, #1
 890 004c C4F80438 		str	r3, [r4, #2052]
 440:src/hbprotocol/machine_protocol.c ****             protocol_send_raw(s->send_serial_data, &s->noack.curr_send_msg);
 891              		.loc 1 440 13 is_stmt 1 view .LVU257
 892 0050 2946     		mov	r1, r5
 893 0052 D4F82001 		ldr	r0, [r4, #288]
 894 0056 FFF7FEFF 		bl	protocol_send_raw
 895              	.LVL72:
 441:src/hbprotocol/machine_protocol.c ****             return 0;
 896              		.loc 1 441 13 view .LVU258
ARM GAS  /tmp/cc7G3T4Q.s 			page 32


 441:src/hbprotocol/machine_protocol.c ****             return 0;
 897              		.loc 1 441 20 is_stmt 0 view .LVU259
 898 005a 0020     		movs	r0, #0
 899              	.L55:
 478:src/hbprotocol/machine_protocol.c **** }
 900              		.loc 1 478 1 view .LVU260
 901 005c 38BD     		pop	{r3, r4, r5, pc}
 902              	.LVL73:
 903              	.L69:
 418:src/hbprotocol/machine_protocol.c ****         if(msg->SOM == PROTOCOL_SOM_ACK && s->send_state == PROTOCOL_ACK_TX_WAITING) {
 904              		.loc 1 418 45 discriminator 1 view .LVU261
 905 005e 90F81511 		ldrb	r1, [r0, #277]	@ zero_extendqisi2
 906              	.LVL74:
 418:src/hbprotocol/machine_protocol.c ****         if(msg->SOM == PROTOCOL_SOM_ACK && s->send_state == PROTOCOL_ACK_TX_WAITING) {
 907              		.loc 1 418 41 discriminator 1 view .LVU262
 908 0062 0129     		cmp	r1, #1
 909 0064 D4D1     		bne	.L57
 420:src/hbprotocol/machine_protocol.c ****             return -1;
 910              		.loc 1 420 20 view .LVU263
 911 0066 4FF0FF30 		mov	r0, #-1
 912              	.LVL75:
 420:src/hbprotocol/machine_protocol.c ****             return -1;
 913              		.loc 1 420 20 view .LVU264
 914 006a F7E7     		b	.L55
 915              	.LVL76:
 916              	.L70:
 422:src/hbprotocol/machine_protocol.c ****         } else if(msg->SOM == PROTOCOL_SOM_ACK && s->send_state == PROTOCOL_ACK_TX_IDLE) {
 917              		.loc 1 422 52 discriminator 1 view .LVU265
 918 006c 94F81511 		ldrb	r1, [r4, #277]	@ zero_extendqisi2
 422:src/hbprotocol/machine_protocol.c ****         } else if(msg->SOM == PROTOCOL_SOM_ACK && s->send_state == PROTOCOL_ACK_TX_IDLE) {
 919              		.loc 1 422 48 discriminator 1 view .LVU266
 920 0070 0029     		cmp	r1, #0
 921 0072 CFD1     		bne	.L59
 424:src/hbprotocol/machine_protocol.c ****             memcpy(&s->ack.curr_send_msg, msg, 5 + msg->lenPayload); // SOM, cmd, CI, len, code + s
 922              		.loc 1 424 13 is_stmt 1 view .LVU267
 424:src/hbprotocol/machine_protocol.c ****             memcpy(&s->ack.curr_send_msg, msg, 5 + msg->lenPayload); // SOM, cmd, CI, len, code + s
 923              		.loc 1 424 20 is_stmt 0 view .LVU268
 924 0074 04F5DA75 		add	r5, r4, #436
 424:src/hbprotocol/machine_protocol.c ****             memcpy(&s->ack.curr_send_msg, msg, 5 + msg->lenPayload); // SOM, cmd, CI, len, code + s
 925              		.loc 1 424 55 view .LVU269
 926 0078 DA78     		ldrb	r2, [r3, #3]	@ zero_extendqisi2
 424:src/hbprotocol/machine_protocol.c ****             memcpy(&s->ack.curr_send_msg, msg, 5 + msg->lenPayload); // SOM, cmd, CI, len, code + s
 927              		.loc 1 424 13 view .LVU270
 928 007a 0532     		adds	r2, r2, #5
 929 007c 1946     		mov	r1, r3
 930 007e 2846     		mov	r0, r5
 931              	.LVL77:
 424:src/hbprotocol/machine_protocol.c ****             memcpy(&s->ack.curr_send_msg, msg, 5 + msg->lenPayload); // SOM, cmd, CI, len, code + s
 932              		.loc 1 424 13 view .LVU271
 933 0080 FFF7FEFF 		bl	memcpy
 934              	.LVL78:
 425:src/hbprotocol/machine_protocol.c ****             if( !(++(s->ack.lastTXCI)) ) s->ack.lastTXCI = 1;        // 0 is not a valid CI
 935              		.loc 1 425 13 is_stmt 1 view .LVU272
 425:src/hbprotocol/machine_protocol.c ****             if( !(++(s->ack.lastTXCI)) ) s->ack.lastTXCI = 1;        // 0 is not a valid CI
 936              		.loc 1 425 28 is_stmt 0 view .LVU273
 937 0084 94F8B732 		ldrb	r3, [r4, #695]	@ zero_extendqisi2
 425:src/hbprotocol/machine_protocol.c ****             if( !(++(s->ack.lastTXCI)) ) s->ack.lastTXCI = 1;        // 0 is not a valid CI
ARM GAS  /tmp/cc7G3T4Q.s 			page 33


 938              		.loc 1 425 19 view .LVU274
 939 0088 0133     		adds	r3, r3, #1
 940 008a DBB2     		uxtb	r3, r3
 425:src/hbprotocol/machine_protocol.c ****             if( !(++(s->ack.lastTXCI)) ) s->ack.lastTXCI = 1;        // 0 is not a valid CI
 941              		.loc 1 425 15 view .LVU275
 942 008c 84F8B732 		strb	r3, [r4, #695]
 943 0090 13B9     		cbnz	r3, .L60
 425:src/hbprotocol/machine_protocol.c ****             if( !(++(s->ack.lastTXCI)) ) s->ack.lastTXCI = 1;        // 0 is not a valid CI
 944              		.loc 1 425 42 is_stmt 1 discriminator 1 view .LVU276
 425:src/hbprotocol/machine_protocol.c ****             if( !(++(s->ack.lastTXCI)) ) s->ack.lastTXCI = 1;        // 0 is not a valid CI
 945              		.loc 1 425 58 is_stmt 0 discriminator 1 view .LVU277
 946 0092 0123     		movs	r3, #1
 947 0094 84F8B732 		strb	r3, [r4, #695]
 948              	.L60:
 426:src/hbprotocol/machine_protocol.c ****             s->ack.curr_send_msg.CI = s->ack.lastTXCI;
 949              		.loc 1 426 13 is_stmt 1 view .LVU278
 426:src/hbprotocol/machine_protocol.c ****             s->ack.curr_send_msg.CI = s->ack.lastTXCI;
 950              		.loc 1 426 45 is_stmt 0 view .LVU279
 951 0098 94F8B732 		ldrb	r3, [r4, #695]	@ zero_extendqisi2
 426:src/hbprotocol/machine_protocol.c ****             s->ack.curr_send_msg.CI = s->ack.lastTXCI;
 952              		.loc 1 426 37 view .LVU280
 953 009c 84F8B631 		strb	r3, [r4, #438]
 427:src/hbprotocol/machine_protocol.c ****             s->ack.counters.tx++;
 954              		.loc 1 427 13 is_stmt 1 view .LVU281
 427:src/hbprotocol/machine_protocol.c ****             s->ack.counters.tx++;
 955              		.loc 1 427 28 is_stmt 0 view .LVU282
 956 00a0 D4F8C832 		ldr	r3, [r4, #712]
 427:src/hbprotocol/machine_protocol.c ****             s->ack.counters.tx++;
 957              		.loc 1 427 31 view .LVU283
 958 00a4 0133     		adds	r3, r3, #1
 959 00a6 C4F8C832 		str	r3, [r4, #712]
 428:src/hbprotocol/machine_protocol.c ****             protocol_send_raw(s->send_serial_data, &s->ack.curr_send_msg);
 960              		.loc 1 428 13 is_stmt 1 view .LVU284
 961 00aa 2946     		mov	r1, r5
 962 00ac D4F82001 		ldr	r0, [r4, #288]
 963 00b0 FFF7FEFF 		bl	protocol_send_raw
 964              	.LVL79:
 429:src/hbprotocol/machine_protocol.c ****             s->send_state = PROTOCOL_ACK_TX_WAITING;
 965              		.loc 1 429 13 view .LVU285
 429:src/hbprotocol/machine_protocol.c ****             s->send_state = PROTOCOL_ACK_TX_WAITING;
 966              		.loc 1 429 27 is_stmt 0 view .LVU286
 967 00b4 0123     		movs	r3, #1
 968 00b6 84F81531 		strb	r3, [r4, #277]
 430:src/hbprotocol/machine_protocol.c ****             s->ack.last_send_time = protocol_GetTick();
 969              		.loc 1 430 13 is_stmt 1 view .LVU287
 430:src/hbprotocol/machine_protocol.c ****             s->ack.last_send_time = protocol_GetTick();
 970              		.loc 1 430 37 is_stmt 0 view .LVU288
 971 00ba 364B     		ldr	r3, .L72
 972 00bc 1B68     		ldr	r3, [r3]
 973 00be 9847     		blx	r3
 974              	.LVL80:
 430:src/hbprotocol/machine_protocol.c ****             s->ack.last_send_time = protocol_GetTick();
 975              		.loc 1 430 35 discriminator 1 view .LVU289
 976 00c0 C4F8BC02 		str	r0, [r4, #700]
 431:src/hbprotocol/machine_protocol.c ****             s->ack.retries = 2;
 977              		.loc 1 431 13 is_stmt 1 view .LVU290
 431:src/hbprotocol/machine_protocol.c ****             s->ack.retries = 2;
ARM GAS  /tmp/cc7G3T4Q.s 			page 34


 978              		.loc 1 431 28 is_stmt 0 view .LVU291
 979 00c4 0223     		movs	r3, #2
 980 00c6 84F8B632 		strb	r3, [r4, #694]
 432:src/hbprotocol/machine_protocol.c ****             return 0;
 981              		.loc 1 432 13 is_stmt 1 view .LVU292
 432:src/hbprotocol/machine_protocol.c ****             return 0;
 982              		.loc 1 432 20 is_stmt 0 view .LVU293
 983 00ca 0020     		movs	r0, #0
 984 00cc C6E7     		b	.L55
 985              	.LVL81:
 986              	.L56:
 450:src/hbprotocol/machine_protocol.c ****         if(s->send_state == PROTOCOL_STATE_IDLE && mpTxQueued(&s->ack.TxBuffer)) {
 987              		.loc 1 450 9 is_stmt 1 view .LVU294
 450:src/hbprotocol/machine_protocol.c ****         if(s->send_state == PROTOCOL_STATE_IDLE && mpTxQueued(&s->ack.TxBuffer)) {
 988              		.loc 1 450 13 is_stmt 0 view .LVU295
 989 00ce 90F81531 		ldrb	r3, [r0, #277]	@ zero_extendqisi2
 450:src/hbprotocol/machine_protocol.c ****         if(s->send_state == PROTOCOL_STATE_IDLE && mpTxQueued(&s->ack.TxBuffer)) {
 990              		.loc 1 450 11 view .LVU296
 991 00d2 2BB9     		cbnz	r3, .L62
 450:src/hbprotocol/machine_protocol.c ****         if(s->send_state == PROTOCOL_STATE_IDLE && mpTxQueued(&s->ack.TxBuffer)) {
 992              		.loc 1 450 52 discriminator 1 view .LVU297
 993 00d4 00F53975 		add	r5, r0, #740
 994 00d8 2846     		mov	r0, r5
 995              	.LVL82:
 450:src/hbprotocol/machine_protocol.c ****         if(s->send_state == PROTOCOL_STATE_IDLE && mpTxQueued(&s->ack.TxBuffer)) {
 996              		.loc 1 450 52 discriminator 1 view .LVU298
 997 00da FFF7FEFF 		bl	mpTxQueued
 998              	.LVL83:
 450:src/hbprotocol/machine_protocol.c ****         if(s->send_state == PROTOCOL_STATE_IDLE && mpTxQueued(&s->ack.TxBuffer)) {
 999              		.loc 1 450 49 discriminator 1 view .LVU299
 1000 00de 28BB     		cbnz	r0, .L71
 1001              	.L62:
 1002              	.LBB7:
 465:src/hbprotocol/machine_protocol.c ****             int ismsg = mpGetTxMsg(&s->noack.TxBuffer, &s->noack.curr_send_msg.cmd);
 1003              		.loc 1 465 13 is_stmt 1 view .LVU300
 465:src/hbprotocol/machine_protocol.c ****             int ismsg = mpGetTxMsg(&s->noack.TxBuffer, &s->noack.curr_send_msg.cmd);
 1004              		.loc 1 465 25 is_stmt 0 view .LVU301
 1005 00e0 04F2F161 		addw	r1, r4, #1777
 1006 00e4 04F50260 		add	r0, r4, #2080
 1007 00e8 FFF7FEFF 		bl	mpGetTxMsg
 1008              	.LVL84:
 466:src/hbprotocol/machine_protocol.c ****             if (ismsg){
 1009              		.loc 1 466 13 is_stmt 1 view .LVU302
 466:src/hbprotocol/machine_protocol.c ****             if (ismsg){
 1010              		.loc 1 466 16 is_stmt 0 view .LVU303
 1011 00ec 0028     		cmp	r0, #0
 1012 00ee 4ED0     		beq	.L67
 468:src/hbprotocol/machine_protocol.c ****                 s->noack.curr_send_msg.SOM = PROTOCOL_SOM_NOACK;
 1013              		.loc 1 468 17 is_stmt 1 view .LVU304
 468:src/hbprotocol/machine_protocol.c ****                 s->noack.curr_send_msg.SOM = PROTOCOL_SOM_NOACK;
 1014              		.loc 1 468 44 is_stmt 0 view .LVU305
 1015 00f0 0423     		movs	r3, #4
 1016 00f2 84F8F036 		strb	r3, [r4, #1776]
 469:src/hbprotocol/machine_protocol.c ****                 if( !(++(s->noack.lastTXCI)) ) s->noack.lastTXCI = 1;        // 0 is not a valid CI
 1017              		.loc 1 469 17 is_stmt 1 view .LVU306
 469:src/hbprotocol/machine_protocol.c ****                 if( !(++(s->noack.lastTXCI)) ) s->noack.lastTXCI = 1;        // 0 is not a valid CI
 1018              		.loc 1 469 34 is_stmt 0 view .LVU307
ARM GAS  /tmp/cc7G3T4Q.s 			page 35


 1019 00f6 94F8F337 		ldrb	r3, [r4, #2035]	@ zero_extendqisi2
 469:src/hbprotocol/machine_protocol.c ****                 if( !(++(s->noack.lastTXCI)) ) s->noack.lastTXCI = 1;        // 0 is not a valid CI
 1020              		.loc 1 469 23 view .LVU308
 1021 00fa 0133     		adds	r3, r3, #1
 1022 00fc DBB2     		uxtb	r3, r3
 469:src/hbprotocol/machine_protocol.c ****                 if( !(++(s->noack.lastTXCI)) ) s->noack.lastTXCI = 1;        // 0 is not a valid CI
 1023              		.loc 1 469 19 view .LVU309
 1024 00fe 84F8F337 		strb	r3, [r4, #2035]
 1025 0102 13B9     		cbnz	r3, .L64
 469:src/hbprotocol/machine_protocol.c ****                 if( !(++(s->noack.lastTXCI)) ) s->noack.lastTXCI = 1;        // 0 is not a valid CI
 1026              		.loc 1 469 48 is_stmt 1 discriminator 1 view .LVU310
 469:src/hbprotocol/machine_protocol.c ****                 if( !(++(s->noack.lastTXCI)) ) s->noack.lastTXCI = 1;        // 0 is not a valid CI
 1027              		.loc 1 469 66 is_stmt 0 discriminator 1 view .LVU311
 1028 0104 0123     		movs	r3, #1
 1029 0106 84F8F337 		strb	r3, [r4, #2035]
 1030              	.L64:
 470:src/hbprotocol/machine_protocol.c ****                 s->noack.curr_send_msg.CI = s->noack.lastTXCI;
 1031              		.loc 1 470 17 is_stmt 1 view .LVU312
 470:src/hbprotocol/machine_protocol.c ****                 s->noack.curr_send_msg.CI = s->noack.lastTXCI;
 1032              		.loc 1 470 53 is_stmt 0 view .LVU313
 1033 010a 94F8F337 		ldrb	r3, [r4, #2035]	@ zero_extendqisi2
 470:src/hbprotocol/machine_protocol.c ****                 s->noack.curr_send_msg.CI = s->noack.lastTXCI;
 1034              		.loc 1 470 43 view .LVU314
 1035 010e 84F8F236 		strb	r3, [r4, #1778]
 471:src/hbprotocol/machine_protocol.c ****                 s->noack.counters.tx++;
 1036              		.loc 1 471 17 is_stmt 1 view .LVU315
 471:src/hbprotocol/machine_protocol.c ****                 s->noack.counters.tx++;
 1037              		.loc 1 471 34 is_stmt 0 view .LVU316
 1038 0112 D4F80438 		ldr	r3, [r4, #2052]
 471:src/hbprotocol/machine_protocol.c ****                 s->noack.counters.tx++;
 1039              		.loc 1 471 37 view .LVU317
 1040 0116 0133     		adds	r3, r3, #1
 1041 0118 C4F80438 		str	r3, [r4, #2052]
 472:src/hbprotocol/machine_protocol.c ****                 protocol_send_raw(s->send_serial_data, &s->noack.curr_send_msg);
 1042              		.loc 1 472 17 is_stmt 1 view .LVU318
 1043 011c 04F5DE61 		add	r1, r4, #1776
 1044 0120 D4F82001 		ldr	r0, [r4, #288]
 1045              	.LVL85:
 472:src/hbprotocol/machine_protocol.c ****                 protocol_send_raw(s->send_serial_data, &s->noack.curr_send_msg);
 1046              		.loc 1 472 17 is_stmt 0 view .LVU319
 1047 0124 FFF7FEFF 		bl	protocol_send_raw
 1048              	.LVL86:
 473:src/hbprotocol/machine_protocol.c ****                 return 0;
 1049              		.loc 1 473 17 is_stmt 1 view .LVU320
 473:src/hbprotocol/machine_protocol.c ****                 return 0;
 1050              		.loc 1 473 24 is_stmt 0 view .LVU321
 1051 0128 0020     		movs	r0, #0
 1052 012a 97E7     		b	.L55
 1053              	.LVL87:
 1054              	.L71:
 473:src/hbprotocol/machine_protocol.c ****                 return 0;
 1055              		.loc 1 473 24 view .LVU322
 1056              	.LBE7:
 452:src/hbprotocol/machine_protocol.c ****             mpGetTxMsg(&s->ack.TxBuffer, &s->ack.curr_send_msg.cmd);
 1057              		.loc 1 452 13 is_stmt 1 view .LVU323
 1058 012c 04F2B511 		addw	r1, r4, #437
 1059 0130 2846     		mov	r0, r5
ARM GAS  /tmp/cc7G3T4Q.s 			page 36


 1060 0132 FFF7FEFF 		bl	mpGetTxMsg
 1061              	.LVL88:
 453:src/hbprotocol/machine_protocol.c ****             s->ack.curr_send_msg.SOM = PROTOCOL_SOM_ACK;
 1062              		.loc 1 453 13 view .LVU324
 453:src/hbprotocol/machine_protocol.c ****             s->ack.curr_send_msg.SOM = PROTOCOL_SOM_ACK;
 1063              		.loc 1 453 38 is_stmt 0 view .LVU325
 1064 0136 0223     		movs	r3, #2
 1065 0138 84F8B431 		strb	r3, [r4, #436]
 454:src/hbprotocol/machine_protocol.c ****             if( !(++(s->ack.lastTXCI)) ) s->ack.lastTXCI = 1;        // 0 is not a valid CI
 1066              		.loc 1 454 13 is_stmt 1 view .LVU326
 454:src/hbprotocol/machine_protocol.c ****             if( !(++(s->ack.lastTXCI)) ) s->ack.lastTXCI = 1;        // 0 is not a valid CI
 1067              		.loc 1 454 28 is_stmt 0 view .LVU327
 1068 013c 94F8B732 		ldrb	r3, [r4, #695]	@ zero_extendqisi2
 454:src/hbprotocol/machine_protocol.c ****             if( !(++(s->ack.lastTXCI)) ) s->ack.lastTXCI = 1;        // 0 is not a valid CI
 1069              		.loc 1 454 19 view .LVU328
 1070 0140 0133     		adds	r3, r3, #1
 1071 0142 DBB2     		uxtb	r3, r3
 454:src/hbprotocol/machine_protocol.c ****             if( !(++(s->ack.lastTXCI)) ) s->ack.lastTXCI = 1;        // 0 is not a valid CI
 1072              		.loc 1 454 15 view .LVU329
 1073 0144 84F8B732 		strb	r3, [r4, #695]
 1074 0148 13B9     		cbnz	r3, .L63
 454:src/hbprotocol/machine_protocol.c ****             if( !(++(s->ack.lastTXCI)) ) s->ack.lastTXCI = 1;        // 0 is not a valid CI
 1075              		.loc 1 454 42 is_stmt 1 discriminator 1 view .LVU330
 454:src/hbprotocol/machine_protocol.c ****             if( !(++(s->ack.lastTXCI)) ) s->ack.lastTXCI = 1;        // 0 is not a valid CI
 1076              		.loc 1 454 58 is_stmt 0 discriminator 1 view .LVU331
 1077 014a 0123     		movs	r3, #1
 1078 014c 84F8B732 		strb	r3, [r4, #695]
 1079              	.L63:
 455:src/hbprotocol/machine_protocol.c ****             s->ack.curr_send_msg.CI = s->ack.lastTXCI;
 1080              		.loc 1 455 13 is_stmt 1 view .LVU332
 455:src/hbprotocol/machine_protocol.c ****             s->ack.curr_send_msg.CI = s->ack.lastTXCI;
 1081              		.loc 1 455 45 is_stmt 0 view .LVU333
 1082 0150 94F8B732 		ldrb	r3, [r4, #695]	@ zero_extendqisi2
 455:src/hbprotocol/machine_protocol.c ****             s->ack.curr_send_msg.CI = s->ack.lastTXCI;
 1083              		.loc 1 455 37 view .LVU334
 1084 0154 84F8B631 		strb	r3, [r4, #438]
 456:src/hbprotocol/machine_protocol.c ****             s->ack.counters.tx++;
 1085              		.loc 1 456 13 is_stmt 1 view .LVU335
 456:src/hbprotocol/machine_protocol.c ****             s->ack.counters.tx++;
 1086              		.loc 1 456 28 is_stmt 0 view .LVU336
 1087 0158 D4F8C832 		ldr	r3, [r4, #712]
 456:src/hbprotocol/machine_protocol.c ****             s->ack.counters.tx++;
 1088              		.loc 1 456 31 view .LVU337
 1089 015c 0133     		adds	r3, r3, #1
 1090 015e C4F8C832 		str	r3, [r4, #712]
 457:src/hbprotocol/machine_protocol.c ****             protocol_send_raw(s->send_serial_data, &s->ack.curr_send_msg);
 1091              		.loc 1 457 13 is_stmt 1 view .LVU338
 1092 0162 04F5DA71 		add	r1, r4, #436
 1093 0166 D4F82001 		ldr	r0, [r4, #288]
 1094 016a FFF7FEFF 		bl	protocol_send_raw
 1095              	.LVL89:
 458:src/hbprotocol/machine_protocol.c ****             s->send_state = PROTOCOL_ACK_TX_WAITING;
 1096              		.loc 1 458 13 view .LVU339
 458:src/hbprotocol/machine_protocol.c ****             s->send_state = PROTOCOL_ACK_TX_WAITING;
 1097              		.loc 1 458 27 is_stmt 0 view .LVU340
 1098 016e 0123     		movs	r3, #1
 1099 0170 84F81531 		strb	r3, [r4, #277]
ARM GAS  /tmp/cc7G3T4Q.s 			page 37


 459:src/hbprotocol/machine_protocol.c ****             s->ack.last_send_time = protocol_GetTick();
 1100              		.loc 1 459 13 is_stmt 1 view .LVU341
 459:src/hbprotocol/machine_protocol.c ****             s->ack.last_send_time = protocol_GetTick();
 1101              		.loc 1 459 37 is_stmt 0 view .LVU342
 1102 0174 074B     		ldr	r3, .L72
 1103 0176 1B68     		ldr	r3, [r3]
 1104 0178 9847     		blx	r3
 1105              	.LVL90:
 459:src/hbprotocol/machine_protocol.c ****             s->ack.last_send_time = protocol_GetTick();
 1106              		.loc 1 459 35 discriminator 1 view .LVU343
 1107 017a C4F8BC02 		str	r0, [r4, #700]
 460:src/hbprotocol/machine_protocol.c ****             s->ack.retries = 2;
 1108              		.loc 1 460 13 is_stmt 1 view .LVU344
 460:src/hbprotocol/machine_protocol.c ****             s->ack.retries = 2;
 1109              		.loc 1 460 28 is_stmt 0 view .LVU345
 1110 017e 0223     		movs	r3, #2
 1111 0180 84F8B632 		strb	r3, [r4, #694]
 461:src/hbprotocol/machine_protocol.c ****             return 0;
 1112              		.loc 1 461 13 is_stmt 1 view .LVU346
 461:src/hbprotocol/machine_protocol.c ****             return 0;
 1113              		.loc 1 461 20 is_stmt 0 view .LVU347
 1114 0184 0020     		movs	r0, #0
 1115 0186 69E7     		b	.L55
 1116              	.LVL91:
 1117              	.L66:
 445:src/hbprotocol/machine_protocol.c ****             return -1;
 1118              		.loc 1 445 20 view .LVU348
 1119 0188 4FF0FF30 		mov	r0, #-1
 1120              	.LVL92:
 445:src/hbprotocol/machine_protocol.c ****             return -1;
 1121              		.loc 1 445 20 view .LVU349
 1122 018c 66E7     		b	.L55
 1123              	.LVL93:
 1124              	.L67:
 477:src/hbprotocol/machine_protocol.c ****     return -1; // nothing to send
 1125              		.loc 1 477 12 view .LVU350
 1126 018e 4FF0FF30 		mov	r0, #-1
 1127              	.LVL94:
 477:src/hbprotocol/machine_protocol.c ****     return -1; // nothing to send
 1128              		.loc 1 477 12 view .LVU351
 1129 0192 63E7     		b	.L55
 1130              	.L73:
 1131              		.align	2
 1132              	.L72:
 1133 0194 00000000 		.word	protocol_GetTick
 1134              		.cfi_endproc
 1135              	.LFE8:
 1137              		.section	.text.protocol_tick,"ax",%progbits
 1138              		.align	1
 1139              		.global	protocol_tick
 1140              		.syntax unified
 1141              		.thumb
 1142              		.thumb_func
 1144              	protocol_tick:
 1145              	.LVL95:
 1146              	.LFB11:
 537:src/hbprotocol/machine_protocol.c **** void protocol_tick(PROTOCOL_STAT *s){
ARM GAS  /tmp/cc7G3T4Q.s 			page 38


 1147              		.loc 1 537 37 is_stmt 1 view -0
 1148              		.cfi_startproc
 1149              		@ args = 0, pretend = 0, frame = 264
 1150              		@ frame_needed = 0, uses_anonymous_args = 0
 537:src/hbprotocol/machine_protocol.c **** void protocol_tick(PROTOCOL_STAT *s){
 1151              		.loc 1 537 37 is_stmt 0 view .LVU353
 1152 0000 70B5     		push	{r4, r5, r6, lr}
 1153              	.LCFI17:
 1154              		.cfi_def_cfa_offset 16
 1155              		.cfi_offset 4, -16
 1156              		.cfi_offset 5, -12
 1157              		.cfi_offset 6, -8
 1158              		.cfi_offset 14, -4
 1159 0002 C2B0     		sub	sp, sp, #264
 1160              	.LCFI18:
 1161              		.cfi_def_cfa_offset 280
 1162 0004 0546     		mov	r5, r0
 538:src/hbprotocol/machine_protocol.c ****     s->last_tick_time = protocol_GetTick();
 1163              		.loc 1 538 5 is_stmt 1 view .LVU354
 538:src/hbprotocol/machine_protocol.c ****     s->last_tick_time = protocol_GetTick();
 1164              		.loc 1 538 25 is_stmt 0 view .LVU355
 1165 0006 4E4B     		ldr	r3, .L88
 1166 0008 1B68     		ldr	r3, [r3]
 1167 000a 9847     		blx	r3
 1168              	.LVL96:
 538:src/hbprotocol/machine_protocol.c ****     s->last_tick_time = protocol_GetTick();
 1169              		.loc 1 538 23 discriminator 1 view .LVU356
 1170 000c 6860     		str	r0, [r5, #4]
 541:src/hbprotocol/machine_protocol.c ****     if(s->send_state == PROTOCOL_ACK_TX_WAITING) {
 1171              		.loc 1 541 5 is_stmt 1 view .LVU357
 541:src/hbprotocol/machine_protocol.c ****     if(s->send_state == PROTOCOL_ACK_TX_WAITING) {
 1172              		.loc 1 541 9 is_stmt 0 view .LVU358
 1173 000e 95F81531 		ldrb	r3, [r5, #277]	@ zero_extendqisi2
 541:src/hbprotocol/machine_protocol.c ****     if(s->send_state == PROTOCOL_ACK_TX_WAITING) {
 1174              		.loc 1 541 7 view .LVU359
 1175 0012 012B     		cmp	r3, #1
 1176 0014 10D0     		beq	.L84
 1177              	.L75:
 557:src/hbprotocol/machine_protocol.c ****     protocol_send(s, NULL);
 1178              		.loc 1 557 5 is_stmt 1 view .LVU360
 1179 0016 0021     		movs	r1, #0
 1180 0018 2846     		mov	r0, r5
 1181 001a FFF7FEFF 		bl	protocol_send
 1182              	.LVL97:
 559:src/hbprotocol/machine_protocol.c ****     switch(s->state){
 1183              		.loc 1 559 5 view .LVU361
 559:src/hbprotocol/machine_protocol.c ****     switch(s->state){
 1184              		.loc 1 559 13 is_stmt 0 view .LVU362
 1185 001e 2B7A     		ldrb	r3, [r5, #8]	@ zero_extendqisi2
 559:src/hbprotocol/machine_protocol.c ****     switch(s->state){
 1186              		.loc 1 559 5 view .LVU363
 1187 0020 43B1     		cbz	r3, .L77
 1188 0022 052B     		cmp	r3, #5
 1189 0024 38D1     		bne	.L78
 566:src/hbprotocol/machine_protocol.c ****             if ((s->last_tick_time - s->last_char_time) > s->timeout2){
 1190              		.loc 1 566 13 is_stmt 1 view .LVU364
 566:src/hbprotocol/machine_protocol.c ****             if ((s->last_tick_time - s->last_char_time) > s->timeout2){
ARM GAS  /tmp/cc7G3T4Q.s 			page 39


 1191              		.loc 1 566 19 is_stmt 0 view .LVU365
 1192 0026 6B68     		ldr	r3, [r5, #4]
 566:src/hbprotocol/machine_protocol.c ****             if ((s->last_tick_time - s->last_char_time) > s->timeout2){
 1193              		.loc 1 566 39 view .LVU366
 1194 0028 EA68     		ldr	r2, [r5, #12]
 566:src/hbprotocol/machine_protocol.c ****             if ((s->last_tick_time - s->last_char_time) > s->timeout2){
 1195              		.loc 1 566 36 view .LVU367
 1196 002a 9B1A     		subs	r3, r3, r2
 566:src/hbprotocol/machine_protocol.c ****             if ((s->last_tick_time - s->last_char_time) > s->timeout2){
 1197              		.loc 1 566 60 view .LVU368
 1198 002c D5F81C21 		ldr	r2, [r5, #284]
 566:src/hbprotocol/machine_protocol.c ****             if ((s->last_tick_time - s->last_char_time) > s->timeout2){
 1199              		.loc 1 566 16 view .LVU369
 1200 0030 9342     		cmp	r3, r2
 1201 0032 25D8     		bhi	.L85
 1202              	.L77:
 537:src/hbprotocol/machine_protocol.c **** void protocol_tick(PROTOCOL_STAT *s){
 1203              		.loc 1 537 37 view .LVU370
 1204 0034 0024     		movs	r4, #0
 1205 0036 41E0     		b	.L81
 1206              	.L84:
 542:src/hbprotocol/machine_protocol.c ****         if ((s->last_tick_time - s->ack.last_send_time) > s->timeout1){
 1207              		.loc 1 542 9 is_stmt 1 view .LVU371
 542:src/hbprotocol/machine_protocol.c ****         if ((s->last_tick_time - s->ack.last_send_time) > s->timeout1){
 1208              		.loc 1 542 40 is_stmt 0 view .LVU372
 1209 0038 D5F8BC32 		ldr	r3, [r5, #700]
 542:src/hbprotocol/machine_protocol.c ****         if ((s->last_tick_time - s->ack.last_send_time) > s->timeout1){
 1210              		.loc 1 542 32 view .LVU373
 1211 003c C01A     		subs	r0, r0, r3
 542:src/hbprotocol/machine_protocol.c ****         if ((s->last_tick_time - s->ack.last_send_time) > s->timeout1){
 1212              		.loc 1 542 60 view .LVU374
 1213 003e D5F81831 		ldr	r3, [r5, #280]
 542:src/hbprotocol/machine_protocol.c ****         if ((s->last_tick_time - s->ack.last_send_time) > s->timeout1){
 1214              		.loc 1 542 12 view .LVU375
 1215 0042 9842     		cmp	r0, r3
 1216 0044 E7D9     		bls	.L75
 544:src/hbprotocol/machine_protocol.c ****             if (s->ack.retries > 0){
 1217              		.loc 1 544 13 is_stmt 1 view .LVU376
 544:src/hbprotocol/machine_protocol.c ****             if (s->ack.retries > 0){
 1218              		.loc 1 544 23 is_stmt 0 view .LVU377
 1219 0046 95F8B632 		ldrb	r3, [r5, #694]	@ zero_extendqisi2
 544:src/hbprotocol/machine_protocol.c ****             if (s->ack.retries > 0){
 1220              		.loc 1 544 16 view .LVU378
 1221 004a 1BB9     		cbnz	r3, .L86
 551:src/hbprotocol/machine_protocol.c ****                 s->send_state = PROTOCOL_ACK_TX_IDLE;
 1222              		.loc 1 551 17 is_stmt 1 view .LVU379
 551:src/hbprotocol/machine_protocol.c ****                 s->send_state = PROTOCOL_ACK_TX_IDLE;
 1223              		.loc 1 551 31 is_stmt 0 view .LVU380
 1224 004c 0023     		movs	r3, #0
 1225 004e 85F81531 		strb	r3, [r5, #277]
 1226 0052 E0E7     		b	.L75
 1227              	.L86:
 545:src/hbprotocol/machine_protocol.c ****                 s->ack.counters.txRetries++;
 1228              		.loc 1 545 17 is_stmt 1 view .LVU381
 545:src/hbprotocol/machine_protocol.c ****                 s->ack.counters.txRetries++;
 1229              		.loc 1 545 32 is_stmt 0 view .LVU382
 1230 0054 D5F8CC32 		ldr	r3, [r5, #716]
ARM GAS  /tmp/cc7G3T4Q.s 			page 40


 545:src/hbprotocol/machine_protocol.c ****                 s->ack.counters.txRetries++;
 1231              		.loc 1 545 42 view .LVU383
 1232 0058 0133     		adds	r3, r3, #1
 1233 005a C5F8CC32 		str	r3, [r5, #716]
 546:src/hbprotocol/machine_protocol.c ****                 protocol_send_raw(s->send_serial_data, &s->ack.curr_send_msg);
 1234              		.loc 1 546 17 is_stmt 1 view .LVU384
 1235 005e 05F5DA71 		add	r1, r5, #436
 1236 0062 D5F82001 		ldr	r0, [r5, #288]
 1237 0066 FFF7FEFF 		bl	protocol_send_raw
 1238              	.LVL98:
 547:src/hbprotocol/machine_protocol.c ****                 s->ack.last_send_time = protocol_GetTick();
 1239              		.loc 1 547 17 view .LVU385
 547:src/hbprotocol/machine_protocol.c ****                 s->ack.last_send_time = protocol_GetTick();
 1240              		.loc 1 547 41 is_stmt 0 view .LVU386
 1241 006a 354B     		ldr	r3, .L88
 1242 006c 1B68     		ldr	r3, [r3]
 1243 006e 9847     		blx	r3
 1244              	.LVL99:
 547:src/hbprotocol/machine_protocol.c ****                 s->ack.last_send_time = protocol_GetTick();
 1245              		.loc 1 547 39 discriminator 1 view .LVU387
 1246 0070 C5F8BC02 		str	r0, [r5, #700]
 548:src/hbprotocol/machine_protocol.c ****                 s->ack.retries--;
 1247              		.loc 1 548 17 is_stmt 1 view .LVU388
 548:src/hbprotocol/machine_protocol.c ****                 s->ack.retries--;
 1248              		.loc 1 548 23 is_stmt 0 view .LVU389
 1249 0074 95F8B632 		ldrb	r3, [r5, #694]	@ zero_extendqisi2
 548:src/hbprotocol/machine_protocol.c ****                 s->ack.retries--;
 1250              		.loc 1 548 31 view .LVU390
 1251 0078 013B     		subs	r3, r3, #1
 1252 007a 85F8B632 		strb	r3, [r5, #694]
 1253 007e CAE7     		b	.L75
 1254              	.L85:
 567:src/hbprotocol/machine_protocol.c ****                 protocol_send_nack(s->send_serial_data, s->curr_msg.CI+1, s->curr_msg.SOM);
 1255              		.loc 1 567 17 is_stmt 1 view .LVU391
 567:src/hbprotocol/machine_protocol.c ****                 protocol_send_nack(s->send_serial_data, s->curr_msg.CI+1, s->curr_msg.SOM);
 1256              		.loc 1 567 68 is_stmt 0 view .LVU392
 1257 0080 297D     		ldrb	r1, [r5, #20]	@ zero_extendqisi2
 567:src/hbprotocol/machine_protocol.c ****                 protocol_send_nack(s->send_serial_data, s->curr_msg.CI+1, s->curr_msg.SOM);
 1258              		.loc 1 567 17 view .LVU393
 1259 0082 0131     		adds	r1, r1, #1
 1260 0084 AA7C     		ldrb	r2, [r5, #18]	@ zero_extendqisi2
 1261 0086 C9B2     		uxtb	r1, r1
 1262 0088 D5F82001 		ldr	r0, [r5, #288]
 1263 008c FFF7FEFF 		bl	protocol_send_nack
 1264              	.LVL100:
 568:src/hbprotocol/machine_protocol.c ****                 s->last_char_time = 0;
 1265              		.loc 1 568 17 is_stmt 1 view .LVU394
 568:src/hbprotocol/machine_protocol.c ****                 s->last_char_time = 0;
 1266              		.loc 1 568 35 is_stmt 0 view .LVU395
 1267 0090 0023     		movs	r3, #0
 1268 0092 EB60     		str	r3, [r5, #12]
 569:src/hbprotocol/machine_protocol.c ****                 s->state = PROTOCOL_STATE_IDLE;
 1269              		.loc 1 569 17 is_stmt 1 view .LVU396
 569:src/hbprotocol/machine_protocol.c ****                 s->state = PROTOCOL_STATE_IDLE;
 1270              		.loc 1 569 26 is_stmt 0 view .LVU397
 1271 0094 2B72     		strb	r3, [r5, #8]
 1272 0096 CDE7     		b	.L77
ARM GAS  /tmp/cc7G3T4Q.s 			page 41


 1273              	.L78:
 577:src/hbprotocol/machine_protocol.c ****             if ((s->last_tick_time - s->last_char_time) > s->timeout2){
 1274              		.loc 1 577 13 is_stmt 1 view .LVU398
 577:src/hbprotocol/machine_protocol.c ****             if ((s->last_tick_time - s->last_char_time) > s->timeout2){
 1275              		.loc 1 577 19 is_stmt 0 view .LVU399
 1276 0098 6B68     		ldr	r3, [r5, #4]
 577:src/hbprotocol/machine_protocol.c ****             if ((s->last_tick_time - s->last_char_time) > s->timeout2){
 1277              		.loc 1 577 39 view .LVU400
 1278 009a EA68     		ldr	r2, [r5, #12]
 577:src/hbprotocol/machine_protocol.c ****             if ((s->last_tick_time - s->last_char_time) > s->timeout2){
 1279              		.loc 1 577 36 view .LVU401
 1280 009c 9B1A     		subs	r3, r3, r2
 577:src/hbprotocol/machine_protocol.c ****             if ((s->last_tick_time - s->last_char_time) > s->timeout2){
 1281              		.loc 1 577 60 view .LVU402
 1282 009e D5F81C21 		ldr	r2, [r5, #284]
 577:src/hbprotocol/machine_protocol.c ****             if ((s->last_tick_time - s->last_char_time) > s->timeout2){
 1283              		.loc 1 577 16 view .LVU403
 1284 00a2 9342     		cmp	r3, r2
 1285 00a4 C6D9     		bls	.L77
 578:src/hbprotocol/machine_protocol.c ****                 protocol_send_nack(s->send_serial_data, s->curr_msg.CI, s->curr_msg.SOM);
 1286              		.loc 1 578 17 is_stmt 1 view .LVU404
 1287 00a6 AA7C     		ldrb	r2, [r5, #18]	@ zero_extendqisi2
 1288 00a8 297D     		ldrb	r1, [r5, #20]	@ zero_extendqisi2
 1289 00aa D5F82001 		ldr	r0, [r5, #288]
 1290 00ae FFF7FEFF 		bl	protocol_send_nack
 1291              	.LVL101:
 579:src/hbprotocol/machine_protocol.c ****                 s->last_char_time = 0;
 1292              		.loc 1 579 17 view .LVU405
 579:src/hbprotocol/machine_protocol.c ****                 s->last_char_time = 0;
 1293              		.loc 1 579 35 is_stmt 0 view .LVU406
 1294 00b2 0023     		movs	r3, #0
 1295 00b4 EB60     		str	r3, [r5, #12]
 580:src/hbprotocol/machine_protocol.c ****                 s->state = PROTOCOL_STATE_IDLE;
 1296              		.loc 1 580 17 is_stmt 1 view .LVU407
 580:src/hbprotocol/machine_protocol.c ****                 s->state = PROTOCOL_STATE_IDLE;
 1297              		.loc 1 580 26 is_stmt 0 view .LVU408
 1298 00b6 2B72     		strb	r3, [r5, #8]
 1299 00b8 BCE7     		b	.L77
 1300              	.LVL102:
 1301              	.L79:
 591:src/hbprotocol/machine_protocol.c ****     for (index = 0; index < len; index++) {
 1302              		.loc 1 591 39 is_stmt 1 discriminator 2 view .LVU409
 1303 00ba 0134     		adds	r4, r4, #1
 1304              	.LVL103:
 1305              	.L81:
 591:src/hbprotocol/machine_protocol.c ****     for (index = 0; index < len; index++) {
 1306              		.loc 1 591 27 discriminator 1 view .LVU410
 1307 00bc 092C     		cmp	r4, #9
 1308 00be 3DDC     		bgt	.L87
 592:src/hbprotocol/machine_protocol.c ****         if( s->subscriptions[index].code != 0 && s->subscriptions[index].count != 0 ) {
 1309              		.loc 1 592 9 view .LVU411
 592:src/hbprotocol/machine_protocol.c ****         if( s->subscriptions[index].code != 0 && s->subscriptions[index].count != 0 ) {
 1310              		.loc 1 592 36 is_stmt 0 view .LVU412
 1311 00c0 C4EBC403 		rsb	r3, r4, r4, lsl #3
 1312 00c4 05EB4303 		add	r3, r5, r3, lsl #1
 1313 00c8 93F82861 		ldrb	r6, [r3, #296]	@ zero_extendqisi2
 592:src/hbprotocol/machine_protocol.c ****         if( s->subscriptions[index].code != 0 && s->subscriptions[index].count != 0 ) {
ARM GAS  /tmp/cc7G3T4Q.s 			page 42


 1314              		.loc 1 592 11 view .LVU413
 1315 00cc 002E     		cmp	r6, #0
 1316 00ce F4D0     		beq	.L79
 592:src/hbprotocol/machine_protocol.c ****         if( s->subscriptions[index].code != 0 && s->subscriptions[index].count != 0 ) {
 1317              		.loc 1 592 73 discriminator 1 view .LVU414
 1318 00d0 C4EBC403 		rsb	r3, r4, r4, lsl #3
 1319 00d4 05EB4303 		add	r3, r5, r3, lsl #1
 1320 00d8 D3F82D31 		ldr	r3, [r3, #301]	@ unaligned
 592:src/hbprotocol/machine_protocol.c ****         if( s->subscriptions[index].code != 0 && s->subscriptions[index].count != 0 ) {
 1321              		.loc 1 592 47 discriminator 1 view .LVU415
 1322 00dc 002B     		cmp	r3, #0
 1323 00de ECD0     		beq	.L79
 595:src/hbprotocol/machine_protocol.c ****             if( s->subscriptions[index].next_send_time <= s->last_tick_time) {
 1324              		.loc 1 595 13 is_stmt 1 view .LVU416
 595:src/hbprotocol/machine_protocol.c ****             if( s->subscriptions[index].next_send_time <= s->last_tick_time) {
 1325              		.loc 1 595 40 is_stmt 0 view .LVU417
 1326 00e0 C4EBC403 		rsb	r3, r4, r4, lsl #3
 1327 00e4 05EB4303 		add	r3, r5, r3, lsl #1
 1328 00e8 D3F83221 		ldr	r2, [r3, #306]	@ unaligned
 595:src/hbprotocol/machine_protocol.c ****             if( s->subscriptions[index].next_send_time <= s->last_tick_time) {
 1329              		.loc 1 595 60 view .LVU418
 1330 00ec 6B68     		ldr	r3, [r5, #4]
 595:src/hbprotocol/machine_protocol.c ****             if( s->subscriptions[index].next_send_time <= s->last_tick_time) {
 1331              		.loc 1 595 15 view .LVU419
 1332 00ee 9A42     		cmp	r2, r3
 1333 00f0 E3D8     		bhi	.L79
 1334              	.LBB8:
 599:src/hbprotocol/machine_protocol.c ****                 PROTOCOL_MSG3full newMsg;
 1335              		.loc 1 599 17 is_stmt 1 view .LVU420
 600:src/hbprotocol/machine_protocol.c ****                 memset((void*)&newMsg,0x00,sizeof(PROTOCOL_MSG3full));
 1336              		.loc 1 600 17 view .LVU421
 1337 00f2 4FF48172 		mov	r2, #258
 1338 00f6 0021     		movs	r1, #0
 1339 00f8 01A8     		add	r0, sp, #4
 1340 00fa FFF7FEFF 		bl	memset
 1341              	.LVL104:
 602:src/hbprotocol/machine_protocol.c ****                 newMsg.cmd  = PROTOCOL_CMD_READVAL;
 1342              		.loc 1 602 17 view .LVU422
 602:src/hbprotocol/machine_protocol.c ****                 newMsg.cmd  = PROTOCOL_CMD_READVAL;
 1343              		.loc 1 602 29 is_stmt 0 view .LVU423
 1344 00fe 5223     		movs	r3, #82
 1345 0100 8DF80530 		strb	r3, [sp, #5]
 603:src/hbprotocol/machine_protocol.c ****                 newMsg.code = s->subscriptions[index].code;
 1346              		.loc 1 603 17 is_stmt 1 view .LVU424
 603:src/hbprotocol/machine_protocol.c ****                 newMsg.code = s->subscriptions[index].code;
 1347              		.loc 1 603 29 is_stmt 0 view .LVU425
 1348 0104 8DF80860 		strb	r6, [sp, #8]
 604:src/hbprotocol/machine_protocol.c ****                 newMsg.SOM = s->subscriptions[index].som;
 1349              		.loc 1 604 17 is_stmt 1 view .LVU426
 604:src/hbprotocol/machine_protocol.c ****                 newMsg.SOM = s->subscriptions[index].som;
 1350              		.loc 1 604 53 is_stmt 0 view .LVU427
 1351 0108 C4EBC406 		rsb	r6, r4, r4, lsl #3
 1352 010c 05EB4606 		add	r6, r5, r6, lsl #1
 1353 0110 96F83131 		ldrb	r3, [r6, #305]	@ zero_extendqisi2
 604:src/hbprotocol/machine_protocol.c ****                 newMsg.SOM = s->subscriptions[index].som;
 1354              		.loc 1 604 28 view .LVU428
 1355 0114 8DF80430 		strb	r3, [sp, #4]
ARM GAS  /tmp/cc7G3T4Q.s 			page 43


 606:src/hbprotocol/machine_protocol.c ****                 protocol_process_message(s, &newMsg);
 1356              		.loc 1 606 17 is_stmt 1 view .LVU429
 1357 0118 01A9     		add	r1, sp, #4
 1358 011a 2846     		mov	r0, r5
 1359 011c FFF7FEFF 		bl	protocol_process_message
 1360              	.LVL105:
 610:src/hbprotocol/machine_protocol.c ****                 s->subscriptions[index].next_send_time = s->last_tick_time + s->subscriptions[index
 1361              		.loc 1 610 17 view .LVU430
 610:src/hbprotocol/machine_protocol.c ****                 s->subscriptions[index].next_send_time = s->last_tick_time + s->subscriptions[index
 1362              		.loc 1 610 59 is_stmt 0 view .LVU431
 1363 0120 6B68     		ldr	r3, [r5, #4]
 610:src/hbprotocol/machine_protocol.c ****                 s->subscriptions[index].next_send_time = s->last_tick_time + s->subscriptions[index
 1364              		.loc 1 610 101 view .LVU432
 1365 0122 D6F82921 		ldr	r2, [r6, #297]	@ unaligned
 610:src/hbprotocol/machine_protocol.c ****                 s->subscriptions[index].next_send_time = s->last_tick_time + s->subscriptions[index
 1366              		.loc 1 610 76 view .LVU433
 1367 0126 1344     		add	r3, r3, r2
 610:src/hbprotocol/machine_protocol.c ****                 s->subscriptions[index].next_send_time = s->last_tick_time + s->subscriptions[index
 1368              		.loc 1 610 56 view .LVU434
 1369 0128 C6F83231 		str	r3, [r6, #306]	@ unaligned
 611:src/hbprotocol/machine_protocol.c ****                 if(s->subscriptions[index].count > 0) {
 1370              		.loc 1 611 17 is_stmt 1 view .LVU435
 611:src/hbprotocol/machine_protocol.c ****                 if(s->subscriptions[index].count > 0) {
 1371              		.loc 1 611 43 is_stmt 0 view .LVU436
 1372 012c D6F82D31 		ldr	r3, [r6, #301]	@ unaligned
 611:src/hbprotocol/machine_protocol.c ****                 if(s->subscriptions[index].count > 0) {
 1373              		.loc 1 611 19 view .LVU437
 1374 0130 002B     		cmp	r3, #0
 1375 0132 C2DD     		ble	.L79
 612:src/hbprotocol/machine_protocol.c ****                     s->subscriptions[index].count = s->subscriptions[index].count - 1;
 1376              		.loc 1 612 21 is_stmt 1 view .LVU438
 612:src/hbprotocol/machine_protocol.c ****                     s->subscriptions[index].count = s->subscriptions[index].count - 1;
 1377              		.loc 1 612 83 is_stmt 0 view .LVU439
 1378 0134 013B     		subs	r3, r3, #1
 612:src/hbprotocol/machine_protocol.c ****                     s->subscriptions[index].count = s->subscriptions[index].count - 1;
 1379              		.loc 1 612 51 view .LVU440
 1380 0136 C6F82D31 		str	r3, [r6, #301]	@ unaligned
 1381 013a BEE7     		b	.L79
 1382              	.L87:
 612:src/hbprotocol/machine_protocol.c ****                     s->subscriptions[index].count = s->subscriptions[index].count - 1;
 1383              		.loc 1 612 51 view .LVU441
 1384              	.LBE8:
 621:src/hbprotocol/machine_protocol.c **** }
 1385              		.loc 1 621 1 view .LVU442
 1386 013c 42B0     		add	sp, sp, #264
 1387              	.LCFI19:
 1388              		.cfi_def_cfa_offset 16
 1389              		@ sp needed
 1390 013e 70BD     		pop	{r4, r5, r6, pc}
 1391              	.LVL106:
 1392              	.L89:
 621:src/hbprotocol/machine_protocol.c **** }
 1393              		.loc 1 621 1 view .LVU443
 1394              		.align	2
 1395              	.L88:
 1396 0140 00000000 		.word	protocol_GetTick
 1397              		.cfi_endproc
ARM GAS  /tmp/cc7G3T4Q.s 			page 44


 1398              	.LFE11:
 1400              		.section	.text.protocol_byte,"ax",%progbits
 1401              		.align	1
 1402              		.global	protocol_byte
 1403              		.syntax unified
 1404              		.thumb
 1405              		.thumb_func
 1407              	protocol_byte:
 1408              	.LVL107:
 1409              	.LFB4:
 132:src/hbprotocol/machine_protocol.c **** void protocol_byte(PROTOCOL_STAT *s, unsigned char byte ){
 1410              		.loc 1 132 58 is_stmt 1 view -0
 1411              		.cfi_startproc
 1412              		@ args = 0, pretend = 0, frame = 0
 1413              		@ frame_needed = 0, uses_anonymous_args = 0
 132:src/hbprotocol/machine_protocol.c **** void protocol_byte(PROTOCOL_STAT *s, unsigned char byte ){
 1414              		.loc 1 132 58 is_stmt 0 view .LVU445
 1415 0000 38B5     		push	{r3, r4, r5, lr}
 1416              	.LCFI20:
 1417              		.cfi_def_cfa_offset 16
 1418              		.cfi_offset 3, -16
 1419              		.cfi_offset 4, -12
 1420              		.cfi_offset 5, -8
 1421              		.cfi_offset 14, -4
 1422 0002 0446     		mov	r4, r0
 1423 0004 0D46     		mov	r5, r1
 134:src/hbprotocol/machine_protocol.c ****     s->last_char_time = protocol_GetTick();
 1424              		.loc 1 134 5 is_stmt 1 view .LVU446
 134:src/hbprotocol/machine_protocol.c ****     s->last_char_time = protocol_GetTick();
 1425              		.loc 1 134 25 is_stmt 0 view .LVU447
 1426 0006 AC4B     		ldr	r3, .L135
 1427 0008 1B68     		ldr	r3, [r3]
 1428 000a 9847     		blx	r3
 1429              	.LVL108:
 134:src/hbprotocol/machine_protocol.c ****     s->last_char_time = protocol_GetTick();
 1430              		.loc 1 134 23 discriminator 1 view .LVU448
 1431 000c E060     		str	r0, [r4, #12]
 137:src/hbprotocol/machine_protocol.c ****     if (byte == PROTOCOL_SOM) {
 1432              		.loc 1 137 5 is_stmt 1 view .LVU449
 137:src/hbprotocol/machine_protocol.c ****     if (byte == PROTOCOL_SOM) {
 1433              		.loc 1 137 8 is_stmt 0 view .LVU450
 1434 000e 3DB1     		cbz	r5, .L126
 159:src/hbprotocol/machine_protocol.c ****     switch(s->state){
 1435              		.loc 1 159 5 is_stmt 1 view .LVU451
 159:src/hbprotocol/machine_protocol.c ****     switch(s->state){
 1436              		.loc 1 159 13 is_stmt 0 view .LVU452
 1437 0010 237A     		ldrb	r3, [r4, #8]	@ zero_extendqisi2
 159:src/hbprotocol/machine_protocol.c ****     switch(s->state){
 1438              		.loc 1 159 5 view .LVU453
 1439 0012 052B     		cmp	r3, #5
 1440 0014 17D8     		bhi	.L90
 1441 0016 DFE803F0 		tbb	[pc, r3]
 1442              	.L96:
 1443 001a 1E       		.byte	(.L95-.L96)/2
 1444 001b 2A       		.byte	(.L100-.L96)/2
 1445 001c 2E       		.byte	(.L99-.L96)/2
 1446 001d 32       		.byte	(.L98-.L96)/2
ARM GAS  /tmp/cc7G3T4Q.s 			page 45


 1447 001e 38       		.byte	(.L97-.L96)/2
 1448 001f 1E       		.byte	(.L95-.L96)/2
 1449              		.p2align 1
 1450              	.L126:
 139:src/hbprotocol/machine_protocol.c ****         switch(s->state) {
 1451              		.loc 1 139 9 is_stmt 1 view .LVU454
 139:src/hbprotocol/machine_protocol.c ****         switch(s->state) {
 1452              		.loc 1 139 17 is_stmt 0 view .LVU455
 1453 0020 237A     		ldrb	r3, [r4, #8]	@ zero_extendqisi2
 139:src/hbprotocol/machine_protocol.c ****         switch(s->state) {
 1454              		.loc 1 139 9 view .LVU456
 1455 0022 5BB1     		cbz	r3, .L92
 1456 0024 013B     		subs	r3, r3, #1
 1457 0026 DBB2     		uxtb	r3, r3
 1458 0028 012B     		cmp	r3, #1
 1459 002a 0DD8     		bhi	.L93
 146:src/hbprotocol/machine_protocol.c ****                 protocol_send_nack(s->send_serial_data, s->curr_msg.CI+1, s->curr_msg.SOM);
 1460              		.loc 1 146 17 is_stmt 1 view .LVU457
 146:src/hbprotocol/machine_protocol.c ****                 protocol_send_nack(s->send_serial_data, s->curr_msg.CI+1, s->curr_msg.SOM);
 1461              		.loc 1 146 68 is_stmt 0 view .LVU458
 1462 002c 217D     		ldrb	r1, [r4, #20]	@ zero_extendqisi2
 146:src/hbprotocol/machine_protocol.c ****                 protocol_send_nack(s->send_serial_data, s->curr_msg.CI+1, s->curr_msg.SOM);
 1463              		.loc 1 146 17 view .LVU459
 1464 002e 0131     		adds	r1, r1, #1
 1465 0030 A27C     		ldrb	r2, [r4, #18]	@ zero_extendqisi2
 1466 0032 C9B2     		uxtb	r1, r1
 1467 0034 D4F82001 		ldr	r0, [r4, #288]
 1468 0038 FFF7FEFF 		bl	protocol_send_nack
 1469              	.LVL109:
 147:src/hbprotocol/machine_protocol.c ****                 break;
 1470              		.loc 1 147 17 is_stmt 1 view .LVU460
 1471              	.L92:
 153:src/hbprotocol/machine_protocol.c ****         s->curr_msg.SOM = byte;
 1472              		.loc 1 153 9 view .LVU461
 153:src/hbprotocol/machine_protocol.c ****         s->curr_msg.SOM = byte;
 1473              		.loc 1 153 25 is_stmt 0 view .LVU462
 1474 003c A574     		strb	r5, [r4, #18]
 154:src/hbprotocol/machine_protocol.c ****         s->CS = 0;
 1475              		.loc 1 154 9 is_stmt 1 view .LVU463
 154:src/hbprotocol/machine_protocol.c ****         s->CS = 0;
 1476              		.loc 1 154 15 is_stmt 0 view .LVU464
 1477 003e 0023     		movs	r3, #0
 1478 0040 2374     		strb	r3, [r4, #16]
 155:src/hbprotocol/machine_protocol.c ****         s->state = PROTOCOL_STATE_WAIT_CMD;
 1479              		.loc 1 155 9 is_stmt 1 view .LVU465
 155:src/hbprotocol/machine_protocol.c ****         s->state = PROTOCOL_STATE_WAIT_CMD;
 1480              		.loc 1 155 18 is_stmt 0 view .LVU466
 1481 0042 0123     		movs	r3, #1
 1482 0044 2372     		strb	r3, [r4, #8]
 156:src/hbprotocol/machine_protocol.c ****         return; // leave function.
 1483              		.loc 1 156 9 is_stmt 1 view .LVU467
 1484              	.LVL110:
 1485              	.L90:
 349:src/hbprotocol/machine_protocol.c **** }
 1486              		.loc 1 349 1 is_stmt 0 view .LVU468
 1487 0046 38BD     		pop	{r3, r4, r5, pc}
 1488              	.LVL111:
ARM GAS  /tmp/cc7G3T4Q.s 			page 46


 1489              	.L93:
 150:src/hbprotocol/machine_protocol.c ****                 protocol_send_nack(s->send_serial_data, s->curr_msg.CI, s->curr_msg.SOM);
 1490              		.loc 1 150 17 is_stmt 1 view .LVU469
 1491 0048 A27C     		ldrb	r2, [r4, #18]	@ zero_extendqisi2
 1492 004a 217D     		ldrb	r1, [r4, #20]	@ zero_extendqisi2
 1493 004c D4F82001 		ldr	r0, [r4, #288]
 1494 0050 FFF7FEFF 		bl	protocol_send_nack
 1495              	.LVL112:
 151:src/hbprotocol/machine_protocol.c ****                 break;
 1496              		.loc 1 151 17 view .LVU470
 1497 0054 F2E7     		b	.L92
 1498              	.L95:
 162:src/hbprotocol/machine_protocol.c ****         if (s->allow_ascii){
 1499              		.loc 1 162 9 view .LVU471
 162:src/hbprotocol/machine_protocol.c ****         if (s->allow_ascii){
 1500              		.loc 1 162 14 is_stmt 0 view .LVU472
 1501 0056 2378     		ldrb	r3, [r4]	@ zero_extendqisi2
 162:src/hbprotocol/machine_protocol.c ****         if (s->allow_ascii){
 1502              		.loc 1 162 12 view .LVU473
 1503 0058 13B9     		cbnz	r3, .L127
 170:src/hbprotocol/machine_protocol.c ****             s->state = PROTOCOL_STATE_BADCHAR;
 1504              		.loc 1 170 13 is_stmt 1 view .LVU474
 170:src/hbprotocol/machine_protocol.c ****             s->state = PROTOCOL_STATE_BADCHAR;
 1505              		.loc 1 170 22 is_stmt 0 view .LVU475
 1506 005a 0523     		movs	r3, #5
 1507 005c 2372     		strb	r3, [r4, #8]
 1508 005e F2E7     		b	.L90
 1509              	.L127:
 166:src/hbprotocol/machine_protocol.c ****             s->last_char_time = 0;
 1510              		.loc 1 166 13 is_stmt 1 view .LVU476
 166:src/hbprotocol/machine_protocol.c ****             s->last_char_time = 0;
 1511              		.loc 1 166 31 is_stmt 0 view .LVU477
 1512 0060 0023     		movs	r3, #0
 1513 0062 E360     		str	r3, [r4, #12]
 167:src/hbprotocol/machine_protocol.c ****             ascii_byte(s, byte );
 1514              		.loc 1 167 13 is_stmt 1 view .LVU478
 1515 0064 2946     		mov	r1, r5
 1516 0066 2046     		mov	r0, r4
 1517 0068 FFF7FEFF 		bl	ascii_byte
 1518              	.LVL113:
 1519 006c EBE7     		b	.L90
 1520              	.L100:
 175:src/hbprotocol/machine_protocol.c ****         s->curr_msg.cmd = byte;
 1521              		.loc 1 175 9 view .LVU479
 175:src/hbprotocol/machine_protocol.c ****         s->curr_msg.cmd = byte;
 1522              		.loc 1 175 25 is_stmt 0 view .LVU480
 1523 006e E574     		strb	r5, [r4, #19]
 176:src/hbprotocol/machine_protocol.c ****         s->state = PROTOCOL_STATE_WAIT_CI;
 1524              		.loc 1 176 9 is_stmt 1 view .LVU481
 176:src/hbprotocol/machine_protocol.c ****         s->state = PROTOCOL_STATE_WAIT_CI;
 1525              		.loc 1 176 18 is_stmt 0 view .LVU482
 1526 0070 0223     		movs	r3, #2
 1527 0072 2372     		strb	r3, [r4, #8]
 177:src/hbprotocol/machine_protocol.c ****         break;
 1528              		.loc 1 177 9 is_stmt 1 view .LVU483
 1529 0074 E7E7     		b	.L90
 1530              	.L99:
ARM GAS  /tmp/cc7G3T4Q.s 			page 47


 180:src/hbprotocol/machine_protocol.c ****         s->curr_msg.CI = byte;
 1531              		.loc 1 180 9 view .LVU484
 180:src/hbprotocol/machine_protocol.c ****         s->curr_msg.CI = byte;
 1532              		.loc 1 180 24 is_stmt 0 view .LVU485
 1533 0076 2575     		strb	r5, [r4, #20]
 181:src/hbprotocol/machine_protocol.c ****         s->state = PROTOCOL_STATE_WAIT_LEN;
 1534              		.loc 1 181 9 is_stmt 1 view .LVU486
 181:src/hbprotocol/machine_protocol.c ****         s->state = PROTOCOL_STATE_WAIT_LEN;
 1535              		.loc 1 181 18 is_stmt 0 view .LVU487
 1536 0078 0323     		movs	r3, #3
 1537 007a 2372     		strb	r3, [r4, #8]
 182:src/hbprotocol/machine_protocol.c ****         break;
 1538              		.loc 1 182 9 is_stmt 1 view .LVU488
 1539 007c E3E7     		b	.L90
 1540              	.L98:
 185:src/hbprotocol/machine_protocol.c ****         s->curr_msg.len = byte;
 1541              		.loc 1 185 9 view .LVU489
 185:src/hbprotocol/machine_protocol.c ****         s->curr_msg.len = byte;
 1542              		.loc 1 185 25 is_stmt 0 view .LVU490
 1543 007e 6575     		strb	r5, [r4, #21]
 186:src/hbprotocol/machine_protocol.c ****         s->count = 0;
 1544              		.loc 1 186 9 is_stmt 1 view .LVU491
 186:src/hbprotocol/machine_protocol.c ****         s->count = 0;
 1545              		.loc 1 186 18 is_stmt 0 view .LVU492
 1546 0080 0023     		movs	r3, #0
 1547 0082 6374     		strb	r3, [r4, #17]
 187:src/hbprotocol/machine_protocol.c ****         s->state = PROTOCOL_STATE_WAIT_END;
 1548              		.loc 1 187 9 is_stmt 1 view .LVU493
 187:src/hbprotocol/machine_protocol.c ****         s->state = PROTOCOL_STATE_WAIT_END;
 1549              		.loc 1 187 18 is_stmt 0 view .LVU494
 1550 0084 0423     		movs	r3, #4
 1551 0086 2372     		strb	r3, [r4, #8]
 188:src/hbprotocol/machine_protocol.c ****         break;
 1552              		.loc 1 188 9 is_stmt 1 view .LVU495
 1553 0088 DDE7     		b	.L90
 1554              	.L97:
 191:src/hbprotocol/machine_protocol.c ****         s->curr_msg.bytes[s->count++] = byte;
 1555              		.loc 1 191 9 view .LVU496
 191:src/hbprotocol/machine_protocol.c ****         s->curr_msg.bytes[s->count++] = byte;
 1556              		.loc 1 191 28 is_stmt 0 view .LVU497
 1557 008a 627C     		ldrb	r2, [r4, #17]	@ zero_extendqisi2
 191:src/hbprotocol/machine_protocol.c ****         s->curr_msg.bytes[s->count++] = byte;
 1558              		.loc 1 191 35 view .LVU498
 1559 008c 531C     		adds	r3, r2, #1
 1560 008e DBB2     		uxtb	r3, r3
 1561 0090 6374     		strb	r3, [r4, #17]
 191:src/hbprotocol/machine_protocol.c ****         s->curr_msg.bytes[s->count++] = byte;
 1562              		.loc 1 191 39 view .LVU499
 1563 0092 2244     		add	r2, r2, r4
 1564 0094 9575     		strb	r5, [r2, #22]
 193:src/hbprotocol/machine_protocol.c ****         if (s->count == s->curr_msg.len){
 1565              		.loc 1 193 9 is_stmt 1 view .LVU500
 193:src/hbprotocol/machine_protocol.c ****         if (s->count == s->curr_msg.len){
 1566              		.loc 1 193 36 is_stmt 0 view .LVU501
 1567 0096 627D     		ldrb	r2, [r4, #21]	@ zero_extendqisi2
 193:src/hbprotocol/machine_protocol.c ****         if (s->count == s->curr_msg.len){
 1568              		.loc 1 193 12 view .LVU502
ARM GAS  /tmp/cc7G3T4Q.s 			page 48


 1569 0098 9342     		cmp	r3, r2
 1570 009a D4D1     		bne	.L90
 194:src/hbprotocol/machine_protocol.c ****             s->last_char_time = 0;
 1571              		.loc 1 194 13 is_stmt 1 view .LVU503
 194:src/hbprotocol/machine_protocol.c ****             s->last_char_time = 0;
 1572              		.loc 1 194 31 is_stmt 0 view .LVU504
 1573 009c 0023     		movs	r3, #0
 1574 009e E360     		str	r3, [r4, #12]
 195:src/hbprotocol/machine_protocol.c ****             s->state = PROTOCOL_STATE_IDLE;
 1575              		.loc 1 195 13 is_stmt 1 view .LVU505
 195:src/hbprotocol/machine_protocol.c ****             s->state = PROTOCOL_STATE_IDLE;
 1576              		.loc 1 195 22 is_stmt 0 view .LVU506
 1577 00a0 2372     		strb	r3, [r4, #8]
 199:src/hbprotocol/machine_protocol.c ****             if(protocol_cobsr_decode(&s->curr_msg) != 0) {
 1578              		.loc 1 199 13 is_stmt 1 view .LVU507
 199:src/hbprotocol/machine_protocol.c ****             if(protocol_cobsr_decode(&s->curr_msg) != 0) {
 1579              		.loc 1 199 16 is_stmt 0 view .LVU508
 1580 00a2 04F11205 		add	r5, r4, #18
 1581 00a6 2846     		mov	r0, r5
 1582 00a8 FFF7FEFF 		bl	protocol_cobsr_decode
 1583              	.LVL114:
 199:src/hbprotocol/machine_protocol.c ****             if(protocol_cobsr_decode(&s->curr_msg) != 0) {
 1584              		.loc 1 199 15 discriminator 1 view .LVU509
 1585 00ac 58B9     		cbnz	r0, .L128
 1586              	.L102:
 204:src/hbprotocol/machine_protocol.c ****             s->CS = s->curr_msg.SOM + s->curr_msg.cmd + s->curr_msg.CI + s->curr_msg.len;
 1587              		.loc 1 204 13 is_stmt 1 view .LVU510
 204:src/hbprotocol/machine_protocol.c ****             s->CS = s->curr_msg.SOM + s->curr_msg.cmd + s->curr_msg.CI + s->curr_msg.len;
 1588              		.loc 1 204 32 is_stmt 0 view .LVU511
 1589 00ae A37C     		ldrb	r3, [r4, #18]	@ zero_extendqisi2
 204:src/hbprotocol/machine_protocol.c ****             s->CS = s->curr_msg.SOM + s->curr_msg.cmd + s->curr_msg.CI + s->curr_msg.len;
 1590              		.loc 1 204 50 view .LVU512
 1591 00b0 E27C     		ldrb	r2, [r4, #19]	@ zero_extendqisi2
 204:src/hbprotocol/machine_protocol.c ****             s->CS = s->curr_msg.SOM + s->curr_msg.cmd + s->curr_msg.CI + s->curr_msg.len;
 1592              		.loc 1 204 37 view .LVU513
 1593 00b2 1344     		add	r3, r3, r2
 1594 00b4 DBB2     		uxtb	r3, r3
 204:src/hbprotocol/machine_protocol.c ****             s->CS = s->curr_msg.SOM + s->curr_msg.cmd + s->curr_msg.CI + s->curr_msg.len;
 1595              		.loc 1 204 68 view .LVU514
 1596 00b6 227D     		ldrb	r2, [r4, #20]	@ zero_extendqisi2
 204:src/hbprotocol/machine_protocol.c ****             s->CS = s->curr_msg.SOM + s->curr_msg.cmd + s->curr_msg.CI + s->curr_msg.len;
 1597              		.loc 1 204 55 view .LVU515
 1598 00b8 1344     		add	r3, r3, r2
 1599 00ba DBB2     		uxtb	r3, r3
 204:src/hbprotocol/machine_protocol.c ****             s->CS = s->curr_msg.SOM + s->curr_msg.cmd + s->curr_msg.CI + s->curr_msg.len;
 1600              		.loc 1 204 85 view .LVU516
 1601 00bc 607D     		ldrb	r0, [r4, #21]	@ zero_extendqisi2
 204:src/hbprotocol/machine_protocol.c ****             s->CS = s->curr_msg.SOM + s->curr_msg.cmd + s->curr_msg.CI + s->curr_msg.len;
 1602              		.loc 1 204 72 view .LVU517
 1603 00be 0344     		add	r3, r3, r0
 204:src/hbprotocol/machine_protocol.c ****             s->CS = s->curr_msg.SOM + s->curr_msg.cmd + s->curr_msg.CI + s->curr_msg.len;
 1604              		.loc 1 204 19 view .LVU518
 1605 00c0 2374     		strb	r3, [r4, #16]
 206:src/hbprotocol/machine_protocol.c ****             for (int i = 0; i < s->curr_msg.len + 2; i++) { // Include 'code' and CS in calculation
 1606              		.loc 1 206 13 is_stmt 1 view .LVU519
 1607              	.LBB9:
 206:src/hbprotocol/machine_protocol.c ****             for (int i = 0; i < s->curr_msg.len + 2; i++) { // Include 'code' and CS in calculation
ARM GAS  /tmp/cc7G3T4Q.s 			page 49


 1608              		.loc 1 206 18 view .LVU520
 1609              	.LVL115:
 206:src/hbprotocol/machine_protocol.c ****             for (int i = 0; i < s->curr_msg.len + 2; i++) { // Include 'code' and CS in calculation
 1610              		.loc 1 206 22 is_stmt 0 view .LVU521
 1611 00c2 0023     		movs	r3, #0
 206:src/hbprotocol/machine_protocol.c ****             for (int i = 0; i < s->curr_msg.len + 2; i++) { // Include 'code' and CS in calculation
 1612              		.loc 1 206 13 view .LVU522
 1613 00c4 0CE0     		b	.L103
 1614              	.LVL116:
 1615              	.L128:
 206:src/hbprotocol/machine_protocol.c ****             for (int i = 0; i < s->curr_msg.len + 2; i++) { // Include 'code' and CS in calculation
 1616              		.loc 1 206 13 view .LVU523
 1617              	.LBE9:
 200:src/hbprotocol/machine_protocol.c ****                 protocol_send_nack(s->send_serial_data, s->curr_msg.CI, s->curr_msg.SOM);
 1618              		.loc 1 200 17 is_stmt 1 view .LVU524
 1619 00c6 A27C     		ldrb	r2, [r4, #18]	@ zero_extendqisi2
 1620 00c8 217D     		ldrb	r1, [r4, #20]	@ zero_extendqisi2
 1621 00ca D4F82001 		ldr	r0, [r4, #288]
 1622 00ce FFF7FEFF 		bl	protocol_send_nack
 1623              	.LVL117:
 1624 00d2 ECE7     		b	.L102
 1625              	.LVL118:
 1626              	.L104:
 1627              	.LBB10:
 207:src/hbprotocol/machine_protocol.c ****                 s->CS += s->curr_msg.bytes[i];
 1628              		.loc 1 207 17 view .LVU525
 207:src/hbprotocol/machine_protocol.c ****                 s->CS += s->curr_msg.bytes[i];
 1629              		.loc 1 207 18 is_stmt 0 view .LVU526
 1630 00d4 227C     		ldrb	r2, [r4, #16]	@ zero_extendqisi2
 207:src/hbprotocol/machine_protocol.c ****                 s->CS += s->curr_msg.bytes[i];
 1631              		.loc 1 207 43 view .LVU527
 1632 00d6 E118     		adds	r1, r4, r3
 1633 00d8 897D     		ldrb	r1, [r1, #22]	@ zero_extendqisi2
 207:src/hbprotocol/machine_protocol.c ****                 s->CS += s->curr_msg.bytes[i];
 1634              		.loc 1 207 23 view .LVU528
 1635 00da 0A44     		add	r2, r2, r1
 1636 00dc 2274     		strb	r2, [r4, #16]
 206:src/hbprotocol/machine_protocol.c ****             for (int i = 0; i < s->curr_msg.len + 2; i++) { // Include 'code' and CS in calculation
 1637              		.loc 1 206 55 is_stmt 1 discriminator 3 view .LVU529
 1638 00de 0133     		adds	r3, r3, #1
 1639              	.LVL119:
 1640              	.L103:
 206:src/hbprotocol/machine_protocol.c ****             for (int i = 0; i < s->curr_msg.len + 2; i++) { // Include 'code' and CS in calculation
 1641              		.loc 1 206 31 discriminator 1 view .LVU530
 1642 00e0 421C     		adds	r2, r0, #1
 1643 00e2 9A42     		cmp	r2, r3
 1644 00e4 F6DA     		bge	.L104
 1645              	.LBE10:
 211:src/hbprotocol/machine_protocol.c ****             protocol_SOM_decode(&s->curr_msg);
 1646              		.loc 1 211 13 view .LVU531
 1647 00e6 2846     		mov	r0, r5
 1648 00e8 FFF7FEFF 		bl	protocol_SOM_decode
 1649              	.LVL120:
 213:src/hbprotocol/machine_protocol.c ****             switch(s->curr_msg.SOM) {
 1650              		.loc 1 213 13 view .LVU532
 213:src/hbprotocol/machine_protocol.c ****             switch(s->curr_msg.SOM) {
 1651              		.loc 1 213 31 is_stmt 0 view .LVU533
ARM GAS  /tmp/cc7G3T4Q.s 			page 50


 1652 00ec A27C     		ldrb	r2, [r4, #18]	@ zero_extendqisi2
 1653 00ee 022A     		cmp	r2, #2
 1654 00f0 05D0     		beq	.L105
 1655 00f2 042A     		cmp	r2, #4
 1656 00f4 00F08E80 		beq	.L106
 1657              	.L107:
 345:src/hbprotocol/machine_protocol.c ****             s->state = PROTOCOL_STATE_IDLE;
 1658              		.loc 1 345 13 is_stmt 1 view .LVU534
 345:src/hbprotocol/machine_protocol.c ****             s->state = PROTOCOL_STATE_IDLE;
 1659              		.loc 1 345 22 is_stmt 0 view .LVU535
 1660 00f8 0023     		movs	r3, #0
 1661 00fa 2372     		strb	r3, [r4, #8]
 1662 00fc A3E7     		b	.L90
 1663              	.L105:
 215:src/hbprotocol/machine_protocol.c ****                 switch(s->curr_msg.cmd) {
 1664              		.loc 1 215 17 is_stmt 1 view .LVU536
 215:src/hbprotocol/machine_protocol.c ****                 switch(s->curr_msg.cmd) {
 1665              		.loc 1 215 35 is_stmt 0 view .LVU537
 1666 00fe E37C     		ldrb	r3, [r4, #19]	@ zero_extendqisi2
 1667 0100 412B     		cmp	r3, #65
 1668 0102 21D0     		beq	.L108
 1669 0104 4E2B     		cmp	r3, #78
 1670 0106 44D0     		beq	.L109
 265:src/hbprotocol/machine_protocol.c ****                     if (s->CS != 0){
 1671              		.loc 1 265 21 is_stmt 1 view .LVU538
 265:src/hbprotocol/machine_protocol.c ****                     if (s->CS != 0){
 1672              		.loc 1 265 26 is_stmt 0 view .LVU539
 1673 0108 237C     		ldrb	r3, [r4, #16]	@ zero_extendqisi2
 265:src/hbprotocol/machine_protocol.c ****                     if (s->CS != 0){
 1674              		.loc 1 265 24 view .LVU540
 1675 010a 002B     		cmp	r3, #0
 1676 010c 77D1     		bne	.L129
 271:src/hbprotocol/machine_protocol.c ****                     if (s->ack.lastRXCI == s->curr_msg.CI) {
 1677              		.loc 1 271 21 is_stmt 1 view .LVU541
 271:src/hbprotocol/machine_protocol.c ****                     if (s->ack.lastRXCI == s->curr_msg.CI) {
 1678              		.loc 1 271 31 is_stmt 0 view .LVU542
 1679 010e 94F8B832 		ldrb	r3, [r4, #696]	@ zero_extendqisi2
 271:src/hbprotocol/machine_protocol.c ****                     if (s->ack.lastRXCI == s->curr_msg.CI) {
 1680              		.loc 1 271 55 view .LVU543
 1681 0112 217D     		ldrb	r1, [r4, #20]	@ zero_extendqisi2
 271:src/hbprotocol/machine_protocol.c ****                     if (s->ack.lastRXCI == s->curr_msg.CI) {
 1682              		.loc 1 271 24 view .LVU544
 1683 0114 8B42     		cmp	r3, r1
 1684 0116 78D0     		beq	.L130
 277:src/hbprotocol/machine_protocol.c ****                     if( s->curr_msg.CI < s->ack.lastRXCI) {
 1685              		.loc 1 277 21 is_stmt 1 view .LVU545
 279:src/hbprotocol/machine_protocol.c ****                         s->ack.lastRXCI = s->ack.lastRXCI - 256; // Max value of char is 255
 1686              		.loc 1 279 25 view .LVU546
 283:src/hbprotocol/machine_protocol.c ****                     s->ack.counters.rxMissing += s->curr_msg.CI - (s->ack.lastRXCI + 1);
 1687              		.loc 1 283 21 view .LVU547
 283:src/hbprotocol/machine_protocol.c ****                     s->ack.counters.rxMissing += s->curr_msg.CI - (s->ack.lastRXCI + 1);
 1688              		.loc 1 283 36 is_stmt 0 view .LVU548
 1689 0118 D4F8C422 		ldr	r2, [r4, #708]
 283:src/hbprotocol/machine_protocol.c ****                     s->ack.counters.rxMissing += s->curr_msg.CI - (s->ack.lastRXCI + 1);
 1690              		.loc 1 283 84 view .LVU549
 1691 011c 0133     		adds	r3, r3, #1
 283:src/hbprotocol/machine_protocol.c ****                     s->ack.counters.rxMissing += s->curr_msg.CI - (s->ack.lastRXCI + 1);
ARM GAS  /tmp/cc7G3T4Q.s 			page 51


 1692              		.loc 1 283 65 view .LVU550
 1693 011e CB1A     		subs	r3, r1, r3
 283:src/hbprotocol/machine_protocol.c ****                     s->ack.counters.rxMissing += s->curr_msg.CI - (s->ack.lastRXCI + 1);
 1694              		.loc 1 283 47 view .LVU551
 1695 0120 1A44     		add	r2, r2, r3
 1696 0122 C4F8C422 		str	r2, [r4, #708]
 286:src/hbprotocol/machine_protocol.c ****                     protocol_send_ack(s->send_serial_data, s->curr_msg.CI);
 1697              		.loc 1 286 21 is_stmt 1 view .LVU552
 1698 0126 D4F82001 		ldr	r0, [r4, #288]
 1699 012a FFF7FEFF 		bl	protocol_send_ack
 1700              	.LVL121:
 287:src/hbprotocol/machine_protocol.c ****                     s->ack.lastRXCI = s->curr_msg.CI;
 1701              		.loc 1 287 21 view .LVU553
 287:src/hbprotocol/machine_protocol.c ****                     s->ack.lastRXCI = s->curr_msg.CI;
 1702              		.loc 1 287 50 is_stmt 0 view .LVU554
 1703 012e 237D     		ldrb	r3, [r4, #20]	@ zero_extendqisi2
 287:src/hbprotocol/machine_protocol.c ****                     s->ack.lastRXCI = s->curr_msg.CI;
 1704              		.loc 1 287 37 view .LVU555
 1705 0130 84F8B832 		strb	r3, [r4, #696]
 288:src/hbprotocol/machine_protocol.c ****                     s->ack.counters.rx++;
 1706              		.loc 1 288 21 is_stmt 1 view .LVU556
 288:src/hbprotocol/machine_protocol.c ****                     s->ack.counters.rx++;
 1707              		.loc 1 288 36 is_stmt 0 view .LVU557
 1708 0134 D4F8C032 		ldr	r3, [r4, #704]
 288:src/hbprotocol/machine_protocol.c ****                     s->ack.counters.rx++;
 1709              		.loc 1 288 39 view .LVU558
 1710 0138 0133     		adds	r3, r3, #1
 1711 013a C4F8C032 		str	r3, [r4, #704]
 289:src/hbprotocol/machine_protocol.c ****                     protocol_process_message(s, (PROTOCOL_MSG3full *)&(s->curr_msg));
 1712              		.loc 1 289 21 is_stmt 1 view .LVU559
 1713 013e 2946     		mov	r1, r5
 1714 0140 2046     		mov	r0, r4
 1715 0142 FFF7FEFF 		bl	protocol_process_message
 1716              	.LVL122:
 290:src/hbprotocol/machine_protocol.c ****                     break;
 1717              		.loc 1 290 21 view .LVU560
 1718 0146 D7E7     		b	.L107
 1719              	.L108:
 217:src/hbprotocol/machine_protocol.c ****                     if (s->send_state == PROTOCOL_ACK_TX_WAITING){
 1720              		.loc 1 217 21 view .LVU561
 217:src/hbprotocol/machine_protocol.c ****                     if (s->send_state == PROTOCOL_ACK_TX_WAITING){
 1721              		.loc 1 217 26 is_stmt 0 view .LVU562
 1722 0148 94F81531 		ldrb	r3, [r4, #277]	@ zero_extendqisi2
 217:src/hbprotocol/machine_protocol.c ****                     if (s->send_state == PROTOCOL_ACK_TX_WAITING){
 1723              		.loc 1 217 24 view .LVU563
 1724 014c 012B     		cmp	r3, #1
 1725 014e 05D0     		beq	.L131
 235:src/hbprotocol/machine_protocol.c ****                         s->ack.counters.unwantedacks++;
 1726              		.loc 1 235 25 is_stmt 1 view .LVU564
 235:src/hbprotocol/machine_protocol.c ****                         s->ack.counters.unwantedacks++;
 1727              		.loc 1 235 40 is_stmt 0 view .LVU565
 1728 0150 D4F8D432 		ldr	r3, [r4, #724]
 235:src/hbprotocol/machine_protocol.c ****                         s->ack.counters.unwantedacks++;
 1729              		.loc 1 235 53 view .LVU566
 1730 0154 0133     		adds	r3, r3, #1
 1731 0156 C4F8D432 		str	r3, [r4, #724]
 1732 015a CDE7     		b	.L107
ARM GAS  /tmp/cc7G3T4Q.s 			page 52


 1733              	.L131:
 218:src/hbprotocol/machine_protocol.c ****                         if (s->curr_msg.CI == s->ack.curr_send_msg.CI){
 1734              		.loc 1 218 25 is_stmt 1 view .LVU567
 218:src/hbprotocol/machine_protocol.c ****                         if (s->curr_msg.CI == s->ack.curr_send_msg.CI){
 1735              		.loc 1 218 40 is_stmt 0 view .LVU568
 1736 015c 227D     		ldrb	r2, [r4, #20]	@ zero_extendqisi2
 218:src/hbprotocol/machine_protocol.c ****                         if (s->curr_msg.CI == s->ack.curr_send_msg.CI){
 1737              		.loc 1 218 67 view .LVU569
 1738 015e 94F8B631 		ldrb	r3, [r4, #438]	@ zero_extendqisi2
 218:src/hbprotocol/machine_protocol.c ****                         if (s->curr_msg.CI == s->ack.curr_send_msg.CI){
 1739              		.loc 1 218 28 view .LVU570
 1740 0162 9A42     		cmp	r2, r3
 1741 0164 05D0     		beq	.L132
 229:src/hbprotocol/machine_protocol.c ****                             s->ack.counters.unwantedacks++;
 1742              		.loc 1 229 29 is_stmt 1 view .LVU571
 229:src/hbprotocol/machine_protocol.c ****                             s->ack.counters.unwantedacks++;
 1743              		.loc 1 229 44 is_stmt 0 view .LVU572
 1744 0166 D4F8D432 		ldr	r3, [r4, #724]
 229:src/hbprotocol/machine_protocol.c ****                             s->ack.counters.unwantedacks++;
 1745              		.loc 1 229 57 view .LVU573
 1746 016a 0133     		adds	r3, r3, #1
 1747 016c C4F8D432 		str	r3, [r4, #724]
 1748 0170 C2E7     		b	.L107
 1749              	.L132:
 1750              	.LBB11:
 219:src/hbprotocol/machine_protocol.c ****                             s->ack.last_send_time = 0;
 1751              		.loc 1 219 29 is_stmt 1 view .LVU574
 219:src/hbprotocol/machine_protocol.c ****                             s->ack.last_send_time = 0;
 1752              		.loc 1 219 51 is_stmt 0 view .LVU575
 1753 0172 0023     		movs	r3, #0
 1754 0174 C4F8BC32 		str	r3, [r4, #700]
 220:src/hbprotocol/machine_protocol.c ****                             s->send_state = PROTOCOL_ACK_TX_IDLE;
 1755              		.loc 1 220 29 is_stmt 1 view .LVU576
 220:src/hbprotocol/machine_protocol.c ****                             s->send_state = PROTOCOL_ACK_TX_IDLE;
 1756              		.loc 1 220 43 is_stmt 0 view .LVU577
 1757 0178 84F81531 		strb	r3, [r4, #277]
 222:src/hbprotocol/machine_protocol.c ****                             int txcount = mpTxQueued(&s->ack.TxBuffer);
 1758              		.loc 1 222 29 is_stmt 1 view .LVU578
 222:src/hbprotocol/machine_protocol.c ****                             int txcount = mpTxQueued(&s->ack.TxBuffer);
 1759              		.loc 1 222 43 is_stmt 0 view .LVU579
 1760 017c 04F53970 		add	r0, r4, #740
 1761 0180 FFF7FEFF 		bl	mpTxQueued
 1762              	.LVL123:
 223:src/hbprotocol/machine_protocol.c ****                             if (txcount){
 1763              		.loc 1 223 29 is_stmt 1 view .LVU580
 223:src/hbprotocol/machine_protocol.c ****                             if (txcount){
 1764              		.loc 1 223 32 is_stmt 0 view .LVU581
 1765 0184 0028     		cmp	r0, #0
 1766 0186 B7D0     		beq	.L107
 225:src/hbprotocol/machine_protocol.c ****                                 protocol_send(s, NULL);
 1767              		.loc 1 225 33 is_stmt 1 view .LVU582
 1768 0188 0021     		movs	r1, #0
 1769 018a 2046     		mov	r0, r4
 1770              	.LVL124:
 225:src/hbprotocol/machine_protocol.c ****                                 protocol_send(s, NULL);
 1771              		.loc 1 225 33 is_stmt 0 view .LVU583
 1772 018c FFF7FEFF 		bl	protocol_send
ARM GAS  /tmp/cc7G3T4Q.s 			page 53


 1773              	.LVL125:
 1774 0190 B2E7     		b	.L107
 1775              	.LVL126:
 1776              	.L109:
 225:src/hbprotocol/machine_protocol.c ****                                 protocol_send(s, NULL);
 1777              		.loc 1 225 33 view .LVU584
 1778              	.LBE11:
 241:src/hbprotocol/machine_protocol.c ****                     if (s->send_state == PROTOCOL_ACK_TX_WAITING){
 1779              		.loc 1 241 21 is_stmt 1 view .LVU585
 241:src/hbprotocol/machine_protocol.c ****                     if (s->send_state == PROTOCOL_ACK_TX_WAITING){
 1780              		.loc 1 241 26 is_stmt 0 view .LVU586
 1781 0192 94F81531 		ldrb	r3, [r4, #277]	@ zero_extendqisi2
 241:src/hbprotocol/machine_protocol.c ****                     if (s->send_state == PROTOCOL_ACK_TX_WAITING){
 1782              		.loc 1 241 24 view .LVU587
 1783 0196 012B     		cmp	r3, #1
 1784 0198 05D0     		beq	.L133
 260:src/hbprotocol/machine_protocol.c ****                         s->ack.counters.unwantednacks++;
 1785              		.loc 1 260 25 is_stmt 1 view .LVU588
 260:src/hbprotocol/machine_protocol.c ****                         s->ack.counters.unwantednacks++;
 1786              		.loc 1 260 40 is_stmt 0 view .LVU589
 1787 019a D4F8D832 		ldr	r3, [r4, #728]
 260:src/hbprotocol/machine_protocol.c ****                         s->ack.counters.unwantednacks++;
 1788              		.loc 1 260 54 view .LVU590
 1789 019e 0133     		adds	r3, r3, #1
 1790 01a0 C4F8D832 		str	r3, [r4, #728]
 1791 01a4 A8E7     		b	.L107
 1792              	.L133:
 243:src/hbprotocol/machine_protocol.c ****                         if (s->ack.retries > 0){
 1793              		.loc 1 243 25 is_stmt 1 view .LVU591
 243:src/hbprotocol/machine_protocol.c ****                         if (s->ack.retries > 0){
 1794              		.loc 1 243 35 is_stmt 0 view .LVU592
 1795 01a6 94F8B632 		ldrb	r3, [r4, #694]	@ zero_extendqisi2
 243:src/hbprotocol/machine_protocol.c ****                         if (s->ack.retries > 0){
 1796              		.loc 1 243 28 view .LVU593
 1797 01aa ABB1     		cbz	r3, .L114
 244:src/hbprotocol/machine_protocol.c ****                             s->ack.counters.txRetries++;
 1798              		.loc 1 244 29 is_stmt 1 view .LVU594
 244:src/hbprotocol/machine_protocol.c ****                             s->ack.counters.txRetries++;
 1799              		.loc 1 244 44 is_stmt 0 view .LVU595
 1800 01ac D4F8CC32 		ldr	r3, [r4, #716]
 244:src/hbprotocol/machine_protocol.c ****                             s->ack.counters.txRetries++;
 1801              		.loc 1 244 54 view .LVU596
 1802 01b0 0133     		adds	r3, r3, #1
 1803 01b2 C4F8CC32 		str	r3, [r4, #716]
 245:src/hbprotocol/machine_protocol.c ****                             protocol_send_raw(s->send_serial_data, &s->ack.curr_send_msg);
 1804              		.loc 1 245 29 is_stmt 1 view .LVU597
 1805 01b6 04F5DA71 		add	r1, r4, #436
 1806 01ba D4F82001 		ldr	r0, [r4, #288]
 1807 01be FFF7FEFF 		bl	protocol_send_raw
 1808              	.LVL127:
 246:src/hbprotocol/machine_protocol.c ****                             s->ack.last_send_time = protocol_GetTick();
 1809              		.loc 1 246 29 view .LVU598
 246:src/hbprotocol/machine_protocol.c ****                             s->ack.last_send_time = protocol_GetTick();
 1810              		.loc 1 246 53 is_stmt 0 view .LVU599
 1811 01c2 3D4B     		ldr	r3, .L135
 1812 01c4 1B68     		ldr	r3, [r3]
 1813 01c6 9847     		blx	r3
ARM GAS  /tmp/cc7G3T4Q.s 			page 54


 1814              	.LVL128:
 246:src/hbprotocol/machine_protocol.c ****                             s->ack.last_send_time = protocol_GetTick();
 1815              		.loc 1 246 51 discriminator 1 view .LVU600
 1816 01c8 C4F8BC02 		str	r0, [r4, #700]
 247:src/hbprotocol/machine_protocol.c ****                             s->ack.retries--;
 1817              		.loc 1 247 29 is_stmt 1 view .LVU601
 247:src/hbprotocol/machine_protocol.c ****                             s->ack.retries--;
 1818              		.loc 1 247 35 is_stmt 0 view .LVU602
 1819 01cc 94F8B632 		ldrb	r3, [r4, #694]	@ zero_extendqisi2
 247:src/hbprotocol/machine_protocol.c ****                             s->ack.retries--;
 1820              		.loc 1 247 43 view .LVU603
 1821 01d0 013B     		subs	r3, r3, #1
 1822 01d2 84F8B632 		strb	r3, [r4, #694]
 1823 01d6 8FE7     		b	.L107
 1824              	.L114:
 1825              	.LBB12:
 249:src/hbprotocol/machine_protocol.c ****                             s->send_state = PROTOCOL_ACK_TX_IDLE;
 1826              		.loc 1 249 29 is_stmt 1 view .LVU604
 249:src/hbprotocol/machine_protocol.c ****                             s->send_state = PROTOCOL_ACK_TX_IDLE;
 1827              		.loc 1 249 43 is_stmt 0 view .LVU605
 1828 01d8 0023     		movs	r3, #0
 1829 01da 84F81531 		strb	r3, [r4, #277]
 250:src/hbprotocol/machine_protocol.c ****                             s->ack.counters.txFailed++;
 1830              		.loc 1 250 29 is_stmt 1 view .LVU606
 250:src/hbprotocol/machine_protocol.c ****                             s->ack.counters.txFailed++;
 1831              		.loc 1 250 44 is_stmt 0 view .LVU607
 1832 01de D4F8D032 		ldr	r3, [r4, #720]
 250:src/hbprotocol/machine_protocol.c ****                             s->ack.counters.txFailed++;
 1833              		.loc 1 250 53 view .LVU608
 1834 01e2 0133     		adds	r3, r3, #1
 1835 01e4 C4F8D032 		str	r3, [r4, #720]
 252:src/hbprotocol/machine_protocol.c ****                             int txcount = mpTxQueued(&s->ack.TxBuffer);
 1836              		.loc 1 252 29 is_stmt 1 view .LVU609
 252:src/hbprotocol/machine_protocol.c ****                             int txcount = mpTxQueued(&s->ack.TxBuffer);
 1837              		.loc 1 252 43 is_stmt 0 view .LVU610
 1838 01e8 04F53970 		add	r0, r4, #740
 1839 01ec FFF7FEFF 		bl	mpTxQueued
 1840              	.LVL129:
 253:src/hbprotocol/machine_protocol.c ****                             if (txcount){
 1841              		.loc 1 253 29 is_stmt 1 view .LVU611
 253:src/hbprotocol/machine_protocol.c ****                             if (txcount){
 1842              		.loc 1 253 32 is_stmt 0 view .LVU612
 1843 01f0 0028     		cmp	r0, #0
 1844 01f2 81D0     		beq	.L107
 255:src/hbprotocol/machine_protocol.c ****                                 protocol_send(s, NULL);
 1845              		.loc 1 255 33 is_stmt 1 view .LVU613
 1846 01f4 0021     		movs	r1, #0
 1847 01f6 2046     		mov	r0, r4
 1848              	.LVL130:
 255:src/hbprotocol/machine_protocol.c ****                                 protocol_send(s, NULL);
 1849              		.loc 1 255 33 is_stmt 0 view .LVU614
 1850 01f8 FFF7FEFF 		bl	protocol_send
 1851              	.LVL131:
 1852 01fc 7CE7     		b	.L107
 1853              	.LVL132:
 1854              	.L129:
 255:src/hbprotocol/machine_protocol.c ****                                 protocol_send(s, NULL);
ARM GAS  /tmp/cc7G3T4Q.s 			page 55


 1855              		.loc 1 255 33 view .LVU615
 1856              	.LBE12:
 267:src/hbprotocol/machine_protocol.c ****                         protocol_send_nack(s->send_serial_data, s->curr_msg.CI, s->curr_msg.SOM);
 1857              		.loc 1 267 25 is_stmt 1 view .LVU616
 1858 01fe 217D     		ldrb	r1, [r4, #20]	@ zero_extendqisi2
 1859 0200 D4F82001 		ldr	r0, [r4, #288]
 1860 0204 FFF7FEFF 		bl	protocol_send_nack
 1861              	.LVL133:
 268:src/hbprotocol/machine_protocol.c ****                         break;
 1862              		.loc 1 268 25 view .LVU617
 1863 0208 76E7     		b	.L107
 1864              	.L130:
 273:src/hbprotocol/machine_protocol.c ****                         protocol_send_ack(s->send_serial_data, s->curr_msg.CI);
 1865              		.loc 1 273 25 view .LVU618
 1866 020a D4F82001 		ldr	r0, [r4, #288]
 1867 020e FFF7FEFF 		bl	protocol_send_ack
 1868              	.LVL134:
 274:src/hbprotocol/machine_protocol.c ****                         break;
 1869              		.loc 1 274 25 view .LVU619
 1870 0212 71E7     		b	.L107
 1871              	.L106:
 295:src/hbprotocol/machine_protocol.c ****                 switch(s->curr_msg.cmd) {
 1872              		.loc 1 295 17 view .LVU620
 295:src/hbprotocol/machine_protocol.c ****                 switch(s->curr_msg.cmd) {
 1873              		.loc 1 295 35 is_stmt 0 view .LVU621
 1874 0214 E37C     		ldrb	r3, [r4, #19]	@ zero_extendqisi2
 1875 0216 412B     		cmp	r3, #65
 1876 0218 1DD0     		beq	.L117
 1877 021a 4E2B     		cmp	r3, #78
 1878 021c 21D0     		beq	.L118
 318:src/hbprotocol/machine_protocol.c ****                     if (s->CS != 0){
 1879              		.loc 1 318 21 is_stmt 1 view .LVU622
 318:src/hbprotocol/machine_protocol.c ****                     if (s->CS != 0){
 1880              		.loc 1 318 26 is_stmt 0 view .LVU623
 1881 021e 237C     		ldrb	r3, [r4, #16]	@ zero_extendqisi2
 318:src/hbprotocol/machine_protocol.c ****                     if (s->CS != 0){
 1882              		.loc 1 318 24 view .LVU624
 1883 0220 002B     		cmp	r3, #0
 1884 0222 43D1     		bne	.L134
 324:src/hbprotocol/machine_protocol.c ****                     if (s->noack.lastRXCI == s->curr_msg.CI) {
 1885              		.loc 1 324 21 is_stmt 1 view .LVU625
 324:src/hbprotocol/machine_protocol.c ****                     if (s->noack.lastRXCI == s->curr_msg.CI) {
 1886              		.loc 1 324 33 is_stmt 0 view .LVU626
 1887 0224 94F8F437 		ldrb	r3, [r4, #2036]	@ zero_extendqisi2
 324:src/hbprotocol/machine_protocol.c ****                     if (s->noack.lastRXCI == s->curr_msg.CI) {
 1888              		.loc 1 324 57 view .LVU627
 1889 0228 227D     		ldrb	r2, [r4, #20]	@ zero_extendqisi2
 324:src/hbprotocol/machine_protocol.c ****                     if (s->noack.lastRXCI == s->curr_msg.CI) {
 1890              		.loc 1 324 24 view .LVU628
 1891 022a 9342     		cmp	r3, r2
 1892 022c 3FF464AF 		beq	.L107
 329:src/hbprotocol/machine_protocol.c ****                     if( s->curr_msg.CI < s->noack.lastRXCI) {
 1893              		.loc 1 329 21 is_stmt 1 view .LVU629
 331:src/hbprotocol/machine_protocol.c ****                         s->noack.lastRXCI = s->noack.lastRXCI - 256; // Max value of char is 255
 1894              		.loc 1 331 25 view .LVU630
 335:src/hbprotocol/machine_protocol.c ****                     s->noack.counters.rxMissing += s->curr_msg.CI - (s->noack.lastRXCI + 1);
 1895              		.loc 1 335 21 view .LVU631
ARM GAS  /tmp/cc7G3T4Q.s 			page 56


 335:src/hbprotocol/machine_protocol.c ****                     s->noack.counters.rxMissing += s->curr_msg.CI - (s->noack.lastRXCI + 1);
 1896              		.loc 1 335 38 is_stmt 0 view .LVU632
 1897 0230 D4F80018 		ldr	r1, [r4, #2048]
 335:src/hbprotocol/machine_protocol.c ****                     s->noack.counters.rxMissing += s->curr_msg.CI - (s->noack.lastRXCI + 1);
 1898              		.loc 1 335 88 view .LVU633
 1899 0234 0133     		adds	r3, r3, #1
 335:src/hbprotocol/machine_protocol.c ****                     s->noack.counters.rxMissing += s->curr_msg.CI - (s->noack.lastRXCI + 1);
 1900              		.loc 1 335 67 view .LVU634
 1901 0236 D31A     		subs	r3, r2, r3
 335:src/hbprotocol/machine_protocol.c ****                     s->noack.counters.rxMissing += s->curr_msg.CI - (s->noack.lastRXCI + 1);
 1902              		.loc 1 335 49 view .LVU635
 1903 0238 1944     		add	r1, r1, r3
 1904 023a C4F80018 		str	r1, [r4, #2048]
 338:src/hbprotocol/machine_protocol.c ****                     s->noack.lastRXCI = s->curr_msg.CI;
 1905              		.loc 1 338 21 is_stmt 1 view .LVU636
 338:src/hbprotocol/machine_protocol.c ****                     s->noack.lastRXCI = s->curr_msg.CI;
 1906              		.loc 1 338 39 is_stmt 0 view .LVU637
 1907 023e 84F8F427 		strb	r2, [r4, #2036]
 339:src/hbprotocol/machine_protocol.c ****                     s->noack.counters.rx++;
 1908              		.loc 1 339 21 is_stmt 1 view .LVU638
 339:src/hbprotocol/machine_protocol.c ****                     s->noack.counters.rx++;
 1909              		.loc 1 339 38 is_stmt 0 view .LVU639
 1910 0242 D4F8FC37 		ldr	r3, [r4, #2044]
 339:src/hbprotocol/machine_protocol.c ****                     s->noack.counters.rx++;
 1911              		.loc 1 339 41 view .LVU640
 1912 0246 0133     		adds	r3, r3, #1
 1913 0248 C4F8FC37 		str	r3, [r4, #2044]
 340:src/hbprotocol/machine_protocol.c ****                     protocol_process_message(s, (PROTOCOL_MSG3full *)&(s->curr_msg));
 1914              		.loc 1 340 21 is_stmt 1 view .LVU641
 1915 024c 2946     		mov	r1, r5
 1916 024e 2046     		mov	r0, r4
 1917 0250 FFF7FEFF 		bl	protocol_process_message
 1918              	.LVL135:
 341:src/hbprotocol/machine_protocol.c ****                     break;
 1919              		.loc 1 341 21 view .LVU642
 1920 0254 50E7     		b	.L107
 1921              	.L117:
 298:src/hbprotocol/machine_protocol.c ****                     s->noack.counters.unwantedacks++;
 1922              		.loc 1 298 21 view .LVU643
 298:src/hbprotocol/machine_protocol.c ****                     s->noack.counters.unwantedacks++;
 1923              		.loc 1 298 38 is_stmt 0 view .LVU644
 1924 0256 D4F81038 		ldr	r3, [r4, #2064]
 298:src/hbprotocol/machine_protocol.c ****                     s->noack.counters.unwantedacks++;
 1925              		.loc 1 298 51 view .LVU645
 1926 025a 0133     		adds	r3, r3, #1
 1927 025c C4F81038 		str	r3, [r4, #2064]
 299:src/hbprotocol/machine_protocol.c ****                     break;
 1928              		.loc 1 299 21 is_stmt 1 view .LVU646
 1929 0260 4AE7     		b	.L107
 1930              	.L118:
 303:src/hbprotocol/machine_protocol.c ****                     if (s->noack.retries > 0){
 1931              		.loc 1 303 21 view .LVU647
 303:src/hbprotocol/machine_protocol.c ****                     if (s->noack.retries > 0){
 1932              		.loc 1 303 33 is_stmt 0 view .LVU648
 1933 0262 94F8F237 		ldrb	r3, [r4, #2034]	@ zero_extendqisi2
 303:src/hbprotocol/machine_protocol.c ****                     if (s->noack.retries > 0){
 1934              		.loc 1 303 24 view .LVU649
ARM GAS  /tmp/cc7G3T4Q.s 			page 57


 1935 0266 83B1     		cbz	r3, .L120
 304:src/hbprotocol/machine_protocol.c ****                         s->noack.counters.txRetries++;
 1936              		.loc 1 304 25 is_stmt 1 view .LVU650
 304:src/hbprotocol/machine_protocol.c ****                         s->noack.counters.txRetries++;
 1937              		.loc 1 304 42 is_stmt 0 view .LVU651
 1938 0268 D4F80838 		ldr	r3, [r4, #2056]
 304:src/hbprotocol/machine_protocol.c ****                         s->noack.counters.txRetries++;
 1939              		.loc 1 304 52 view .LVU652
 1940 026c 0133     		adds	r3, r3, #1
 1941 026e C4F80838 		str	r3, [r4, #2056]
 305:src/hbprotocol/machine_protocol.c ****                         protocol_send_raw(s->send_serial_data, &s->noack.curr_send_msg);
 1942              		.loc 1 305 25 is_stmt 1 view .LVU653
 1943 0272 04F5DE61 		add	r1, r4, #1776
 1944 0276 D4F82001 		ldr	r0, [r4, #288]
 1945 027a FFF7FEFF 		bl	protocol_send_raw
 1946              	.LVL136:
 306:src/hbprotocol/machine_protocol.c ****                         s->noack.retries--;
 1947              		.loc 1 306 25 view .LVU654
 306:src/hbprotocol/machine_protocol.c ****                         s->noack.retries--;
 1948              		.loc 1 306 33 is_stmt 0 view .LVU655
 1949 027e 94F8F237 		ldrb	r3, [r4, #2034]	@ zero_extendqisi2
 306:src/hbprotocol/machine_protocol.c ****                         s->noack.retries--;
 1950              		.loc 1 306 41 view .LVU656
 1951 0282 013B     		subs	r3, r3, #1
 1952 0284 84F8F237 		strb	r3, [r4, #2034]
 1953 0288 36E7     		b	.L107
 1954              	.L120:
 1955              	.LBB13:
 308:src/hbprotocol/machine_protocol.c ****                         s->noack.counters.txFailed++;
 1956              		.loc 1 308 25 is_stmt 1 view .LVU657
 308:src/hbprotocol/machine_protocol.c ****                         s->noack.counters.txFailed++;
 1957              		.loc 1 308 42 is_stmt 0 view .LVU658
 1958 028a D4F80C38 		ldr	r3, [r4, #2060]
 308:src/hbprotocol/machine_protocol.c ****                         s->noack.counters.txFailed++;
 1959              		.loc 1 308 51 view .LVU659
 1960 028e 0133     		adds	r3, r3, #1
 1961 0290 C4F80C38 		str	r3, [r4, #2060]
 310:src/hbprotocol/machine_protocol.c ****                         int txcount = mpTxQueued(&s->noack.TxBuffer);
 1962              		.loc 1 310 25 is_stmt 1 view .LVU660
 310:src/hbprotocol/machine_protocol.c ****                         int txcount = mpTxQueued(&s->noack.TxBuffer);
 1963              		.loc 1 310 39 is_stmt 0 view .LVU661
 1964 0294 04F50260 		add	r0, r4, #2080
 1965 0298 FFF7FEFF 		bl	mpTxQueued
 1966              	.LVL137:
 311:src/hbprotocol/machine_protocol.c ****                         if (txcount){
 1967              		.loc 1 311 25 is_stmt 1 view .LVU662
 311:src/hbprotocol/machine_protocol.c ****                         if (txcount){
 1968              		.loc 1 311 28 is_stmt 0 view .LVU663
 1969 029c 0028     		cmp	r0, #0
 1970 029e 3FF42BAF 		beq	.L107
 313:src/hbprotocol/machine_protocol.c ****                             protocol_send(s, NULL);
 1971              		.loc 1 313 29 is_stmt 1 view .LVU664
 1972 02a2 0021     		movs	r1, #0
 1973 02a4 2046     		mov	r0, r4
 1974              	.LVL138:
 313:src/hbprotocol/machine_protocol.c ****                             protocol_send(s, NULL);
 1975              		.loc 1 313 29 is_stmt 0 view .LVU665
ARM GAS  /tmp/cc7G3T4Q.s 			page 58


 1976 02a6 FFF7FEFF 		bl	protocol_send
 1977              	.LVL139:
 1978 02aa 25E7     		b	.L107
 1979              	.LVL140:
 1980              	.L134:
 313:src/hbprotocol/machine_protocol.c ****                             protocol_send(s, NULL);
 1981              		.loc 1 313 29 view .LVU666
 1982              	.LBE13:
 320:src/hbprotocol/machine_protocol.c ****                         protocol_send_nack(s->send_serial_data, s->curr_msg.CI, s->curr_msg.SOM);
 1983              		.loc 1 320 25 is_stmt 1 view .LVU667
 1984 02ac 217D     		ldrb	r1, [r4, #20]	@ zero_extendqisi2
 1985 02ae D4F82001 		ldr	r0, [r4, #288]
 1986 02b2 FFF7FEFF 		bl	protocol_send_nack
 1987              	.LVL141:
 321:src/hbprotocol/machine_protocol.c ****                         break;
 1988              		.loc 1 321 25 view .LVU668
 1989 02b6 1FE7     		b	.L107
 1990              	.L136:
 1991              		.align	2
 1992              	.L135:
 1993 02b8 00000000 		.word	protocol_GetTick
 1994              		.cfi_endproc
 1995              	.LFE4:
 1997              		.section	.text.protocol_post,"ax",%progbits
 1998              		.align	1
 1999              		.global	protocol_post
 2000              		.syntax unified
 2001              		.thumb
 2002              		.thumb_func
 2004              	protocol_post:
 2005              	.LVL142:
 2006              	.LFB7:
 383:src/hbprotocol/machine_protocol.c **** int protocol_post(PROTOCOL_STAT *s, PROTOCOL_MSG3full *msg){
 2007              		.loc 1 383 60 view -0
 2008              		.cfi_startproc
 2009              		@ args = 0, pretend = 0, frame = 0
 2010              		@ frame_needed = 0, uses_anonymous_args = 0
 383:src/hbprotocol/machine_protocol.c **** int protocol_post(PROTOCOL_STAT *s, PROTOCOL_MSG3full *msg){
 2011              		.loc 1 383 60 is_stmt 0 view .LVU670
 2012 0000 F8B5     		push	{r3, r4, r5, r6, r7, lr}
 2013              	.LCFI21:
 2014              		.cfi_def_cfa_offset 24
 2015              		.cfi_offset 3, -24
 2016              		.cfi_offset 4, -20
 2017              		.cfi_offset 5, -16
 2018              		.cfi_offset 6, -12
 2019              		.cfi_offset 7, -8
 2020              		.cfi_offset 14, -4
 2021 0002 0546     		mov	r5, r0
 2022 0004 0C46     		mov	r4, r1
 385:src/hbprotocol/machine_protocol.c ****     if(msg->SOM == PROTOCOL_SOM_ACK) {
 2023              		.loc 1 385 5 is_stmt 1 view .LVU671
 385:src/hbprotocol/machine_protocol.c ****     if(msg->SOM == PROTOCOL_SOM_ACK) {
 2024              		.loc 1 385 11 is_stmt 0 view .LVU672
 2025 0006 0B78     		ldrb	r3, [r1]	@ zero_extendqisi2
 385:src/hbprotocol/machine_protocol.c ****     if(msg->SOM == PROTOCOL_SOM_ACK) {
 2026              		.loc 1 385 7 view .LVU673
ARM GAS  /tmp/cc7G3T4Q.s 			page 59


 2027 0008 022B     		cmp	r3, #2
 2028 000a 04D0     		beq	.L146
 407:src/hbprotocol/machine_protocol.c ****     } else if(msg->SOM == PROTOCOL_SOM_NOACK) { // Do not buffer NOACK Messages.
 2029              		.loc 1 407 12 is_stmt 1 view .LVU674
 407:src/hbprotocol/machine_protocol.c ****     } else if(msg->SOM == PROTOCOL_SOM_NOACK) { // Do not buffer NOACK Messages.
 2030              		.loc 1 407 14 is_stmt 0 view .LVU675
 2031 000c 042B     		cmp	r3, #4
 2032 000e 2DD1     		bne	.L144
 408:src/hbprotocol/machine_protocol.c ****         return protocol_send(s, msg);
 2033              		.loc 1 408 9 is_stmt 1 view .LVU676
 408:src/hbprotocol/machine_protocol.c ****         return protocol_send(s, msg);
 2034              		.loc 1 408 16 is_stmt 0 view .LVU677
 2035 0010 FFF7FEFF 		bl	protocol_send
 2036              	.LVL143:
 2037              	.L137:
 411:src/hbprotocol/machine_protocol.c **** }
 2038              		.loc 1 411 1 view .LVU678
 2039 0014 F8BD     		pop	{r3, r4, r5, r6, r7, pc}
 2040              	.LVL144:
 2041              	.L146:
 2042              	.LBB14:
 386:src/hbprotocol/machine_protocol.c ****         int txcount = mpTxQueued(&s->ack.TxBuffer);
 2043              		.loc 1 386 9 is_stmt 1 view .LVU679
 386:src/hbprotocol/machine_protocol.c ****         int txcount = mpTxQueued(&s->ack.TxBuffer);
 2044              		.loc 1 386 23 is_stmt 0 view .LVU680
 2045 0016 00F53977 		add	r7, r0, #740
 2046 001a 3846     		mov	r0, r7
 2047              	.LVL145:
 386:src/hbprotocol/machine_protocol.c ****         int txcount = mpTxQueued(&s->ack.TxBuffer);
 2048              		.loc 1 386 23 view .LVU681
 2049 001c FFF7FEFF 		bl	mpTxQueued
 2050              	.LVL146:
 387:src/hbprotocol/machine_protocol.c ****         if ((s->send_state != PROTOCOL_ACK_TX_WAITING) && !txcount){
 2051              		.loc 1 387 9 is_stmt 1 view .LVU682
 387:src/hbprotocol/machine_protocol.c ****         if ((s->send_state != PROTOCOL_ACK_TX_WAITING) && !txcount){
 2052              		.loc 1 387 15 is_stmt 0 view .LVU683
 2053 0020 95F81531 		ldrb	r3, [r5, #277]	@ zero_extendqisi2
 387:src/hbprotocol/machine_protocol.c ****         if ((s->send_state != PROTOCOL_ACK_TX_WAITING) && !txcount){
 2054              		.loc 1 387 12 view .LVU684
 2055 0024 012B     		cmp	r3, #1
 2056 0026 00D0     		beq	.L139
 387:src/hbprotocol/machine_protocol.c ****         if ((s->send_state != PROTOCOL_ACK_TX_WAITING) && !txcount){
 2057              		.loc 1 387 56 discriminator 1 view .LVU685
 2058 0028 48B1     		cbz	r0, .L147
 2059              	.L139:
 393:src/hbprotocol/machine_protocol.c ****         int total = msg->lenPayload + 4; // cmd, CI, len, code + size of content
 2060              		.loc 1 393 9 is_stmt 1 view .LVU686
 393:src/hbprotocol/machine_protocol.c ****         int total = msg->lenPayload + 4; // cmd, CI, len, code + size of content
 2061              		.loc 1 393 24 is_stmt 0 view .LVU687
 2062 002a E678     		ldrb	r6, [r4, #3]	@ zero_extendqisi2
 393:src/hbprotocol/machine_protocol.c ****         int total = msg->lenPayload + 4; // cmd, CI, len, code + size of content
 2063              		.loc 1 393 13 view .LVU688
 2064 002c 0436     		adds	r6, r6, #4
 2065              	.LVL147:
 395:src/hbprotocol/machine_protocol.c ****         if (txcount + total >= MACHINE_PROTOCOL_TX_BUFFER_SIZE-2) {
 2066              		.loc 1 395 9 is_stmt 1 view .LVU689
 395:src/hbprotocol/machine_protocol.c ****         if (txcount + total >= MACHINE_PROTOCOL_TX_BUFFER_SIZE-2) {
ARM GAS  /tmp/cc7G3T4Q.s 			page 60


 2067              		.loc 1 395 21 is_stmt 0 view .LVU690
 2068 002e 3044     		add	r0, r0, r6
 2069              	.LVL148:
 395:src/hbprotocol/machine_protocol.c ****         if (txcount + total >= MACHINE_PROTOCOL_TX_BUFFER_SIZE-2) {
 2070              		.loc 1 395 12 view .LVU691
 2071 0030 40F2FD33 		movw	r3, #1021
 2072 0034 9842     		cmp	r0, r3
 2073 0036 07DC     		bgt	.L148
 400:src/hbprotocol/machine_protocol.c ****         char *src = (char *) &(msg->cmd); // Do not copy SOM
 2074              		.loc 1 400 9 is_stmt 1 view .LVU692
 400:src/hbprotocol/machine_protocol.c ****         char *src = (char *) &(msg->cmd); // Do not copy SOM
 2075              		.loc 1 400 15 is_stmt 0 view .LVU693
 2076 0038 0134     		adds	r4, r4, #1
 2077              	.LVL149:
 401:src/hbprotocol/machine_protocol.c ****         for (int i = 0; i < total; i++) {
 2078              		.loc 1 401 9 is_stmt 1 view .LVU694
 2079              	.LBB15:
 401:src/hbprotocol/machine_protocol.c ****         for (int i = 0; i < total; i++) {
 2080              		.loc 1 401 14 view .LVU695
 401:src/hbprotocol/machine_protocol.c ****         for (int i = 0; i < total; i++) {
 2081              		.loc 1 401 18 is_stmt 0 view .LVU696
 2082 003a 0025     		movs	r5, #0
 2083              	.LVL150:
 401:src/hbprotocol/machine_protocol.c ****         for (int i = 0; i < total; i++) {
 2084              		.loc 1 401 9 view .LVU697
 2085 003c 12E0     		b	.L142
 2086              	.LVL151:
 2087              	.L147:
 401:src/hbprotocol/machine_protocol.c ****         for (int i = 0; i < total; i++) {
 2088              		.loc 1 401 9 view .LVU698
 2089              	.LBE15:
 389:src/hbprotocol/machine_protocol.c ****             return protocol_send(s, msg);
 2090              		.loc 1 389 13 is_stmt 1 view .LVU699
 389:src/hbprotocol/machine_protocol.c ****             return protocol_send(s, msg);
 2091              		.loc 1 389 20 is_stmt 0 view .LVU700
 2092 003e 2146     		mov	r1, r4
 2093 0040 2846     		mov	r0, r5
 2094              	.LVL152:
 389:src/hbprotocol/machine_protocol.c ****             return protocol_send(s, msg);
 2095              		.loc 1 389 20 view .LVU701
 2096 0042 FFF7FEFF 		bl	protocol_send
 2097              	.LVL153:
 2098 0046 E5E7     		b	.L137
 2099              	.LVL154:
 2100              	.L148:
 396:src/hbprotocol/machine_protocol.c ****             s->ack.TxBuffer.overflow++;
 2101              		.loc 1 396 13 is_stmt 1 view .LVU702
 396:src/hbprotocol/machine_protocol.c ****             s->ack.TxBuffer.overflow++;
 2102              		.loc 1 396 28 is_stmt 0 view .LVU703
 2103 0048 D5F8EC36 		ldr	r3, [r5, #1772]
 396:src/hbprotocol/machine_protocol.c ****             s->ack.TxBuffer.overflow++;
 2104              		.loc 1 396 37 view .LVU704
 2105 004c 0133     		adds	r3, r3, #1
 2106 004e C5F8EC36 		str	r3, [r5, #1772]
 397:src/hbprotocol/machine_protocol.c ****             return -1;
 2107              		.loc 1 397 13 is_stmt 1 view .LVU705
 397:src/hbprotocol/machine_protocol.c ****             return -1;
ARM GAS  /tmp/cc7G3T4Q.s 			page 61


 2108              		.loc 1 397 20 is_stmt 0 view .LVU706
 2109 0052 4FF0FF30 		mov	r0, #-1
 2110 0056 DDE7     		b	.L137
 2111              	.LVL155:
 2112              	.L143:
 2113              	.LBB16:
 402:src/hbprotocol/machine_protocol.c ****             mpPutTx(&s->ack.TxBuffer, *(src++));
 2114              		.loc 1 402 13 is_stmt 1 view .LVU707
 402:src/hbprotocol/machine_protocol.c ****             mpPutTx(&s->ack.TxBuffer, *(src++));
 2115              		.loc 1 402 13 is_stmt 0 view .LVU708
 2116 0058 14F8011B 		ldrb	r1, [r4], #1	@ zero_extendqisi2
 2117              	.LVL156:
 402:src/hbprotocol/machine_protocol.c ****             mpPutTx(&s->ack.TxBuffer, *(src++));
 2118              		.loc 1 402 13 view .LVU709
 2119 005c 3846     		mov	r0, r7
 2120 005e FFF7FEFF 		bl	mpPutTx
 2121              	.LVL157:
 401:src/hbprotocol/machine_protocol.c ****         for (int i = 0; i < total; i++) {
 2122              		.loc 1 401 37 is_stmt 1 discriminator 3 view .LVU710
 2123 0062 0135     		adds	r5, r5, #1
 2124              	.LVL158:
 2125              	.L142:
 401:src/hbprotocol/machine_protocol.c ****         for (int i = 0; i < total; i++) {
 2126              		.loc 1 401 27 discriminator 1 view .LVU711
 2127 0064 B542     		cmp	r5, r6
 2128 0066 F7DB     		blt	.L143
 401:src/hbprotocol/machine_protocol.c ****         for (int i = 0; i < total; i++) {
 2129              		.loc 1 401 27 is_stmt 0 discriminator 1 view .LVU712
 2130              	.LBE16:
 405:src/hbprotocol/machine_protocol.c ****         return 1; // added to queue
 2131              		.loc 1 405 16 view .LVU713
 2132 0068 0120     		movs	r0, #1
 2133 006a D3E7     		b	.L137
 2134              	.LVL159:
 2135              	.L144:
 405:src/hbprotocol/machine_protocol.c ****         return 1; // added to queue
 2136              		.loc 1 405 16 view .LVU714
 2137              	.LBE14:
 410:src/hbprotocol/machine_protocol.c ****     return -1;
 2138              		.loc 1 410 12 view .LVU715
 2139 006c 4FF0FF30 		mov	r0, #-1
 2140              	.LVL160:
 410:src/hbprotocol/machine_protocol.c ****     return -1;
 2141              		.loc 1 410 12 view .LVU716
 2142 0070 D0E7     		b	.L137
 2143              		.cfi_endproc
 2144              	.LFE7:
 2146              		.section	.text.protocol_send_text,"ax",%progbits
 2147              		.align	1
 2148              		.global	protocol_send_text
 2149              		.syntax unified
 2150              		.thumb
 2151              		.thumb_func
 2153              	protocol_send_text:
 2154              	.LVL161:
 2155              	.LFB10:
 513:src/hbprotocol/machine_protocol.c **** int protocol_send_text(PROTOCOL_STAT *s, char *message, unsigned char som) {
ARM GAS  /tmp/cc7G3T4Q.s 			page 62


 2156              		.loc 1 513 76 is_stmt 1 view -0
 2157              		.cfi_startproc
 2158              		@ args = 0, pretend = 0, frame = 264
 2159              		@ frame_needed = 0, uses_anonymous_args = 0
 513:src/hbprotocol/machine_protocol.c **** int protocol_send_text(PROTOCOL_STAT *s, char *message, unsigned char som) {
 2160              		.loc 1 513 76 is_stmt 0 view .LVU718
 2161 0000 F0B5     		push	{r4, r5, r6, r7, lr}
 2162              	.LCFI22:
 2163              		.cfi_def_cfa_offset 20
 2164              		.cfi_offset 4, -20
 2165              		.cfi_offset 5, -16
 2166              		.cfi_offset 6, -12
 2167              		.cfi_offset 7, -8
 2168              		.cfi_offset 14, -4
 2169 0002 C3B0     		sub	sp, sp, #268
 2170              	.LCFI23:
 2171              		.cfi_def_cfa_offset 288
 516:src/hbprotocol/machine_protocol.c ****     if( (s->params[0x26]) && (strlen(message) <= s->params[0x26]->len ) ) {
 2172              		.loc 1 516 5 is_stmt 1 view .LVU719
 516:src/hbprotocol/machine_protocol.c ****     if( (s->params[0x26]) && (strlen(message) <= s->params[0x26]->len ) ) {
 2173              		.loc 1 516 19 is_stmt 0 view .LVU720
 2174 0004 D0F8C46C 		ldr	r6, [r0, #3268]
 516:src/hbprotocol/machine_protocol.c ****     if( (s->params[0x26]) && (strlen(message) <= s->params[0x26]->len ) ) {
 2175              		.loc 1 516 7 view .LVU721
 2176 0008 56B3     		cbz	r6, .L151
 2177 000a 0746     		mov	r7, r0
 2178 000c 0C46     		mov	r4, r1
 2179 000e 1546     		mov	r5, r2
 516:src/hbprotocol/machine_protocol.c ****     if( (s->params[0x26]) && (strlen(message) <= s->params[0x26]->len ) ) {
 2180              		.loc 1 516 31 discriminator 1 view .LVU722
 2181 0010 0846     		mov	r0, r1
 2182              	.LVL162:
 516:src/hbprotocol/machine_protocol.c ****     if( (s->params[0x26]) && (strlen(message) <= s->params[0x26]->len ) ) {
 2183              		.loc 1 516 31 discriminator 1 view .LVU723
 2184 0012 FFF7FEFF 		bl	strlen
 2185              	.LVL163:
 516:src/hbprotocol/machine_protocol.c ****     if( (s->params[0x26]) && (strlen(message) <= s->params[0x26]->len ) ) {
 2186              		.loc 1 516 65 discriminator 1 view .LVU724
 2187 0016 7369     		ldr	r3, [r6, #20]
 516:src/hbprotocol/machine_protocol.c ****     if( (s->params[0x26]) && (strlen(message) <= s->params[0x26]->len ) ) {
 2188              		.loc 1 516 27 discriminator 1 view .LVU725
 2189 0018 9842     		cmp	r0, r3
 2190 001a 24D8     		bhi	.L152
 2191              	.LBB17:
 518:src/hbprotocol/machine_protocol.c ****         PROTOCOL_MSG3full newMsg;
 2192              		.loc 1 518 9 is_stmt 1 view .LVU726
 519:src/hbprotocol/machine_protocol.c ****         memset((void*)&newMsg,0x00,sizeof(PROTOCOL_MSG3full));
 2193              		.loc 1 519 9 view .LVU727
 2194 001c 4FF48172 		mov	r2, #258
 2195 0020 0021     		movs	r1, #0
 2196 0022 01A8     		add	r0, sp, #4
 2197 0024 FFF7FEFF 		bl	memset
 2198              	.LVL164:
 521:src/hbprotocol/machine_protocol.c ****         newMsg.SOM = som;
 2199              		.loc 1 521 9 view .LVU728
 521:src/hbprotocol/machine_protocol.c ****         newMsg.SOM = som;
 2200              		.loc 1 521 20 is_stmt 0 view .LVU729
ARM GAS  /tmp/cc7G3T4Q.s 			page 63


 2201 0028 8DF80450 		strb	r5, [sp, #4]
 522:src/hbprotocol/machine_protocol.c ****         newMsg.lenPayload = strlen(message) + 1;  // +1 for Null character \0
 2202              		.loc 1 522 9 is_stmt 1 view .LVU730
 522:src/hbprotocol/machine_protocol.c ****         newMsg.lenPayload = strlen(message) + 1;  // +1 for Null character \0
 2203              		.loc 1 522 29 is_stmt 0 view .LVU731
 2204 002c 2046     		mov	r0, r4
 2205 002e FFF7FEFF 		bl	strlen
 2206              	.LVL165:
 522:src/hbprotocol/machine_protocol.c ****         newMsg.lenPayload = strlen(message) + 1;  // +1 for Null character \0
 2207              		.loc 1 522 45 discriminator 1 view .LVU732
 2208 0032 431C     		adds	r3, r0, #1
 522:src/hbprotocol/machine_protocol.c ****         newMsg.lenPayload = strlen(message) + 1;  // +1 for Null character \0
 2209              		.loc 1 522 27 discriminator 1 view .LVU733
 2210 0034 8DF80730 		strb	r3, [sp, #7]
 524:src/hbprotocol/machine_protocol.c ****         newMsg.cmd = PROTOCOL_CMD_WRITEVAL;
 2211              		.loc 1 524 9 is_stmt 1 view .LVU734
 524:src/hbprotocol/machine_protocol.c ****         newMsg.cmd = PROTOCOL_CMD_WRITEVAL;
 2212              		.loc 1 524 20 is_stmt 0 view .LVU735
 2213 0038 5723     		movs	r3, #87
 2214 003a 8DF80530 		strb	r3, [sp, #5]
 525:src/hbprotocol/machine_protocol.c ****         newMsg.code = 0x26;                    // 0x26 for text
 2215              		.loc 1 525 9 is_stmt 1 view .LVU736
 525:src/hbprotocol/machine_protocol.c ****         newMsg.code = 0x26;                    // 0x26 for text
 2216              		.loc 1 525 21 is_stmt 0 view .LVU737
 2217 003e 2623     		movs	r3, #38
 2218 0040 8DF80830 		strb	r3, [sp, #8]
 526:src/hbprotocol/machine_protocol.c ****         strcpy( (char *) newMsg.content, message);
 2219              		.loc 1 526 9 is_stmt 1 view .LVU738
 2220 0044 2146     		mov	r1, r4
 2221 0046 0DF10900 		add	r0, sp, #9
 2222 004a FFF7FEFF 		bl	strcpy
 2223              	.LVL166:
 528:src/hbprotocol/machine_protocol.c ****         protocol_post(s, &newMsg);
 2224              		.loc 1 528 9 view .LVU739
 2225 004e 01A9     		add	r1, sp, #4
 2226 0050 3846     		mov	r0, r7
 2227 0052 FFF7FEFF 		bl	protocol_post
 2228              	.LVL167:
 530:src/hbprotocol/machine_protocol.c ****         return strlen(message);
 2229              		.loc 1 530 9 view .LVU740
 530:src/hbprotocol/machine_protocol.c ****         return strlen(message);
 2230              		.loc 1 530 16 is_stmt 0 view .LVU741
 2231 0056 2046     		mov	r0, r4
 2232 0058 FFF7FEFF 		bl	strlen
 2233              	.LVL168:
 2234              	.L149:
 530:src/hbprotocol/machine_protocol.c ****         return strlen(message);
 2235              		.loc 1 530 16 view .LVU742
 2236              	.LBE17:
 533:src/hbprotocol/machine_protocol.c **** }
 2237              		.loc 1 533 1 view .LVU743
 2238 005c 43B0     		add	sp, sp, #268
 2239              	.LCFI24:
 2240              		.cfi_remember_state
 2241              		.cfi_def_cfa_offset 20
 2242              		@ sp needed
 2243 005e F0BD     		pop	{r4, r5, r6, r7, pc}
ARM GAS  /tmp/cc7G3T4Q.s 			page 64


 2244              	.LVL169:
 2245              	.L151:
 2246              	.LCFI25:
 2247              		.cfi_restore_state
 532:src/hbprotocol/machine_protocol.c ****     return -1; // failed
 2248              		.loc 1 532 12 view .LVU744
 2249 0060 4FF0FF30 		mov	r0, #-1
 2250              	.LVL170:
 532:src/hbprotocol/machine_protocol.c ****     return -1; // failed
 2251              		.loc 1 532 12 view .LVU745
 2252 0064 FAE7     		b	.L149
 2253              	.LVL171:
 2254              	.L152:
 532:src/hbprotocol/machine_protocol.c ****     return -1; // failed
 2255              		.loc 1 532 12 view .LVU746
 2256 0066 4FF0FF30 		mov	r0, #-1
 2257 006a F7E7     		b	.L149
 2258              		.cfi_endproc
 2259              	.LFE10:
 2261              		.text
 2262              	.Letext0:
 2263              		.file 2 "/usr/lib/gcc/arm-none-eabi/13.2.1/include/stdint.h"
 2264              		.file 3 "src/hbprotocol/protocol.h"
 2265              		.file 4 "/usr/lib/gcc/arm-none-eabi/13.2.1/include/stddef.h"
 2266              		.file 5 "src/hbprotocol/cobsr.h"
 2267              		.file 6 "/usr/include/newlib/string.h"
 2268              		.file 7 "src/hbprotocol/protocol_private.h"
 2269              		.file 8 "<built-in>"
ARM GAS  /tmp/cc7G3T4Q.s 			page 65

