ARM GAS  /tmp/ccMro7q3.s 			page 1


   1              		.cpu cortex-m3
   2              		.arch armv7-m
   3              		.fpu softvfp
   4              		.eabi_attribute 20, 1
   5              		.eabi_attribute 21, 1
   6              		.eabi_attribute 23, 3
   7              		.eabi_attribute 24, 1
   8              		.eabi_attribute 25, 1
   9              		.eabi_attribute 26, 1
  10              		.eabi_attribute 30, 1
  11              		.eabi_attribute 34, 1
  12              		.eabi_attribute 18, 4
  13              		.file	"sensorcoms.c"
  14              		.text
  15              	.Ltext0:
  16              		.cfi_sections	.debug_frame
  17              		.file 1 "src/sensorcoms.c"
  18              		.section	.text.USART_sensor_rxcount,"ax",%progbits
  19              		.align	1
  20              		.global	USART_sensor_rxcount
  21              		.syntax unified
  22              		.thumb
  23              		.thumb_func
  25              	USART_sensor_rxcount:
  26              	.LVL0:
  27              	.LFB67:
   1:src/sensorcoms.c **** #include "stm32f1xx_hal.h"
   2:src/sensorcoms.c **** #include "sensorcoms.h"
   3:src/sensorcoms.c **** #include "comms.h"
   4:src/sensorcoms.c **** #include "config.h"
   5:src/sensorcoms.c **** #include "stdio.h"
   6:src/sensorcoms.c **** #include "string.h"
   7:src/sensorcoms.c **** #include "flashcontent.h"
   8:src/sensorcoms.c **** #include "defines.h"
   9:src/sensorcoms.c **** #include "stdlib.h"
  10:src/sensorcoms.c **** 
  11:src/sensorcoms.c **** /////////////////////////////////////////////////////////////////////////////////////
  12:src/sensorcoms.c **** // this file encapsulates coms with the original sensor boards
  13:src/sensorcoms.c **** // these use the 9 bit USART mode, sending 0x100 to signal the END of a comms frame
  14:src/sensorcoms.c **** // it uses CONTROL_SENSOR, CONTROL_BAUD (52177 for GD32 based YST board) and DEBUG_SERIAL_SENSOR
  15:src/sensorcoms.c **** // Implements Interrupt driven USART2 & USART3 with buffers,
  16:src/sensorcoms.c **** // and uses 9 bit serial.
  17:src/sensorcoms.c **** /////////////////////////////////////////////////////////////////////////////////////
  18:src/sensorcoms.c **** 
  19:src/sensorcoms.c **** #ifdef CONTROL_SENSOR
  20:src/sensorcoms.c **** 
  21:src/sensorcoms.c **** ////////////////////////////////////////////////////////////////
  22:src/sensorcoms.c **** // code to read and interpret sensors
  23:src/sensorcoms.c **** SENSOR_DATA sensor_data[2];
  24:src/sensorcoms.c **** SENSOR_LIGHTS sensorlights[2];
  25:src/sensorcoms.c **** 
  26:src/sensorcoms.c **** ///////////////////////////
  27:src/sensorcoms.c **** // sends data on sensor port.
  28:src/sensorcoms.c **** // set startframe=1 to add 0x100 to first byte of data.
  29:src/sensorcoms.c **** // 2019-05-22 - rework based on assumption that 0x1xx
  30:src/sensorcoms.c **** // represents the START of the data, not the end.
  31:src/sensorcoms.c **** int USART_sensorSend(int port, unsigned char *data, int len, int endframe){
ARM GAS  /tmp/ccMro7q3.s 			page 2


  32:src/sensorcoms.c **** 
  33:src/sensorcoms.c ****     int count = USART_sensor_txcount(port);
  34:src/sensorcoms.c ****     // overflow
  35:src/sensorcoms.c ****     if (count + len + 1 > SERIAL_USART_BUFFER_SIZE-3){
  36:src/sensorcoms.c ****         return -1;
  37:src/sensorcoms.c ****     }
  38:src/sensorcoms.c **** 
  39:src/sensorcoms.c ****     for (int i = 0; i < len; i++){
  40:src/sensorcoms.c ****         unsigned short c = data[i];
  41:src/sensorcoms.c ****         if(endframe && (i == 0)){
  42:src/sensorcoms.c ****             c |= 0x100;
  43:src/sensorcoms.c ****         }
  44:src/sensorcoms.c ****         USART_sensor_addTXshort( port, (unsigned short) c );
  45:src/sensorcoms.c ****     }
  46:src/sensorcoms.c **** 
  47:src/sensorcoms.c ****     USART_sensor_starttx(port);
  48:src/sensorcoms.c ****     return 1;
  49:src/sensorcoms.c **** }
  50:src/sensorcoms.c **** 
  51:src/sensorcoms.c **** int USART_sensor_rxcount(int port){
  28              		.loc 1 51 35 view -0
  29              		.cfi_startproc
  30              		@ args = 0, pretend = 0, frame = 0
  31              		@ frame_needed = 0, uses_anonymous_args = 0
  32              		.loc 1 51 35 is_stmt 0 view .LVU1
  33 0000 08B5     		push	{r3, lr}
  34              	.LCFI0:
  35              		.cfi_def_cfa_offset 8
  36              		.cfi_offset 3, -8
  37              		.cfi_offset 14, -4
  52:src/sensorcoms.c ****     if (port == 0){
  38              		.loc 1 52 5 is_stmt 1 view .LVU2
  39              		.loc 1 52 8 is_stmt 0 view .LVU3
  40 0002 18B1     		cbz	r0, .L5
  53:src/sensorcoms.c ****         return  serial_usart_buffer_count(&usart2_it_RXbuffer);
  54:src/sensorcoms.c ****     }
  55:src/sensorcoms.c ****     return  serial_usart_buffer_count(&usart3_it_RXbuffer);
  41              		.loc 1 55 5 is_stmt 1 view .LVU4
  42              		.loc 1 55 13 is_stmt 0 view .LVU5
  43 0004 0348     		ldr	r0, .L6
  44              	.LVL1:
  45              		.loc 1 55 13 view .LVU6
  46 0006 FFF7FEFF 		bl	serial_usart_buffer_count
  47              	.LVL2:
  48              	.L1:
  56:src/sensorcoms.c **** }
  49              		.loc 1 56 1 view .LVU7
  50 000a 08BD     		pop	{r3, pc}
  51              	.LVL3:
  52              	.L5:
  53:src/sensorcoms.c ****         return  serial_usart_buffer_count(&usart2_it_RXbuffer);
  53              		.loc 1 53 9 is_stmt 1 view .LVU8
  53:src/sensorcoms.c ****         return  serial_usart_buffer_count(&usart2_it_RXbuffer);
  54              		.loc 1 53 17 is_stmt 0 view .LVU9
  55 000c 0248     		ldr	r0, .L6+4
  56              	.LVL4:
  53:src/sensorcoms.c ****         return  serial_usart_buffer_count(&usart2_it_RXbuffer);
ARM GAS  /tmp/ccMro7q3.s 			page 3


  57              		.loc 1 53 17 view .LVU10
  58 000e FFF7FEFF 		bl	serial_usart_buffer_count
  59              	.LVL5:
  60 0012 FAE7     		b	.L1
  61              	.L7:
  62              		.align	2
  63              	.L6:
  64 0014 00000000 		.word	usart3_it_RXbuffer
  65 0018 00000000 		.word	usart2_it_RXbuffer
  66              		.cfi_endproc
  67              	.LFE67:
  69              		.section	.text.USART_sensor_txcount,"ax",%progbits
  70              		.align	1
  71              		.global	USART_sensor_txcount
  72              		.syntax unified
  73              		.thumb
  74              		.thumb_func
  76              	USART_sensor_txcount:
  77              	.LVL6:
  78              	.LFB68:
  57:src/sensorcoms.c **** 
  58:src/sensorcoms.c **** int USART_sensor_txcount(int port){
  79              		.loc 1 58 35 is_stmt 1 view -0
  80              		.cfi_startproc
  81              		@ args = 0, pretend = 0, frame = 0
  82              		@ frame_needed = 0, uses_anonymous_args = 0
  83              		.loc 1 58 35 is_stmt 0 view .LVU12
  84 0000 08B5     		push	{r3, lr}
  85              	.LCFI1:
  86              		.cfi_def_cfa_offset 8
  87              		.cfi_offset 3, -8
  88              		.cfi_offset 14, -4
  59:src/sensorcoms.c ****     if (port == 0){
  89              		.loc 1 59 5 is_stmt 1 view .LVU13
  90              		.loc 1 59 8 is_stmt 0 view .LVU14
  91 0002 18B1     		cbz	r0, .L12
  60:src/sensorcoms.c ****         return  serial_usart_buffer_count(&usart2_it_TXbuffer);
  61:src/sensorcoms.c ****     }
  62:src/sensorcoms.c ****     return  serial_usart_buffer_count(&usart3_it_TXbuffer);
  92              		.loc 1 62 5 is_stmt 1 view .LVU15
  93              		.loc 1 62 13 is_stmt 0 view .LVU16
  94 0004 0348     		ldr	r0, .L13
  95              	.LVL7:
  96              		.loc 1 62 13 view .LVU17
  97 0006 FFF7FEFF 		bl	serial_usart_buffer_count
  98              	.LVL8:
  99              	.L8:
  63:src/sensorcoms.c **** }
 100              		.loc 1 63 1 view .LVU18
 101 000a 08BD     		pop	{r3, pc}
 102              	.LVL9:
 103              	.L12:
  60:src/sensorcoms.c ****         return  serial_usart_buffer_count(&usart2_it_TXbuffer);
 104              		.loc 1 60 9 is_stmt 1 view .LVU19
  60:src/sensorcoms.c ****         return  serial_usart_buffer_count(&usart2_it_TXbuffer);
 105              		.loc 1 60 17 is_stmt 0 view .LVU20
 106 000c 0248     		ldr	r0, .L13+4
ARM GAS  /tmp/ccMro7q3.s 			page 4


 107              	.LVL10:
  60:src/sensorcoms.c ****         return  serial_usart_buffer_count(&usart2_it_TXbuffer);
 108              		.loc 1 60 17 view .LVU21
 109 000e FFF7FEFF 		bl	serial_usart_buffer_count
 110              	.LVL11:
 111 0012 FAE7     		b	.L8
 112              	.L14:
 113              		.align	2
 114              	.L13:
 115 0014 00000000 		.word	usart3_it_TXbuffer
 116 0018 00000000 		.word	usart2_it_TXbuffer
 117              		.cfi_endproc
 118              	.LFE68:
 120              		.section	.text.USART_sensor_addTXshort,"ax",%progbits
 121              		.align	1
 122              		.global	USART_sensor_addTXshort
 123              		.syntax unified
 124              		.thumb
 125              		.thumb_func
 127              	USART_sensor_addTXshort:
 128              	.LVL12:
 129              	.LFB69:
  64:src/sensorcoms.c **** 
  65:src/sensorcoms.c **** void USART_sensor_addTXshort(int port, SERIAL_USART_IT_BUFFERTYPE value) {
 130              		.loc 1 65 74 is_stmt 1 view -0
 131              		.cfi_startproc
 132              		@ args = 0, pretend = 0, frame = 0
 133              		@ frame_needed = 0, uses_anonymous_args = 0
 134              		.loc 1 65 74 is_stmt 0 view .LVU23
 135 0000 08B5     		push	{r3, lr}
 136              	.LCFI2:
 137              		.cfi_def_cfa_offset 8
 138              		.cfi_offset 3, -8
 139              		.cfi_offset 14, -4
  66:src/sensorcoms.c ****     if (port == 0){
 140              		.loc 1 66 5 is_stmt 1 view .LVU24
 141              		.loc 1 66 8 is_stmt 0 view .LVU25
 142 0002 18B1     		cbz	r0, .L19
  67:src/sensorcoms.c ****         return serial_usart_buffer_push(&usart2_it_TXbuffer, value);
  68:src/sensorcoms.c ****     }
  69:src/sensorcoms.c ****     return serial_usart_buffer_push(&usart3_it_TXbuffer, value);
 143              		.loc 1 69 5 is_stmt 1 view .LVU26
 144              		.loc 1 69 12 is_stmt 0 view .LVU27
 145 0004 0348     		ldr	r0, .L20
 146              	.LVL13:
 147              		.loc 1 69 12 view .LVU28
 148 0006 FFF7FEFF 		bl	serial_usart_buffer_push
 149              	.LVL14:
 150              	.L15:
  70:src/sensorcoms.c **** }
 151              		.loc 1 70 1 view .LVU29
 152 000a 08BD     		pop	{r3, pc}
 153              	.LVL15:
 154              	.L19:
  67:src/sensorcoms.c ****         return serial_usart_buffer_push(&usart2_it_TXbuffer, value);
 155              		.loc 1 67 9 is_stmt 1 view .LVU30
  67:src/sensorcoms.c ****         return serial_usart_buffer_push(&usart2_it_TXbuffer, value);
ARM GAS  /tmp/ccMro7q3.s 			page 5


 156              		.loc 1 67 16 is_stmt 0 view .LVU31
 157 000c 0248     		ldr	r0, .L20+4
 158              	.LVL16:
  67:src/sensorcoms.c ****         return serial_usart_buffer_push(&usart2_it_TXbuffer, value);
 159              		.loc 1 67 16 view .LVU32
 160 000e FFF7FEFF 		bl	serial_usart_buffer_push
 161              	.LVL17:
  67:src/sensorcoms.c ****         return serial_usart_buffer_push(&usart2_it_TXbuffer, value);
 162              		.loc 1 67 16 view .LVU33
 163 0012 FAE7     		b	.L15
 164              	.L21:
 165              		.align	2
 166              	.L20:
 167 0014 00000000 		.word	usart3_it_TXbuffer
 168 0018 00000000 		.word	usart2_it_TXbuffer
 169              		.cfi_endproc
 170              	.LFE69:
 172              		.section	.text.USART_sensor_getrx,"ax",%progbits
 173              		.align	1
 174              		.global	USART_sensor_getrx
 175              		.syntax unified
 176              		.thumb
 177              		.thumb_func
 179              	USART_sensor_getrx:
 180              	.LVL18:
 181              	.LFB70:
  71:src/sensorcoms.c **** 
  72:src/sensorcoms.c **** SERIAL_USART_IT_BUFFERTYPE USART_sensor_getrx(int port) {
 182              		.loc 1 72 57 is_stmt 1 view -0
 183              		.cfi_startproc
 184              		@ args = 0, pretend = 0, frame = 0
 185              		@ frame_needed = 0, uses_anonymous_args = 0
 186              		.loc 1 72 57 is_stmt 0 view .LVU35
 187 0000 08B5     		push	{r3, lr}
 188              	.LCFI3:
 189              		.cfi_def_cfa_offset 8
 190              		.cfi_offset 3, -8
 191              		.cfi_offset 14, -4
  73:src/sensorcoms.c ****     if (port == 0){
 192              		.loc 1 73 5 is_stmt 1 view .LVU36
 193              		.loc 1 73 8 is_stmt 0 view .LVU37
 194 0002 18B1     		cbz	r0, .L26
  74:src/sensorcoms.c ****         return serial_usart_buffer_pop(&usart2_it_RXbuffer);
  75:src/sensorcoms.c ****     }
  76:src/sensorcoms.c ****     return serial_usart_buffer_pop(&usart3_it_RXbuffer);
 195              		.loc 1 76 5 is_stmt 1 view .LVU38
 196              		.loc 1 76 12 is_stmt 0 view .LVU39
 197 0004 0348     		ldr	r0, .L27
 198              	.LVL19:
 199              		.loc 1 76 12 view .LVU40
 200 0006 FFF7FEFF 		bl	serial_usart_buffer_pop
 201              	.LVL20:
 202              	.L24:
  77:src/sensorcoms.c **** }
 203              		.loc 1 77 1 view .LVU41
 204 000a 08BD     		pop	{r3, pc}
 205              	.LVL21:
ARM GAS  /tmp/ccMro7q3.s 			page 6


 206              	.L26:
  74:src/sensorcoms.c ****         return serial_usart_buffer_pop(&usart2_it_RXbuffer);
 207              		.loc 1 74 9 is_stmt 1 view .LVU42
  74:src/sensorcoms.c ****         return serial_usart_buffer_pop(&usart2_it_RXbuffer);
 208              		.loc 1 74 16 is_stmt 0 view .LVU43
 209 000c 0248     		ldr	r0, .L27+4
 210              	.LVL22:
  74:src/sensorcoms.c ****         return serial_usart_buffer_pop(&usart2_it_RXbuffer);
 211              		.loc 1 74 16 view .LVU44
 212 000e FFF7FEFF 		bl	serial_usart_buffer_pop
 213              	.LVL23:
 214 0012 FAE7     		b	.L24
 215              	.L28:
 216              		.align	2
 217              	.L27:
 218 0014 00000000 		.word	usart3_it_RXbuffer
 219 0018 00000000 		.word	usart2_it_RXbuffer
 220              		.cfi_endproc
 221              	.LFE70:
 223              		.section	.text.sensor_init,"ax",%progbits
 224              		.align	1
 225              		.global	sensor_init
 226              		.syntax unified
 227              		.thumb
 228              		.thumb_func
 230              	sensor_init:
 231              	.LFB71:
  78:src/sensorcoms.c **** 
  79:src/sensorcoms.c **** // inializes sensor calibration, must be called after flash init
  80:src/sensorcoms.c **** void sensor_init(){
 232              		.loc 1 80 19 is_stmt 1 view -0
 233              		.cfi_startproc
 234              		@ args = 0, pretend = 0, frame = 0
 235              		@ frame_needed = 0, uses_anonymous_args = 0
 236 0000 38B5     		push	{r3, r4, r5, lr}
 237              	.LCFI4:
 238              		.cfi_def_cfa_offset 16
 239              		.cfi_offset 3, -16
 240              		.cfi_offset 4, -12
 241              		.cfi_offset 5, -8
 242              		.cfi_offset 14, -4
  81:src/sensorcoms.c ****     memset((void *)sensorlights, 0, sizeof(sensorlights));
 243              		.loc 1 81 5 view .LVU46
 244 0002 0E4B     		ldr	r3, .L31
 245 0004 0025     		movs	r5, #0
 246 0006 1D60     		str	r5, [r3]	@ unaligned
 247 0008 5D60     		str	r5, [r3, #4]	@ unaligned
 248 000a 9D60     		str	r5, [r3, #8]	@ unaligned
  82:src/sensorcoms.c ****     memset((void *)sensor_data, 0, sizeof(sensor_data));
 249              		.loc 1 82 5 view .LVU47
 250 000c 0C4C     		ldr	r4, .L31+4
 251 000e 9422     		movs	r2, #148
 252 0010 2946     		mov	r1, r5
 253 0012 2046     		mov	r0, r4
 254 0014 FFF7FEFF 		bl	memset
 255              	.LVL24:
  83:src/sensorcoms.c **** 
ARM GAS  /tmp/ccMro7q3.s 			page 7


  84:src/sensorcoms.c ****     sensor_data[0].Center_calibration = FlashContent.calibration_0;
 256              		.loc 1 84 5 view .LVU48
 257              		.loc 1 84 53 is_stmt 0 view .LVU49
 258 0018 0A4B     		ldr	r3, .L31+8
 259 001a B3F91620 		ldrsh	r2, [r3, #22]
 260              		.loc 1 84 39 view .LVU50
 261 001e 2286     		strh	r2, [r4, #48]	@ unaligned
  85:src/sensorcoms.c ****     sensor_data[1].Center_calibration = FlashContent.calibration_1;
 262              		.loc 1 85 5 is_stmt 1 view .LVU51
 263              		.loc 1 85 53 is_stmt 0 view .LVU52
 264 0020 B3F91830 		ldrsh	r3, [r3, #24]
 265              		.loc 1 85 39 view .LVU53
 266 0024 A4F87A30 		strh	r3, [r4, #122]	@ unaligned
  86:src/sensorcoms.c ****     sensor_data[0].side = 0;
 267              		.loc 1 86 5 is_stmt 1 view .LVU54
  87:src/sensorcoms.c ****     sensor_data[1].side = 1;
 268              		.loc 1 87 5 view .LVU55
 269              		.loc 1 87 25 is_stmt 0 view .LVU56
 270 0028 0123     		movs	r3, #1
 271 002a 84F88830 		strb	r3, [r4, #136]
 272 002e 84F88950 		strb	r5, [r4, #137]
 273 0032 84F88A50 		strb	r5, [r4, #138]
 274 0036 84F88B50 		strb	r5, [r4, #139]
  88:src/sensorcoms.c **** }
 275              		.loc 1 88 1 view .LVU57
 276 003a 38BD     		pop	{r3, r4, r5, pc}
 277              	.L32:
 278              		.align	2
 279              	.L31:
 280 003c 00000000 		.word	sensorlights
 281 0040 00000000 		.word	sensor_data
 282 0044 00000000 		.word	FlashContent
 283              		.cfi_endproc
 284              	.LFE71:
 286              		.section	.text.USART_sensor_starttx,"ax",%progbits
 287              		.align	1
 288              		.global	USART_sensor_starttx
 289              		.syntax unified
 290              		.thumb
 291              		.thumb_func
 293              	USART_sensor_starttx:
 294              	.LVL25:
 295              	.LFB72:
  89:src/sensorcoms.c **** 
  90:src/sensorcoms.c **** ///////////////////////////
  91:src/sensorcoms.c **** // starts transmit from buffer on specific port, if data present
  92:src/sensorcoms.c **** int USART_sensor_starttx(int port){
 296              		.loc 1 92 35 is_stmt 1 view -0
 297              		.cfi_startproc
 298              		@ args = 0, pretend = 0, frame = 0
 299              		@ frame_needed = 0, uses_anonymous_args = 0
 300              		.loc 1 92 35 is_stmt 0 view .LVU59
 301 0000 08B5     		push	{r3, lr}
 302              	.LCFI5:
 303              		.cfi_def_cfa_offset 8
 304              		.cfi_offset 3, -8
 305              		.cfi_offset 14, -4
ARM GAS  /tmp/ccMro7q3.s 			page 8


  93:src/sensorcoms.c ****     if (port == 0){
 306              		.loc 1 93 5 is_stmt 1 view .LVU60
 307              		.loc 1 93 8 is_stmt 0 view .LVU61
 308 0002 10B1     		cbz	r0, .L37
  94:src/sensorcoms.c ****         return USART2_IT_starttx();
  95:src/sensorcoms.c ****     }
  96:src/sensorcoms.c ****     return USART3_IT_starttx();
 309              		.loc 1 96 5 is_stmt 1 view .LVU62
 310              		.loc 1 96 12 is_stmt 0 view .LVU63
 311 0004 FFF7FEFF 		bl	USART3_IT_starttx
 312              	.LVL26:
 313              	.L33:
  97:src/sensorcoms.c **** }
 314              		.loc 1 97 1 view .LVU64
 315 0008 08BD     		pop	{r3, pc}
 316              	.LVL27:
 317              	.L37:
  94:src/sensorcoms.c ****         return USART2_IT_starttx();
 318              		.loc 1 94 9 is_stmt 1 view .LVU65
  94:src/sensorcoms.c ****         return USART2_IT_starttx();
 319              		.loc 1 94 16 is_stmt 0 view .LVU66
 320 000a FFF7FEFF 		bl	USART2_IT_starttx
 321              	.LVL28:
  94:src/sensorcoms.c ****         return USART2_IT_starttx();
 322              		.loc 1 94 16 view .LVU67
 323 000e FBE7     		b	.L33
 324              		.cfi_endproc
 325              	.LFE72:
 327              		.section	.text.USART_sensorSend,"ax",%progbits
 328              		.align	1
 329              		.global	USART_sensorSend
 330              		.syntax unified
 331              		.thumb
 332              		.thumb_func
 334              	USART_sensorSend:
 335              	.LVL29:
 336              	.LFB66:
  31:src/sensorcoms.c **** 
 337              		.loc 1 31 75 is_stmt 1 view -0
 338              		.cfi_startproc
 339              		@ args = 0, pretend = 0, frame = 0
 340              		@ frame_needed = 0, uses_anonymous_args = 0
  31:src/sensorcoms.c **** 
 341              		.loc 1 31 75 is_stmt 0 view .LVU69
 342 0000 2DE9F041 		push	{r4, r5, r6, r7, r8, lr}
 343              	.LCFI6:
 344              		.cfi_def_cfa_offset 24
 345              		.cfi_offset 4, -24
 346              		.cfi_offset 5, -20
 347              		.cfi_offset 6, -16
 348              		.cfi_offset 7, -12
 349              		.cfi_offset 8, -8
 350              		.cfi_offset 14, -4
 351 0004 0646     		mov	r6, r0
 352 0006 0F46     		mov	r7, r1
 353 0008 1546     		mov	r5, r2
 354 000a 9846     		mov	r8, r3
ARM GAS  /tmp/ccMro7q3.s 			page 9


  33:src/sensorcoms.c ****     // overflow
 355              		.loc 1 33 5 is_stmt 1 view .LVU70
  33:src/sensorcoms.c ****     // overflow
 356              		.loc 1 33 17 is_stmt 0 view .LVU71
 357 000c FFF7FEFF 		bl	USART_sensor_txcount
 358              	.LVL30:
  35:src/sensorcoms.c ****         return -1;
 359              		.loc 1 35 5 is_stmt 1 view .LVU72
  35:src/sensorcoms.c ****         return -1;
 360              		.loc 1 35 15 is_stmt 0 view .LVU73
 361 0010 2844     		add	r0, r0, r5
 362              	.LVL31:
  35:src/sensorcoms.c ****         return -1;
 363              		.loc 1 35 8 view .LVU74
 364 0012 B0F57F7F 		cmp	r0, #1020
 365 0016 16DC     		bgt	.L43
 366              	.LBB11:
  39:src/sensorcoms.c ****         unsigned short c = data[i];
 367              		.loc 1 39 14 view .LVU75
 368 0018 0024     		movs	r4, #0
 369 001a 03E0     		b	.L40
 370              	.LVL32:
 371              	.L41:
 372              	.LBB12:
  44:src/sensorcoms.c ****     }
 373              		.loc 1 44 9 is_stmt 1 view .LVU76
 374 001c 3046     		mov	r0, r6
 375 001e FFF7FEFF 		bl	USART_sensor_addTXshort
 376              	.LVL33:
  44:src/sensorcoms.c ****     }
 377              		.loc 1 44 9 is_stmt 0 view .LVU77
 378              	.LBE12:
  39:src/sensorcoms.c ****         unsigned short c = data[i];
 379              		.loc 1 39 31 is_stmt 1 discriminator 2 view .LVU78
 380 0022 0134     		adds	r4, r4, #1
 381              	.LVL34:
 382              	.L40:
  39:src/sensorcoms.c ****         unsigned short c = data[i];
 383              		.loc 1 39 23 discriminator 1 view .LVU79
 384 0024 AC42     		cmp	r4, r5
 385 0026 08DA     		bge	.L45
 386              	.LBB13:
  40:src/sensorcoms.c ****         if(endframe && (i == 0)){
 387              		.loc 1 40 9 view .LVU80
  40:src/sensorcoms.c ****         if(endframe && (i == 0)){
 388              		.loc 1 40 32 is_stmt 0 view .LVU81
 389 0028 395D     		ldrb	r1, [r7, r4]	@ zero_extendqisi2
 390              	.LVL35:
  41:src/sensorcoms.c ****             c |= 0x100;
 391              		.loc 1 41 9 is_stmt 1 view .LVU82
  41:src/sensorcoms.c ****             c |= 0x100;
 392              		.loc 1 41 11 is_stmt 0 view .LVU83
 393 002a B8F1000F 		cmp	r8, #0
 394 002e F5D0     		beq	.L41
  41:src/sensorcoms.c ****             c |= 0x100;
 395              		.loc 1 41 21 discriminator 1 view .LVU84
 396 0030 002C     		cmp	r4, #0
ARM GAS  /tmp/ccMro7q3.s 			page 10


 397 0032 F3D1     		bne	.L41
  42:src/sensorcoms.c ****         }
 398              		.loc 1 42 13 is_stmt 1 view .LVU85
  42:src/sensorcoms.c ****         }
 399              		.loc 1 42 15 is_stmt 0 view .LVU86
 400 0034 41F48071 		orr	r1, r1, #256
 401              	.LVL36:
  42:src/sensorcoms.c ****         }
 402              		.loc 1 42 15 view .LVU87
 403 0038 F0E7     		b	.L41
 404              	.LVL37:
 405              	.L45:
  42:src/sensorcoms.c ****         }
 406              		.loc 1 42 15 view .LVU88
 407              	.LBE13:
 408              	.LBE11:
  47:src/sensorcoms.c ****     return 1;
 409              		.loc 1 47 5 is_stmt 1 view .LVU89
 410 003a 3046     		mov	r0, r6
 411 003c FFF7FEFF 		bl	USART_sensor_starttx
 412              	.LVL38:
  48:src/sensorcoms.c **** }
 413              		.loc 1 48 5 view .LVU90
  48:src/sensorcoms.c **** }
 414              		.loc 1 48 12 is_stmt 0 view .LVU91
 415 0040 0120     		movs	r0, #1
 416              	.LVL39:
 417              	.L38:
  49:src/sensorcoms.c **** 
 418              		.loc 1 49 1 view .LVU92
 419 0042 BDE8F081 		pop	{r4, r5, r6, r7, r8, pc}
 420              	.LVL40:
 421              	.L43:
  36:src/sensorcoms.c ****     }
 422              		.loc 1 36 16 view .LVU93
 423 0046 4FF0FF30 		mov	r0, #-1
 424 004a FAE7     		b	.L38
 425              		.cfi_endproc
 426              	.LFE66:
 428              		.section	.rodata.sensor_copy_buffer.str1.4,"aMS",%progbits,1
 429              		.align	2
 430              	.LC0:
 431 0000 73696465 		.ascii	"side %d:\000"
 431      2025643A 
 431      00
 432 0009 000000   		.align	2
 433              	.LC1:
 434 000c 73656E73 		.ascii	"sensor data not 55 or AA\015\012\000"
 434      6F722064 
 434      61746120 
 434      6E6F7420 
 434      3535206F 
 435 0027 00       		.align	2
 436              	.LC2:
 437 0028 25322E32 		.ascii	"%2.2X \000"
 437      582000
 438 002f 00       		.align	2
ARM GAS  /tmp/ccMro7q3.s 			page 11


 439              	.LC3:
 440 0030 0D0A00   		.ascii	"\015\012\000"
 441 0033 00       		.align	2
 442              	.LC4:
 443 0034 616E676C 		.ascii	"angle mismatch %d != %d:\015\012\000"
 443      65206D69 
 443      736D6174 
 443      63682025 
 443      6420213D 
 444 004f 00       		.align	2
 445              	.LC5:
 446 0050 616E676C 		.ascii	"angle change > 200 %d -> %d:\015\012\000"
 446      65206368 
 446      616E6765 
 446      203E2032 
 446      30302025 
 447              		.section	.text.sensor_copy_buffer,"ax",%progbits
 448              		.align	1
 449              		.global	sensor_copy_buffer
 450              		.syntax unified
 451              		.thumb
 452              		.thumb_func
 454              	sensor_copy_buffer:
 455              	.LVL41:
 456              	.LFB73:
  98:src/sensorcoms.c **** 
  99:src/sensorcoms.c **** // copy what data we have onto our sensor data structure
 100:src/sensorcoms.c **** void sensor_copy_buffer(SENSOR_DATA *s){
 457              		.loc 1 100 40 is_stmt 1 view -0
 458              		.cfi_startproc
 459              		@ args = 0, pretend = 0, frame = 56
 460              		@ frame_needed = 0, uses_anonymous_args = 0
 461              		.loc 1 100 40 is_stmt 0 view .LVU95
 462 0000 30B5     		push	{r4, r5, lr}
 463              	.LCFI7:
 464              		.cfi_def_cfa_offset 12
 465              		.cfi_offset 4, -12
 466              		.cfi_offset 5, -8
 467              		.cfi_offset 14, -4
 468 0002 8FB0     		sub	sp, sp, #60
 469              	.LCFI8:
 470              		.cfi_def_cfa_offset 72
 471 0004 0446     		mov	r4, r0
 101:src/sensorcoms.c ****     int count = s->bytecount;
 472              		.loc 1 101 5 is_stmt 1 view .LVU96
 473              		.loc 1 101 9 is_stmt 0 view .LVU97
 474 0006 4569     		ldr	r5, [r0, #20]	@ unaligned
 475              	.LVL42:
 102:src/sensorcoms.c ****     if (count > sizeof(s->complete)) {
 476              		.loc 1 102 5 is_stmt 1 view .LVU98
 477              		.loc 1 102 8 is_stmt 0 view .LVU99
 478 0008 0A2D     		cmp	r5, #10
 479 000a 00D9     		bls	.L47
 103:src/sensorcoms.c ****         count = sizeof(s->complete);
 480              		.loc 1 103 15 view .LVU100
 481 000c 0A25     		movs	r5, #10
 482              	.LVL43:
ARM GAS  /tmp/ccMro7q3.s 			page 12


 483              	.L47:
 104:src/sensorcoms.c ****     }
 105:src/sensorcoms.c **** 
 106:src/sensorcoms.c ****     int copy = 1;
 484              		.loc 1 106 5 is_stmt 1 view .LVU101
 107:src/sensorcoms.c **** 
 108:src/sensorcoms.c ****     SENSOR_FRAME *f = (SENSOR_FRAME *)s->buffer;
 485              		.loc 1 108 5 view .LVU102
 109:src/sensorcoms.c **** 
 110:src/sensorcoms.c ****     if ((s->buffer[5] != 0xAA) && (s->buffer[5] != 0x55)){
 486              		.loc 1 110 5 view .LVU103
 487              		.loc 1 110 19 is_stmt 0 view .LVU104
 488 000e 6379     		ldrb	r3, [r4, #5]	@ zero_extendqisi2
 489              		.loc 1 110 8 view .LVU105
 490 0010 AA2B     		cmp	r3, #170
 491 0012 01D0     		beq	.L48
 492              		.loc 1 110 32 discriminator 1 view .LVU106
 493 0014 552B     		cmp	r3, #85
 494 0016 34D1     		bne	.L61
 495              	.L48:
 496              	.LVL44:
 111:src/sensorcoms.c ****         char t[10];
 112:src/sensorcoms.c ****         sprintf(t, "side %d:", s->side);
 113:src/sensorcoms.c ****         consoleLog(t);
 114:src/sensorcoms.c ****         consoleLog("sensor data not 55 or AA\r\n");
 115:src/sensorcoms.c ****         for (int i = 0; i < s->bytecount; i++) {
 116:src/sensorcoms.c ****             sprintf(t, "%2.2X ", s->buffer[i]);
 117:src/sensorcoms.c ****             consoleLog(t);
 118:src/sensorcoms.c ****         }
 119:src/sensorcoms.c ****         consoleLog("\r\n");
 120:src/sensorcoms.c ****         copy = 0;
 121:src/sensorcoms.c ****     }
 122:src/sensorcoms.c **** 
 123:src/sensorcoms.c ****     if (copy && (f->Angle != f->Angle_duplicate)) {
 497              		.loc 1 123 19 discriminator 1 view .LVU107
 498 0018 B4F90120 		ldrsh	r2, [r4, #1]	@ unaligned
 499              		.loc 1 123 31 discriminator 1 view .LVU108
 500 001c B4F90330 		ldrsh	r3, [r4, #3]	@ unaligned
 501              		.loc 1 123 14 discriminator 1 view .LVU109
 502 0020 9A42     		cmp	r2, r3
 503 0022 4CD1     		bne	.L62
 504              	.LVL45:
 124:src/sensorcoms.c ****         char t[50];
 125:src/sensorcoms.c ****         sprintf(t, "angle mismatch %d != %d:\r\n", f->Angle, f->Angle_duplicate);
 126:src/sensorcoms.c ****         consoleLog(t);
 127:src/sensorcoms.c ****         for (int i = 0; i < s->bytecount; i++) {
 128:src/sensorcoms.c ****             sprintf(t, "%2.2X ", s->buffer[i]);
 129:src/sensorcoms.c ****             consoleLog(t);
 130:src/sensorcoms.c ****         }
 131:src/sensorcoms.c ****         consoleLog("\r\n");
 132:src/sensorcoms.c ****         copy = 0;
 133:src/sensorcoms.c ****     }
 134:src/sensorcoms.c **** 
 135:src/sensorcoms.c ****     if (copy && (ABS(s->last_angle - f->Angle) > 200)) {
 505              		.loc 1 135 5 is_stmt 1 view .LVU110
 506              		.loc 1 135 18 is_stmt 0 discriminator 1 view .LVU111
 507 0024 D4F84210 		ldr	r1, [r4, #66]	@ unaligned
ARM GAS  /tmp/ccMro7q3.s 			page 13


 508 0028 8B1A     		subs	r3, r1, r2
 509 002a 002B     		cmp	r3, #0
 510 002c B8BF     		it	lt
 511 002e 5B42     		rsblt	r3, r3, #0
 512              		.loc 1 135 14 discriminator 1 view .LVU112
 513 0030 C82B     		cmp	r3, #200
 514 0032 64DC     		bgt	.L63
 515              	.LVL46:
 516              	.L55:
 136:src/sensorcoms.c ****         char t[50];
 137:src/sensorcoms.c ****         sprintf(t, "angle change > 200 %d -> %d:\r\n", s->last_angle, f->Angle);
 138:src/sensorcoms.c ****         consoleLog(t);
 139:src/sensorcoms.c ****     }
 140:src/sensorcoms.c **** 
 141:src/sensorcoms.c ****     if (copy) {
 517              		.loc 1 141 5 is_stmt 1 view .LVU113
 142:src/sensorcoms.c ****         if (count != sizeof(s->complete)){
 518              		.loc 1 142 9 view .LVU114
 519              		.loc 1 142 12 is_stmt 0 view .LVU115
 520 0034 0A2D     		cmp	r5, #10
 521 0036 6CD1     		bne	.L64
 522              	.L56:
 143:src/sensorcoms.c ****             memset(&s->complete, 0, sizeof(s->complete));
 144:src/sensorcoms.c ****         }
 145:src/sensorcoms.c ****         memcpy(&s->complete, s->buffer, count);
 523              		.loc 1 145 9 is_stmt 1 view .LVU116
 524 0038 2A46     		mov	r2, r5
 525 003a 2146     		mov	r1, r4
 526 003c 04F11C00 		add	r0, r4, #28
 527 0040 FFF7FEFF 		bl	memcpy
 528              	.LVL47:
 146:src/sensorcoms.c ****         s->last_angle = f->Angle;
 529              		.loc 1 146 9 view .LVU117
 530              		.loc 1 146 26 is_stmt 0 view .LVU118
 531 0044 B4F90130 		ldrsh	r3, [r4, #1]	@ unaligned
 532              		.loc 1 146 23 view .LVU119
 533 0048 C4F84230 		str	r3, [r4, #66]	@ unaligned
 147:src/sensorcoms.c **** 
 148:src/sensorcoms.c ****         if ((ABS(s->complete.Roll) > 2000) ||
 534              		.loc 1 148 9 is_stmt 1 view .LVU120
 535              		.loc 1 148 14 is_stmt 0 view .LVU121
 536 004c B4F92430 		ldrsh	r3, [r4, #36]	@ unaligned
 537 0050 002B     		cmp	r3, #0
 538 0052 B8BF     		it	lt
 539 0054 5B42     		rsblt	r3, r3, #0
 540 0056 9BB2     		uxth	r3, r3
 541              		.loc 1 148 12 view .LVU122
 542 0058 B3F5FA6F 		cmp	r3, #2000
 543 005c 09D8     		bhi	.L57
 149:src/sensorcoms.c ****             (ABS(s->complete.Angle) > 9000)){
 544              		.loc 1 149 14 view .LVU123
 545 005e B4F91D30 		ldrsh	r3, [r4, #29]	@ unaligned
 546 0062 002B     		cmp	r3, #0
 547 0064 B8BF     		it	lt
 548 0066 5B42     		rsblt	r3, r3, #0
 549 0068 9BB2     		uxth	r3, r3
 148:src/sensorcoms.c ****             (ABS(s->complete.Angle) > 9000)){
ARM GAS  /tmp/ccMro7q3.s 			page 14


 550              		.loc 1 148 44 discriminator 1 view .LVU124
 551 006a 42F22832 		movw	r2, #9000
 552 006e 9342     		cmp	r3, r2
 553 0070 54D9     		bls	.L58
 554              	.L57:
 150:src/sensorcoms.c ****             if (s->rollhigh > 0) {
 555              		.loc 1 150 13 is_stmt 1 view .LVU125
 556              		.loc 1 150 18 is_stmt 0 view .LVU126
 557 0072 D4F84630 		ldr	r3, [r4, #70]	@ unaligned
 558              		.loc 1 150 16 view .LVU127
 559 0076 002B     		cmp	r3, #0
 560 0078 39DD     		ble	.L51
 151:src/sensorcoms.c ****                 s->rollhigh--;
 561              		.loc 1 151 17 is_stmt 1 view .LVU128
 562              		.loc 1 151 28 is_stmt 0 view .LVU129
 563 007a 013B     		subs	r3, r3, #1
 564 007c C4F84630 		str	r3, [r4, #70]	@ unaligned
 565 0080 35E0     		b	.L51
 566              	.LVL48:
 567              	.L61:
 568              	.LBB14:
 111:src/sensorcoms.c ****         sprintf(t, "side %d:", s->side);
 569              		.loc 1 111 9 is_stmt 1 view .LVU130
 112:src/sensorcoms.c ****         consoleLog(t);
 570              		.loc 1 112 9 view .LVU131
 571 0082 D4F83E20 		ldr	r2, [r4, #62]	@ unaligned
 572 0086 2B49     		ldr	r1, .L66
 573 0088 01A8     		add	r0, sp, #4
 574              	.LVL49:
 112:src/sensorcoms.c ****         consoleLog(t);
 575              		.loc 1 112 9 is_stmt 0 view .LVU132
 576 008a FFF7FEFF 		bl	sprintf
 577              	.LVL50:
 113:src/sensorcoms.c ****         consoleLog("sensor data not 55 or AA\r\n");
 578              		.loc 1 113 9 is_stmt 1 view .LVU133
 579 008e 01A8     		add	r0, sp, #4
 580 0090 FFF7FEFF 		bl	consoleLog
 581              	.LVL51:
 114:src/sensorcoms.c ****         for (int i = 0; i < s->bytecount; i++) {
 582              		.loc 1 114 9 view .LVU134
 583 0094 2848     		ldr	r0, .L66+4
 584 0096 FFF7FEFF 		bl	consoleLog
 585              	.LVL52:
 115:src/sensorcoms.c ****             sprintf(t, "%2.2X ", s->buffer[i]);
 586              		.loc 1 115 9 view .LVU135
 587              	.LBB15:
 115:src/sensorcoms.c ****             sprintf(t, "%2.2X ", s->buffer[i]);
 588              		.loc 1 115 14 view .LVU136
 115:src/sensorcoms.c ****             sprintf(t, "%2.2X ", s->buffer[i]);
 589              		.loc 1 115 18 is_stmt 0 view .LVU137
 590 009a 0025     		movs	r5, #0
 591              	.LVL53:
 592              	.L49:
 115:src/sensorcoms.c ****             sprintf(t, "%2.2X ", s->buffer[i]);
 593              		.loc 1 115 27 is_stmt 1 discriminator 1 view .LVU138
 115:src/sensorcoms.c ****             sprintf(t, "%2.2X ", s->buffer[i]);
 594              		.loc 1 115 30 is_stmt 0 discriminator 1 view .LVU139
ARM GAS  /tmp/ccMro7q3.s 			page 15


 595 009c 6369     		ldr	r3, [r4, #20]	@ unaligned
 115:src/sensorcoms.c ****             sprintf(t, "%2.2X ", s->buffer[i]);
 596              		.loc 1 115 27 discriminator 1 view .LVU140
 597 009e AB42     		cmp	r3, r5
 598 00a0 09DD     		ble	.L65
 116:src/sensorcoms.c ****             consoleLog(t);
 599              		.loc 1 116 13 is_stmt 1 view .LVU141
 600 00a2 625D     		ldrb	r2, [r4, r5]	@ zero_extendqisi2
 601 00a4 2549     		ldr	r1, .L66+8
 602 00a6 01A8     		add	r0, sp, #4
 603 00a8 FFF7FEFF 		bl	sprintf
 604              	.LVL54:
 117:src/sensorcoms.c ****         }
 605              		.loc 1 117 13 view .LVU142
 606 00ac 01A8     		add	r0, sp, #4
 607 00ae FFF7FEFF 		bl	consoleLog
 608              	.LVL55:
 115:src/sensorcoms.c ****             sprintf(t, "%2.2X ", s->buffer[i]);
 609              		.loc 1 115 44 discriminator 3 view .LVU143
 610 00b2 0135     		adds	r5, r5, #1
 611              	.LVL56:
 115:src/sensorcoms.c ****             sprintf(t, "%2.2X ", s->buffer[i]);
 612              		.loc 1 115 44 is_stmt 0 discriminator 3 view .LVU144
 613 00b4 F2E7     		b	.L49
 614              	.L65:
 115:src/sensorcoms.c ****             sprintf(t, "%2.2X ", s->buffer[i]);
 615              		.loc 1 115 44 discriminator 3 view .LVU145
 616              	.LBE15:
 119:src/sensorcoms.c ****         copy = 0;
 617              		.loc 1 119 9 is_stmt 1 view .LVU146
 618 00b6 2248     		ldr	r0, .L66+12
 619 00b8 FFF7FEFF 		bl	consoleLog
 620              	.LVL57:
 120:src/sensorcoms.c ****     }
 621              		.loc 1 120 9 view .LVU147
 120:src/sensorcoms.c ****     }
 622              		.loc 1 120 9 is_stmt 0 view .LVU148
 623              	.LBE14:
 123:src/sensorcoms.c ****         char t[50];
 624              		.loc 1 123 5 is_stmt 1 view .LVU149
 135:src/sensorcoms.c ****         char t[50];
 625              		.loc 1 135 5 view .LVU150
 626 00bc 17E0     		b	.L51
 627              	.LVL58:
 628              	.L62:
 629              	.LBB16:
 124:src/sensorcoms.c ****         sprintf(t, "angle mismatch %d != %d:\r\n", f->Angle, f->Angle_duplicate);
 630              		.loc 1 124 9 view .LVU151
 125:src/sensorcoms.c ****         consoleLog(t);
 631              		.loc 1 125 9 view .LVU152
 632 00be 2149     		ldr	r1, .L66+16
 633 00c0 01A8     		add	r0, sp, #4
 634              	.LVL59:
 125:src/sensorcoms.c ****         consoleLog(t);
 635              		.loc 1 125 9 is_stmt 0 view .LVU153
 636 00c2 FFF7FEFF 		bl	sprintf
 637              	.LVL60:
ARM GAS  /tmp/ccMro7q3.s 			page 16


 126:src/sensorcoms.c ****         for (int i = 0; i < s->bytecount; i++) {
 638              		.loc 1 126 9 is_stmt 1 view .LVU154
 639 00c6 01A8     		add	r0, sp, #4
 640 00c8 FFF7FEFF 		bl	consoleLog
 641              	.LVL61:
 127:src/sensorcoms.c ****             sprintf(t, "%2.2X ", s->buffer[i]);
 642              		.loc 1 127 9 view .LVU155
 643              	.LBB17:
 127:src/sensorcoms.c ****             sprintf(t, "%2.2X ", s->buffer[i]);
 644              		.loc 1 127 14 view .LVU156
 127:src/sensorcoms.c ****             sprintf(t, "%2.2X ", s->buffer[i]);
 645              		.loc 1 127 18 is_stmt 0 view .LVU157
 646 00cc 0025     		movs	r5, #0
 647              	.LVL62:
 127:src/sensorcoms.c ****             sprintf(t, "%2.2X ", s->buffer[i]);
 648              		.loc 1 127 9 view .LVU158
 649 00ce 08E0     		b	.L53
 650              	.LVL63:
 651              	.L54:
 128:src/sensorcoms.c ****             consoleLog(t);
 652              		.loc 1 128 13 is_stmt 1 view .LVU159
 653 00d0 625D     		ldrb	r2, [r4, r5]	@ zero_extendqisi2
 654 00d2 1A49     		ldr	r1, .L66+8
 655 00d4 01A8     		add	r0, sp, #4
 656 00d6 FFF7FEFF 		bl	sprintf
 657              	.LVL64:
 129:src/sensorcoms.c ****         }
 658              		.loc 1 129 13 view .LVU160
 659 00da 01A8     		add	r0, sp, #4
 660 00dc FFF7FEFF 		bl	consoleLog
 661              	.LVL65:
 127:src/sensorcoms.c ****             sprintf(t, "%2.2X ", s->buffer[i]);
 662              		.loc 1 127 44 discriminator 3 view .LVU161
 663 00e0 0135     		adds	r5, r5, #1
 664              	.LVL66:
 665              	.L53:
 127:src/sensorcoms.c ****             sprintf(t, "%2.2X ", s->buffer[i]);
 666              		.loc 1 127 27 discriminator 1 view .LVU162
 127:src/sensorcoms.c ****             sprintf(t, "%2.2X ", s->buffer[i]);
 667              		.loc 1 127 30 is_stmt 0 discriminator 1 view .LVU163
 668 00e2 6369     		ldr	r3, [r4, #20]	@ unaligned
 127:src/sensorcoms.c ****             sprintf(t, "%2.2X ", s->buffer[i]);
 669              		.loc 1 127 27 discriminator 1 view .LVU164
 670 00e4 AB42     		cmp	r3, r5
 671 00e6 F3DC     		bgt	.L54
 672              	.LBE17:
 131:src/sensorcoms.c ****         copy = 0;
 673              		.loc 1 131 9 is_stmt 1 view .LVU165
 674 00e8 1548     		ldr	r0, .L66+12
 675 00ea FFF7FEFF 		bl	consoleLog
 676              	.LVL67:
 132:src/sensorcoms.c ****     }
 677              		.loc 1 132 9 view .LVU166
 132:src/sensorcoms.c ****     }
 678              		.loc 1 132 9 is_stmt 0 view .LVU167
 679              	.LBE16:
 135:src/sensorcoms.c ****         char t[50];
ARM GAS  /tmp/ccMro7q3.s 			page 17


 680              		.loc 1 135 5 is_stmt 1 view .LVU168
 681              	.L51:
 152:src/sensorcoms.c ****             }
 153:src/sensorcoms.c ****         } else {
 154:src/sensorcoms.c ****             s->rollhigh = 5;
 155:src/sensorcoms.c ****         }
 156:src/sensorcoms.c ****     }
 157:src/sensorcoms.c ****     s->framecopied = 1;
 682              		.loc 1 157 5 view .LVU169
 683              		.loc 1 157 20 is_stmt 0 view .LVU170
 684 00ee 0023     		movs	r3, #0
 685 00f0 0122     		movs	r2, #1
 686 00f2 2276     		strb	r2, [r4, #24]
 687 00f4 6376     		strb	r3, [r4, #25]
 688 00f6 A376     		strb	r3, [r4, #26]
 689 00f8 E376     		strb	r3, [r4, #27]
 158:src/sensorcoms.c **** }
 690              		.loc 1 158 1 view .LVU171
 691 00fa 0FB0     		add	sp, sp, #60
 692              	.LCFI9:
 693              		.cfi_remember_state
 694              		.cfi_def_cfa_offset 12
 695              		@ sp needed
 696 00fc 30BD     		pop	{r4, r5, pc}
 697              	.LVL68:
 698              	.L63:
 699              	.LCFI10:
 700              		.cfi_restore_state
 701              	.LBB18:
 136:src/sensorcoms.c ****         sprintf(t, "angle change > 200 %d -> %d:\r\n", s->last_angle, f->Angle);
 702              		.loc 1 136 9 is_stmt 1 view .LVU172
 137:src/sensorcoms.c ****         consoleLog(t);
 703              		.loc 1 137 9 view .LVU173
 704 00fe 1346     		mov	r3, r2
 705 0100 0A46     		mov	r2, r1
 706 0102 1149     		ldr	r1, .L66+20
 707 0104 01A8     		add	r0, sp, #4
 708              	.LVL69:
 137:src/sensorcoms.c ****         consoleLog(t);
 709              		.loc 1 137 9 is_stmt 0 view .LVU174
 710 0106 FFF7FEFF 		bl	sprintf
 711              	.LVL70:
 138:src/sensorcoms.c ****     }
 712              		.loc 1 138 9 is_stmt 1 view .LVU175
 713 010a 01A8     		add	r0, sp, #4
 714 010c FFF7FEFF 		bl	consoleLog
 715              	.LVL71:
 716 0110 90E7     		b	.L55
 717              	.L64:
 138:src/sensorcoms.c ****     }
 718              		.loc 1 138 9 is_stmt 0 view .LVU176
 719              	.LBE18:
 143:src/sensorcoms.c ****         }
 720              		.loc 1 143 13 is_stmt 1 view .LVU177
 721 0112 0022     		movs	r2, #0
 722 0114 E261     		str	r2, [r4, #28]	@ unaligned
 723 0116 2262     		str	r2, [r4, #32]	@ unaligned
ARM GAS  /tmp/ccMro7q3.s 			page 18


 724 0118 A284     		strh	r2, [r4, #36]	@ unaligned
 725 011a 8DE7     		b	.L56
 726              	.L58:
 154:src/sensorcoms.c ****         }
 727              		.loc 1 154 13 view .LVU178
 154:src/sensorcoms.c ****         }
 728              		.loc 1 154 25 is_stmt 0 view .LVU179
 729 011c 0023     		movs	r3, #0
 730 011e 0522     		movs	r2, #5
 731 0120 84F84620 		strb	r2, [r4, #70]
 732 0124 84F84730 		strb	r3, [r4, #71]
 733 0128 84F84830 		strb	r3, [r4, #72]
 734 012c 84F84930 		strb	r3, [r4, #73]
 735 0130 DDE7     		b	.L51
 736              	.L67:
 737 0132 00BF     		.align	2
 738              	.L66:
 739 0134 00000000 		.word	.LC0
 740 0138 0C000000 		.word	.LC1
 741 013c 28000000 		.word	.LC2
 742 0140 30000000 		.word	.LC3
 743 0144 34000000 		.word	.LC4
 744 0148 50000000 		.word	.LC5
 745              		.cfi_endproc
 746              	.LFE73:
 748              		.section	.rodata.sensor_read_data.str1.4,"aMS",%progbits,1
 749              		.align	2
 750              	.LC6:
 751 0000 53656E73 		.ascii	"Sensor RX received\015\012\000"
 751      6F722052 
 751      58207265 
 751      63656976 
 751      65640D0A 
 752 0015 000000   		.align	2
 753              	.LC7:
 754 0018 53746570 		.ascii	"Stepped On\015\012\000"
 754      70656420 
 754      4F6E0D0A 
 754      00
 755 0025 000000   		.align	2
 756              	.LC8:
 757 0028 53746570 		.ascii	"Stepped Off\015\012\000"
 757      70656420 
 757      4F66660D 
 757      0A00
 758 0036 0000     		.align	2
 759              	.LC9:
 760 0038 53656E73 		.ascii	"Sensor RX timeout\015\012\000"
 760      6F722052 
 760      58207469 
 760      6D656F75 
 760      740D0A00 
 761              		.align	2
 762              	.LC10:
 763 004c 53656E73 		.ascii	"SensorOK -> 0 in unprocessed poll\015\012\000"
 763      6F724F4B 
 763      202D3E20 
ARM GAS  /tmp/ccMro7q3.s 			page 19


 763      3020696E 
 763      20756E70 
 764              		.section	.text.sensor_read_data,"ax",%progbits
 765              		.align	1
 766              		.global	sensor_read_data
 767              		.syntax unified
 768              		.thumb
 769              		.thumb_func
 771              	sensor_read_data:
 772              	.LFB74:
 159:src/sensorcoms.c **** 
 160:src/sensorcoms.c **** 
 161:src/sensorcoms.c **** void sensor_read_data(){
 773              		.loc 1 161 24 is_stmt 1 view -0
 774              		.cfi_startproc
 775              		@ args = 0, pretend = 0, frame = 0
 776              		@ frame_needed = 0, uses_anonymous_args = 0
 777 0000 2DE9F047 		push	{r4, r5, r6, r7, r8, r9, r10, lr}
 778              	.LCFI11:
 779              		.cfi_def_cfa_offset 32
 780              		.cfi_offset 4, -32
 781              		.cfi_offset 5, -28
 782              		.cfi_offset 6, -24
 783              		.cfi_offset 7, -20
 784              		.cfi_offset 8, -16
 785              		.cfi_offset 9, -12
 786              		.cfi_offset 10, -8
 787              		.cfi_offset 14, -4
 162:src/sensorcoms.c ****     // read the last sensor message in the buffer
 163:src/sensorcoms.c ****     unsigned int time_ms = HAL_GetTick();
 788              		.loc 1 163 5 view .LVU181
 789              		.loc 1 163 28 is_stmt 0 view .LVU182
 790 0004 FFF7FEFF 		bl	HAL_GetTick
 791              	.LVL72:
 792 0008 8146     		mov	r9, r0
 793              	.LVL73:
 164:src/sensorcoms.c **** 
 165:src/sensorcoms.c ****     // 2019-05-22 - rework based on assumption that 0x1xx
 166:src/sensorcoms.c ****     // represents the START of the data, not the end.
 167:src/sensorcoms.c ****     // so when we get 0x1xx, we then read bytes until we have enough, then prcoess.
 168:src/sensorcoms.c ****     for (int side = 0; side < 2; side++){
 794              		.loc 1 168 5 is_stmt 1 view .LVU183
 795              	.LBB19:
 796              		.loc 1 168 10 view .LVU184
 797              		.loc 1 168 14 is_stmt 0 view .LVU185
 798 000a 0024     		movs	r4, #0
 799              		.loc 1 168 5 view .LVU186
 800 000c 86E0     		b	.L69
 801              	.LVL74:
 802              	.L72:
 803              	.LBB20:
 804              	.LBB21:
 169:src/sensorcoms.c ****         // flush data up to last 20 bytes
 170:src/sensorcoms.c ****         int process = 0;
 171:src/sensorcoms.c ****         SENSOR_DATA *s = &sensor_data[side];
 172:src/sensorcoms.c ****         unsigned char orgsw = s->complete.AA_55;
 173:src/sensorcoms.c ****         int remaining = USART_sensor_rxcount(side);
ARM GAS  /tmp/ccMro7q3.s 			page 20


 174:src/sensorcoms.c ****         unsigned char *dest = s->buffer;
 175:src/sensorcoms.c ****         while (remaining > 0) {
 176:src/sensorcoms.c ****             short c;
 177:src/sensorcoms.c ****             c = USART_sensor_getrx(side);
 178:src/sensorcoms.c ****             if (c & 0x100) {
 179:src/sensorcoms.c ****                 if ((s->bytecount >= MIN_SENSOR_WORDS) && !s->framecopied){
 180:src/sensorcoms.c ****                     sensor_copy_buffer(s);
 181:src/sensorcoms.c ****                     if (s->framecopied)
 182:src/sensorcoms.c ****                         process++;
 183:src/sensorcoms.c ****                 }
 184:src/sensorcoms.c ****                 // note how many words were in a frame
 185:src/sensorcoms.c ****                 s->last_sensor_words = s->bytecount;
 805              		.loc 1 185 17 is_stmt 1 view .LVU187
 806              		.loc 1 185 41 is_stmt 0 view .LVU188
 807 000e AB4A     		ldr	r2, .L96
 808 0010 4A23     		movs	r3, #74
 809 0012 03FB0422 		mla	r2, r3, r4, r2
 810 0016 5369     		ldr	r3, [r2, #20]	@ unaligned
 811              		.loc 1 185 38 view .LVU189
 812 0018 C2F83A30 		str	r3, [r2, #58]	@ unaligned
 186:src/sensorcoms.c ****                 s->bytecount = 0;
 813              		.loc 1 186 17 is_stmt 1 view .LVU190
 814              		.loc 1 186 30 is_stmt 0 view .LVU191
 815 001c 0023     		movs	r3, #0
 816 001e 1375     		strb	r3, [r2, #20]
 817 0020 5375     		strb	r3, [r2, #21]
 818 0022 9375     		strb	r3, [r2, #22]
 819 0024 D375     		strb	r3, [r2, #23]
 187:src/sensorcoms.c ****                 memset(s->buffer, 0, sizeof(s->buffer));
 820              		.loc 1 187 17 is_stmt 1 view .LVU192
 821 0026 3360     		str	r3, [r6]	@ unaligned
 822 0028 7360     		str	r3, [r6, #4]	@ unaligned
 823 002a B360     		str	r3, [r6, #8]	@ unaligned
 824 002c F360     		str	r3, [r6, #12]	@ unaligned
 825 002e 3361     		str	r3, [r6, #16]	@ unaligned
 188:src/sensorcoms.c ****                 s->framecopied = 0;
 826              		.loc 1 188 17 view .LVU193
 827              		.loc 1 188 32 is_stmt 0 view .LVU194
 828 0030 1376     		strb	r3, [r2, #24]
 829 0032 5376     		strb	r3, [r2, #25]
 830 0034 9376     		strb	r3, [r2, #26]
 831 0036 D376     		strb	r3, [r2, #27]
 832              	.L71:
 189:src/sensorcoms.c ****             }
 190:src/sensorcoms.c **** 
 191:src/sensorcoms.c ****             if ((s->bytecount >= 0) && (s->bytecount < MAX_SENSOR_WORDS)) {
 833              		.loc 1 191 13 is_stmt 1 view .LVU195
 834              		.loc 1 191 19 is_stmt 0 view .LVU196
 835 0038 A04B     		ldr	r3, .L96
 836 003a 4A22     		movs	r2, #74
 837 003c 02FB0433 		mla	r3, r2, r4, r3
 838 0040 5B69     		ldr	r3, [r3, #20]	@ unaligned
 839              		.loc 1 191 16 view .LVU197
 840 0042 132B     		cmp	r3, #19
 841 0044 06D8     		bhi	.L73
 192:src/sensorcoms.c ****                 dest[s->bytecount] = (c & 0xff);
 842              		.loc 1 192 17 is_stmt 1 view .LVU198
ARM GAS  /tmp/ccMro7q3.s 			page 21


 843              		.loc 1 192 36 is_stmt 0 view .LVU199
 844 0046 F554     		strb	r5, [r6, r3]
 193:src/sensorcoms.c ****                 s->bytecount ++;
 845              		.loc 1 193 17 is_stmt 1 view .LVU200
 846              		.loc 1 193 18 is_stmt 0 view .LVU201
 847 0048 9C4B     		ldr	r3, .L96
 848 004a 02FB0433 		mla	r3, r2, r4, r3
 849 004e 5A69     		ldr	r2, [r3, #20]	@ unaligned
 850              		.loc 1 193 30 view .LVU202
 851 0050 0132     		adds	r2, r2, #1
 852 0052 5A61     		str	r2, [r3, #20]	@ unaligned
 853              	.L73:
 194:src/sensorcoms.c ****             }
 195:src/sensorcoms.c **** 
 196:src/sensorcoms.c ****             // do an early read if we know how many words
 197:src/sensorcoms.c ****             // we want - set in config.h
 198:src/sensorcoms.c ****             // else it will wait for 0x1xx
 199:src/sensorcoms.c ****             if ((s->bytecount >= SENSOR_WORDS) && (!s->framecopied)) {
 854              		.loc 1 199 13 is_stmt 1 view .LVU203
 855              		.loc 1 199 19 is_stmt 0 view .LVU204
 856 0054 994B     		ldr	r3, .L96
 857 0056 4A22     		movs	r2, #74
 858 0058 02FB0433 		mla	r3, r2, r4, r3
 859 005c 5B69     		ldr	r3, [r3, #20]	@ unaligned
 860              		.loc 1 199 16 view .LVU205
 861 005e 092B     		cmp	r3, #9
 862 0060 04DD     		ble	.L74
 863              		.loc 1 199 54 discriminator 1 view .LVU206
 864 0062 964B     		ldr	r3, .L96
 865 0064 02FB0433 		mla	r3, r2, r4, r3
 866 0068 9B69     		ldr	r3, [r3, #24]	@ unaligned
 867              		.loc 1 199 48 discriminator 1 view .LVU207
 868 006a 1BB3     		cbz	r3, .L88
 869              	.L74:
 200:src/sensorcoms.c ****                 sensor_copy_buffer(s);
 201:src/sensorcoms.c ****                 // stop extra bytes coming in
 202:src/sensorcoms.c ****                 if (s->framecopied)
 203:src/sensorcoms.c ****                     process++;
 204:src/sensorcoms.c ****             }
 205:src/sensorcoms.c ****             remaining--;
 870              		.loc 1 205 13 is_stmt 1 view .LVU208
 871              		.loc 1 205 22 is_stmt 0 view .LVU209
 872 006c 013F     		subs	r7, r7, #1
 873              	.LVL75:
 874              	.L70:
 875              		.loc 1 205 22 view .LVU210
 876              	.LBE21:
 175:src/sensorcoms.c ****             short c;
 877              		.loc 1 175 26 is_stmt 1 view .LVU211
 878 006e 002F     		cmp	r7, #0
 879 0070 2DDD     		ble	.L89
 880              	.LBB22:
 176:src/sensorcoms.c ****             c = USART_sensor_getrx(side);
 881              		.loc 1 176 13 view .LVU212
 177:src/sensorcoms.c ****             if (c & 0x100) {
 882              		.loc 1 177 13 view .LVU213
 177:src/sensorcoms.c ****             if (c & 0x100) {
ARM GAS  /tmp/ccMro7q3.s 			page 22


 883              		.loc 1 177 17 is_stmt 0 view .LVU214
 884 0072 2046     		mov	r0, r4
 885 0074 FFF7FEFF 		bl	USART_sensor_getrx
 886              	.LVL76:
 887 0078 0546     		mov	r5, r0
 888              	.LVL77:
 178:src/sensorcoms.c ****                 if ((s->bytecount >= MIN_SENSOR_WORDS) && !s->framecopied){
 889              		.loc 1 178 13 is_stmt 1 view .LVU215
 178:src/sensorcoms.c ****                 if ((s->bytecount >= MIN_SENSOR_WORDS) && !s->framecopied){
 890              		.loc 1 178 16 is_stmt 0 view .LVU216
 891 007a 10F4807F 		tst	r0, #256
 892 007e DBD0     		beq	.L71
 179:src/sensorcoms.c ****                     sensor_copy_buffer(s);
 893              		.loc 1 179 17 is_stmt 1 view .LVU217
 179:src/sensorcoms.c ****                     sensor_copy_buffer(s);
 894              		.loc 1 179 23 is_stmt 0 view .LVU218
 895 0080 8E4B     		ldr	r3, .L96
 896 0082 4A22     		movs	r2, #74
 897 0084 02FB0433 		mla	r3, r2, r4, r3
 898 0088 5B69     		ldr	r3, [r3, #20]	@ unaligned
 179:src/sensorcoms.c ****                     sensor_copy_buffer(s);
 899              		.loc 1 179 20 view .LVU219
 900 008a 052B     		cmp	r3, #5
 901 008c BFDD     		ble	.L72
 179:src/sensorcoms.c ****                     sensor_copy_buffer(s);
 902              		.loc 1 179 61 discriminator 1 view .LVU220
 903 008e 8B4B     		ldr	r3, .L96
 904 0090 02FB0433 		mla	r3, r2, r4, r3
 905 0094 9B69     		ldr	r3, [r3, #24]	@ unaligned
 179:src/sensorcoms.c ****                     sensor_copy_buffer(s);
 906              		.loc 1 179 56 discriminator 1 view .LVU221
 907 0096 002B     		cmp	r3, #0
 908 0098 B9D1     		bne	.L72
 180:src/sensorcoms.c ****                     if (s->framecopied)
 909              		.loc 1 180 21 is_stmt 1 view .LVU222
 910 009a 3046     		mov	r0, r6
 911              	.LVL78:
 180:src/sensorcoms.c ****                     if (s->framecopied)
 912              		.loc 1 180 21 is_stmt 0 view .LVU223
 913 009c FFF7FEFF 		bl	sensor_copy_buffer
 914              	.LVL79:
 181:src/sensorcoms.c ****                         process++;
 915              		.loc 1 181 21 is_stmt 1 view .LVU224
 181:src/sensorcoms.c ****                         process++;
 916              		.loc 1 181 26 is_stmt 0 view .LVU225
 917 00a0 864B     		ldr	r3, .L96
 918 00a2 4A22     		movs	r2, #74
 919 00a4 02FB0433 		mla	r3, r2, r4, r3
 920 00a8 9B69     		ldr	r3, [r3, #24]	@ unaligned
 181:src/sensorcoms.c ****                         process++;
 921              		.loc 1 181 24 view .LVU226
 922 00aa 002B     		cmp	r3, #0
 923 00ac AFD0     		beq	.L72
 182:src/sensorcoms.c ****                 }
 924              		.loc 1 182 25 is_stmt 1 view .LVU227
 182:src/sensorcoms.c ****                 }
 925              		.loc 1 182 32 is_stmt 0 view .LVU228
ARM GAS  /tmp/ccMro7q3.s 			page 23


 926 00ae 08F10108 		add	r8, r8, #1
 927              	.LVL80:
 182:src/sensorcoms.c ****                 }
 928              		.loc 1 182 32 view .LVU229
 929 00b2 ACE7     		b	.L72
 930              	.L88:
 200:src/sensorcoms.c ****                 // stop extra bytes coming in
 931              		.loc 1 200 17 is_stmt 1 view .LVU230
 932 00b4 3046     		mov	r0, r6
 933 00b6 FFF7FEFF 		bl	sensor_copy_buffer
 934              	.LVL81:
 202:src/sensorcoms.c ****                     process++;
 935              		.loc 1 202 17 view .LVU231
 202:src/sensorcoms.c ****                     process++;
 936              		.loc 1 202 22 is_stmt 0 view .LVU232
 937 00ba 804B     		ldr	r3, .L96
 938 00bc 4A22     		movs	r2, #74
 939 00be 02FB0433 		mla	r3, r2, r4, r3
 940 00c2 9B69     		ldr	r3, [r3, #24]	@ unaligned
 202:src/sensorcoms.c ****                     process++;
 941              		.loc 1 202 20 view .LVU233
 942 00c4 002B     		cmp	r3, #0
 943 00c6 D1D0     		beq	.L74
 203:src/sensorcoms.c ****             }
 944              		.loc 1 203 21 is_stmt 1 view .LVU234
 203:src/sensorcoms.c ****             }
 945              		.loc 1 203 28 is_stmt 0 view .LVU235
 946 00c8 08F10108 		add	r8, r8, #1
 947              	.LVL82:
 203:src/sensorcoms.c ****             }
 948              		.loc 1 203 28 view .LVU236
 949 00cc CEE7     		b	.L74
 950              	.LVL83:
 951              	.L89:
 203:src/sensorcoms.c ****             }
 952              		.loc 1 203 28 view .LVU237
 953              	.LBE22:
 206:src/sensorcoms.c ****         };
 954              		.loc 1 206 10 is_stmt 1 view .LVU238
 207:src/sensorcoms.c **** 
 208:src/sensorcoms.c ****         // we may have read more than one message here (process>1)
 209:src/sensorcoms.c ****         if (process) {
 955              		.loc 1 209 9 view .LVU239
 956              		.loc 1 209 12 is_stmt 0 view .LVU240
 957 00ce B8F1000F 		cmp	r8, #0
 958 00d2 00F0C580 		beq	.L76
 210:src/sensorcoms.c ****             if (s->read_timeout == 0) {
 959              		.loc 1 210 13 is_stmt 1 view .LVU241
 960              		.loc 1 210 18 is_stmt 0 view .LVU242
 961 00d6 794B     		ldr	r3, .L96
 962 00d8 4A22     		movs	r2, #74
 963 00da 02FB0433 		mla	r3, r2, r4, r3
 964 00de D3F82A30 		ldr	r3, [r3, #42]	@ unaligned
 965              		.loc 1 210 16 view .LVU243
 966 00e2 5BB3     		cbz	r3, .L90
 967              	.L77:
 211:src/sensorcoms.c ****                 consoleLog("Sensor RX received\r\n");
ARM GAS  /tmp/ccMro7q3.s 			page 24


 212:src/sensorcoms.c ****             }
 213:src/sensorcoms.c ****             s->read_timeout = 10;
 968              		.loc 1 213 13 is_stmt 1 view .LVU244
 969              		.loc 1 213 29 is_stmt 0 view .LVU245
 970 00e4 754B     		ldr	r3, .L96
 971 00e6 4A22     		movs	r2, #74
 972 00e8 02FB0433 		mla	r3, r2, r4, r3
 973 00ec 0021     		movs	r1, #0
 974 00ee 0A20     		movs	r0, #10
 975 00f0 83F82A00 		strb	r0, [r3, #42]
 976 00f4 83F82B10 		strb	r1, [r3, #43]
 977 00f8 83F82C10 		strb	r1, [r3, #44]
 978 00fc 83F82D10 		strb	r1, [r3, #45]
 214:src/sensorcoms.c **** 
 215:src/sensorcoms.c ****             // if we just stepped on
 216:src/sensorcoms.c ****             if (s->complete.AA_55 == 0x55) {
 979              		.loc 1 216 13 is_stmt 1 view .LVU246
 980              		.loc 1 216 28 is_stmt 0 view .LVU247
 981 0100 93F82130 		ldrb	r3, [r3, #33]	@ zero_extendqisi2
 982              		.loc 1 216 16 view .LVU248
 983 0104 552B     		cmp	r3, #85
 984 0106 1DD0     		beq	.L91
 985              	.L78:
 217:src/sensorcoms.c ****                 s->sensor_ok = 10;
 218:src/sensorcoms.c ****                 if (orgsw == 0xAA) {
 219:src/sensorcoms.c ****                     consoleLog("Stepped On\r\n");
 220:src/sensorcoms.c ****                     s->Center = s->complete.Angle;
 221:src/sensorcoms.c ****                     if (s->foottime_ms){
 222:src/sensorcoms.c ****                         int diff = time_ms - s->foottime_ms;
 223:src/sensorcoms.c ****                         if ((diff < 2000) && (diff > 250)){
 224:src/sensorcoms.c ****                             s->doubletap = 1;
 225:src/sensorcoms.c ****                         } else {
 226:src/sensorcoms.c ****                             s->doubletap = 0;
 227:src/sensorcoms.c ****                         }
 228:src/sensorcoms.c ****                     }
 229:src/sensorcoms.c ****                     s->foottime_ms = time_ms;
 230:src/sensorcoms.c ****                 } else if (s->Center !=  s->Center_calibration) {
 231:src/sensorcoms.c ****                     if ((s->Center > s->Center_calibration) && (s->complete.Angle < s->Center))
 232:src/sensorcoms.c ****                         s->Center = (s->Center_calibration > s->complete.Angle ? s->Center_calibrat
 233:src/sensorcoms.c **** 
 234:src/sensorcoms.c ****                     if ((s->Center < s->Center_calibration) && (s->complete.Angle > s->Center))
 235:src/sensorcoms.c ****                         s->Center = (s->Center_calibration < s->complete.Angle ? s->Center_calibrat
 236:src/sensorcoms.c ****                 }
 237:src/sensorcoms.c ****             }
 238:src/sensorcoms.c ****             if (s->complete.AA_55 == 0xAA){
 986              		.loc 1 238 13 is_stmt 1 view .LVU249
 987              		.loc 1 238 28 is_stmt 0 view .LVU250
 988 0108 6C4B     		ldr	r3, .L96
 989 010a 4A22     		movs	r2, #74
 990 010c 02FB0433 		mla	r3, r2, r4, r3
 991 0110 93F82130 		ldrb	r3, [r3, #33]	@ zero_extendqisi2
 992              		.loc 1 238 16 view .LVU251
 993 0114 AA2B     		cmp	r3, #170
 994 0116 00F08D80 		beq	.L92
 995              	.L83:
 996              		.loc 1 238 16 view .LVU252
 997              	.LBE20:
ARM GAS  /tmp/ccMro7q3.s 			page 25


 168:src/sensorcoms.c ****         // flush data up to last 20 bytes
 998              		.loc 1 168 38 is_stmt 1 discriminator 2 view .LVU253
 999 011a 0134     		adds	r4, r4, #1
 1000              	.LVL84:
 1001              	.L69:
 168:src/sensorcoms.c ****         // flush data up to last 20 bytes
 1002              		.loc 1 168 29 discriminator 1 view .LVU254
 1003 011c 012C     		cmp	r4, #1
 1004 011e 00F3CA80 		bgt	.L93
 1005              	.LBB31:
 170:src/sensorcoms.c ****         SENSOR_DATA *s = &sensor_data[side];
 1006              		.loc 1 170 9 view .LVU255
 1007              	.LVL85:
 171:src/sensorcoms.c ****         unsigned char orgsw = s->complete.AA_55;
 1008              		.loc 1 171 9 view .LVU256
 171:src/sensorcoms.c ****         unsigned char orgsw = s->complete.AA_55;
 1009              		.loc 1 171 22 is_stmt 0 view .LVU257
 1010 0122 4A23     		movs	r3, #74
 1011 0124 654E     		ldr	r6, .L96
 1012 0126 03FB0466 		mla	r6, r3, r4, r6
 1013              	.LVL86:
 172:src/sensorcoms.c ****         int remaining = USART_sensor_rxcount(side);
 1014              		.loc 1 172 9 is_stmt 1 view .LVU258
 172:src/sensorcoms.c ****         int remaining = USART_sensor_rxcount(side);
 1015              		.loc 1 172 23 is_stmt 0 view .LVU259
 1016 012a 96F821A0 		ldrb	r10, [r6, #33]	@ zero_extendqisi2
 1017              	.LVL87:
 173:src/sensorcoms.c ****         unsigned char *dest = s->buffer;
 1018              		.loc 1 173 9 is_stmt 1 view .LVU260
 173:src/sensorcoms.c ****         unsigned char *dest = s->buffer;
 1019              		.loc 1 173 25 is_stmt 0 view .LVU261
 1020 012e 2046     		mov	r0, r4
 1021 0130 FFF7FEFF 		bl	USART_sensor_rxcount
 1022              	.LVL88:
 1023 0134 0746     		mov	r7, r0
 1024              	.LVL89:
 174:src/sensorcoms.c ****         while (remaining > 0) {
 1025              		.loc 1 174 9 is_stmt 1 view .LVU262
 175:src/sensorcoms.c ****             short c;
 1026              		.loc 1 175 9 view .LVU263
 170:src/sensorcoms.c ****         SENSOR_DATA *s = &sensor_data[side];
 1027              		.loc 1 170 13 is_stmt 0 view .LVU264
 1028 0136 4FF00008 		mov	r8, #0
 175:src/sensorcoms.c ****             short c;
 1029              		.loc 1 175 15 view .LVU265
 1030 013a 98E7     		b	.L70
 1031              	.LVL90:
 1032              	.L90:
 1033              	.LBB23:
 211:src/sensorcoms.c ****             }
 1034              		.loc 1 211 17 is_stmt 1 view .LVU266
 1035 013c 6048     		ldr	r0, .L96+4
 1036 013e FFF7FEFF 		bl	consoleLog
 1037              	.LVL91:
 1038 0142 CFE7     		b	.L77
 1039              	.L91:
 211:src/sensorcoms.c ****             }
ARM GAS  /tmp/ccMro7q3.s 			page 26


 1040              		.loc 1 211 17 is_stmt 0 view .LVU267
 1041              	.LBE23:
 217:src/sensorcoms.c ****                 if (orgsw == 0xAA) {
 1042              		.loc 1 217 17 is_stmt 1 view .LVU268
 217:src/sensorcoms.c ****                 if (orgsw == 0xAA) {
 1043              		.loc 1 217 30 is_stmt 0 view .LVU269
 1044 0144 5D4B     		ldr	r3, .L96
 1045 0146 4A22     		movs	r2, #74
 1046 0148 02FB0433 		mla	r3, r2, r4, r3
 1047 014c 83F82600 		strb	r0, [r3, #38]
 1048 0150 83F82710 		strb	r1, [r3, #39]
 1049 0154 83F82810 		strb	r1, [r3, #40]
 1050 0158 83F82910 		strb	r1, [r3, #41]
 218:src/sensorcoms.c ****                     consoleLog("Stepped On\r\n");
 1051              		.loc 1 218 17 is_stmt 1 view .LVU270
 218:src/sensorcoms.c ****                     consoleLog("Stepped On\r\n");
 1052              		.loc 1 218 20 is_stmt 0 view .LVU271
 1053 015c BAF1AA0F 		cmp	r10, #170
 1054 0160 31D0     		beq	.L94
 230:src/sensorcoms.c ****                     if ((s->Center > s->Center_calibration) && (s->complete.Angle < s->Center))
 1055              		.loc 1 230 24 is_stmt 1 view .LVU272
 230:src/sensorcoms.c ****                     if ((s->Center > s->Center_calibration) && (s->complete.Angle < s->Center))
 1056              		.loc 1 230 29 is_stmt 0 view .LVU273
 1057 0162 564B     		ldr	r3, .L96
 1058 0164 4A22     		movs	r2, #74
 1059 0166 02FB0433 		mla	r3, r2, r4, r3
 1060 016a B3F92E20 		ldrsh	r2, [r3, #46]	@ unaligned
 230:src/sensorcoms.c ****                     if ((s->Center > s->Center_calibration) && (s->complete.Angle < s->Center))
 1061              		.loc 1 230 43 view .LVU274
 1062 016e B3F93030 		ldrsh	r3, [r3, #48]	@ unaligned
 230:src/sensorcoms.c ****                     if ((s->Center > s->Center_calibration) && (s->complete.Angle < s->Center))
 1063              		.loc 1 230 27 view .LVU275
 1064 0172 9A42     		cmp	r2, r3
 1065 0174 C8D0     		beq	.L78
 231:src/sensorcoms.c ****                         s->Center = (s->Center_calibration > s->complete.Angle ? s->Center_calibrat
 1066              		.loc 1 231 21 is_stmt 1 view .LVU276
 231:src/sensorcoms.c ****                         s->Center = (s->Center_calibration > s->complete.Angle ? s->Center_calibrat
 1067              		.loc 1 231 24 is_stmt 0 view .LVU277
 1068 0176 0EDD     		ble	.L82
 231:src/sensorcoms.c ****                         s->Center = (s->Center_calibration > s->complete.Angle ? s->Center_calibrat
 1069              		.loc 1 231 76 discriminator 1 view .LVU278
 1070 0178 5049     		ldr	r1, .L96
 1071 017a 4A20     		movs	r0, #74
 1072 017c 00FB0411 		mla	r1, r0, r4, r1
 1073 0180 B1F91D10 		ldrsh	r1, [r1, #29]	@ unaligned
 231:src/sensorcoms.c ****                         s->Center = (s->Center_calibration > s->complete.Angle ? s->Center_calibrat
 1074              		.loc 1 231 61 discriminator 1 view .LVU279
 1075 0184 8A42     		cmp	r2, r1
 1076 0186 06DD     		ble	.L82
 232:src/sensorcoms.c **** 
 1077              		.loc 1 232 25 is_stmt 1 view .LVU280
 232:src/sensorcoms.c **** 
 1078              		.loc 1 232 104 is_stmt 0 view .LVU281
 1079 0188 9942     		cmp	r1, r3
 1080 018a B8BF     		it	lt
 1081 018c 1946     		movlt	r1, r3
 232:src/sensorcoms.c **** 
ARM GAS  /tmp/ccMro7q3.s 			page 27


 1082              		.loc 1 232 35 view .LVU282
 1083 018e 4B4A     		ldr	r2, .L96
 1084 0190 00FB0422 		mla	r2, r0, r4, r2
 1085 0194 D185     		strh	r1, [r2, #46]	@ unaligned
 1086              	.L82:
 234:src/sensorcoms.c ****                         s->Center = (s->Center_calibration < s->complete.Angle ? s->Center_calibrat
 1087              		.loc 1 234 21 is_stmt 1 view .LVU283
 234:src/sensorcoms.c ****                         s->Center = (s->Center_calibration < s->complete.Angle ? s->Center_calibrat
 1088              		.loc 1 234 27 is_stmt 0 view .LVU284
 1089 0196 494A     		ldr	r2, .L96
 1090 0198 4A21     		movs	r1, #74
 1091 019a 01FB0422 		mla	r2, r1, r4, r2
 1092 019e B2F92E20 		ldrsh	r2, [r2, #46]	@ unaligned
 234:src/sensorcoms.c ****                         s->Center = (s->Center_calibration < s->complete.Angle ? s->Center_calibrat
 1093              		.loc 1 234 24 view .LVU285
 1094 01a2 9342     		cmp	r3, r2
 1095 01a4 B0DD     		ble	.L78
 234:src/sensorcoms.c ****                         s->Center = (s->Center_calibration < s->complete.Angle ? s->Center_calibrat
 1096              		.loc 1 234 76 discriminator 1 view .LVU286
 1097 01a6 4549     		ldr	r1, .L96
 1098 01a8 4A20     		movs	r0, #74
 1099 01aa 00FB0411 		mla	r1, r0, r4, r1
 1100 01ae B1F91D10 		ldrsh	r1, [r1, #29]	@ unaligned
 234:src/sensorcoms.c ****                         s->Center = (s->Center_calibration < s->complete.Angle ? s->Center_calibrat
 1101              		.loc 1 234 61 discriminator 1 view .LVU287
 1102 01b2 8A42     		cmp	r2, r1
 1103 01b4 A8DA     		bge	.L78
 235:src/sensorcoms.c ****                 }
 1104              		.loc 1 235 25 is_stmt 1 view .LVU288
 235:src/sensorcoms.c ****                 }
 1105              		.loc 1 235 104 is_stmt 0 view .LVU289
 1106 01b6 8B42     		cmp	r3, r1
 1107 01b8 A8BF     		it	ge
 1108 01ba 0B46     		movge	r3, r1
 235:src/sensorcoms.c ****                 }
 1109              		.loc 1 235 35 view .LVU290
 1110 01bc 3F4A     		ldr	r2, .L96
 1111 01be 00FB0422 		mla	r2, r0, r4, r2
 1112 01c2 D385     		strh	r3, [r2, #46]	@ unaligned
 1113 01c4 A0E7     		b	.L78
 1114              	.L94:
 1115              	.LBB24:
 219:src/sensorcoms.c ****                     s->Center = s->complete.Angle;
 1116              		.loc 1 219 21 is_stmt 1 view .LVU291
 1117 01c6 3F48     		ldr	r0, .L96+8
 1118 01c8 FFF7FEFF 		bl	consoleLog
 1119              	.LVL92:
 220:src/sensorcoms.c ****                     if (s->foottime_ms){
 1120              		.loc 1 220 21 view .LVU292
 220:src/sensorcoms.c ****                     if (s->foottime_ms){
 1121              		.loc 1 220 44 is_stmt 0 view .LVU293
 1122 01cc 3B4B     		ldr	r3, .L96
 1123 01ce 4A22     		movs	r2, #74
 1124 01d0 02FB0433 		mla	r3, r2, r4, r3
 1125 01d4 B3F91D20 		ldrsh	r2, [r3, #29]	@ unaligned
 220:src/sensorcoms.c ****                     if (s->foottime_ms){
 1126              		.loc 1 220 31 view .LVU294
ARM GAS  /tmp/ccMro7q3.s 			page 28


 1127 01d8 DA85     		strh	r2, [r3, #46]	@ unaligned
 221:src/sensorcoms.c ****                         int diff = time_ms - s->foottime_ms;
 1128              		.loc 1 221 21 is_stmt 1 view .LVU295
 221:src/sensorcoms.c ****                         int diff = time_ms - s->foottime_ms;
 1129              		.loc 1 221 26 is_stmt 0 view .LVU296
 1130 01da D3F83230 		ldr	r3, [r3, #50]	@ unaligned
 221:src/sensorcoms.c ****                         int diff = time_ms - s->foottime_ms;
 1131              		.loc 1 221 24 view .LVU297
 1132 01de A3B1     		cbz	r3, .L80
 1133              	.LBB25:
 222:src/sensorcoms.c ****                         if ((diff < 2000) && (diff > 250)){
 1134              		.loc 1 222 25 is_stmt 1 view .LVU298
 222:src/sensorcoms.c ****                         if ((diff < 2000) && (diff > 250)){
 1135              		.loc 1 222 44 is_stmt 0 view .LVU299
 1136 01e0 A9EB0303 		sub	r3, r9, r3
 1137              	.LVL93:
 223:src/sensorcoms.c ****                             s->doubletap = 1;
 1138              		.loc 1 223 25 is_stmt 1 view .LVU300
 223:src/sensorcoms.c ****                             s->doubletap = 1;
 1139              		.loc 1 223 43 is_stmt 0 view .LVU301
 1140 01e4 FB3B     		subs	r3, r3, #251
 1141              	.LVL94:
 223:src/sensorcoms.c ****                             s->doubletap = 1;
 1142              		.loc 1 223 28 view .LVU302
 1143 01e6 40F2D462 		movw	r2, #1748
 1144 01ea 9342     		cmp	r3, r2
 1145 01ec 14D8     		bhi	.L81
 224:src/sensorcoms.c ****                         } else {
 1146              		.loc 1 224 29 is_stmt 1 view .LVU303
 224:src/sensorcoms.c ****                         } else {
 1147              		.loc 1 224 42 is_stmt 0 view .LVU304
 1148 01ee 334B     		ldr	r3, .L96
 1149              	.LVL95:
 224:src/sensorcoms.c ****                         } else {
 1150              		.loc 1 224 42 view .LVU305
 1151 01f0 4A22     		movs	r2, #74
 1152              	.LVL96:
 224:src/sensorcoms.c ****                         } else {
 1153              		.loc 1 224 42 view .LVU306
 1154 01f2 02FB0433 		mla	r3, r2, r4, r3
 1155              	.LVL97:
 224:src/sensorcoms.c ****                         } else {
 1156              		.loc 1 224 42 view .LVU307
 1157 01f6 0022     		movs	r2, #0
 1158 01f8 0121     		movs	r1, #1
 1159 01fa 83F83610 		strb	r1, [r3, #54]
 1160 01fe 83F83720 		strb	r2, [r3, #55]
 1161 0202 83F83820 		strb	r2, [r3, #56]
 1162 0206 83F83920 		strb	r2, [r3, #57]
 1163              	.LVL98:
 1164              	.L80:
 224:src/sensorcoms.c ****                         } else {
 1165              		.loc 1 224 42 view .LVU308
 1166              	.LBE25:
 229:src/sensorcoms.c ****                 } else if (s->Center !=  s->Center_calibration) {
 1167              		.loc 1 229 21 is_stmt 1 view .LVU309
 229:src/sensorcoms.c ****                 } else if (s->Center !=  s->Center_calibration) {
ARM GAS  /tmp/ccMro7q3.s 			page 29


 1168              		.loc 1 229 36 is_stmt 0 view .LVU310
 1169 020a 2C4B     		ldr	r3, .L96
 1170 020c 4A22     		movs	r2, #74
 1171 020e 02FB0433 		mla	r3, r2, r4, r3
 1172 0212 C3F83290 		str	r9, [r3, #50]	@ unaligned
 1173              	.LBE24:
 1174 0216 77E7     		b	.L78
 1175              	.LVL99:
 1176              	.L81:
 1177              	.LBB27:
 1178              	.LBB26:
 226:src/sensorcoms.c ****                         }
 1179              		.loc 1 226 29 is_stmt 1 view .LVU311
 226:src/sensorcoms.c ****                         }
 1180              		.loc 1 226 42 is_stmt 0 view .LVU312
 1181 0218 284B     		ldr	r3, .L96
 1182              	.LVL100:
 226:src/sensorcoms.c ****                         }
 1183              		.loc 1 226 42 view .LVU313
 1184 021a 4A22     		movs	r2, #74
 1185              	.LVL101:
 226:src/sensorcoms.c ****                         }
 1186              		.loc 1 226 42 view .LVU314
 1187 021c 02FB0433 		mla	r3, r2, r4, r3
 1188              	.LVL102:
 226:src/sensorcoms.c ****                         }
 1189              		.loc 1 226 42 view .LVU315
 1190 0220 0022     		movs	r2, #0
 1191              	.LVL103:
 226:src/sensorcoms.c ****                         }
 1192              		.loc 1 226 42 view .LVU316
 1193 0222 83F83620 		strb	r2, [r3, #54]
 1194              	.LVL104:
 226:src/sensorcoms.c ****                         }
 1195              		.loc 1 226 42 view .LVU317
 1196 0226 83F83720 		strb	r2, [r3, #55]
 1197 022a 83F83820 		strb	r2, [r3, #56]
 1198 022e 83F83920 		strb	r2, [r3, #57]
 1199 0232 EAE7     		b	.L80
 1200              	.LVL105:
 1201              	.L92:
 226:src/sensorcoms.c ****                         }
 1202              		.loc 1 226 42 view .LVU318
 1203              	.LBE26:
 1204              	.LBE27:
 239:src/sensorcoms.c ****                  if (s->sensor_ok > 0) s->sensor_ok--;
 1205              		.loc 1 239 18 is_stmt 1 view .LVU319
 1206              		.loc 1 239 23 is_stmt 0 view .LVU320
 1207 0234 214B     		ldr	r3, .L96
 1208 0236 02FB0433 		mla	r3, r2, r4, r3
 1209 023a D3F82630 		ldr	r3, [r3, #38]	@ unaligned
 1210              		.loc 1 239 21 view .LVU321
 1211 023e 002B     		cmp	r3, #0
 1212 0240 06DD     		ble	.L84
 1213              		.loc 1 239 40 is_stmt 1 discriminator 1 view .LVU322
 1214              		.loc 1 239 52 is_stmt 0 discriminator 1 view .LVU323
 1215 0242 1E4A     		ldr	r2, .L96
ARM GAS  /tmp/ccMro7q3.s 			page 30


 1216 0244 4A21     		movs	r1, #74
 1217 0246 01FB0422 		mla	r2, r1, r4, r2
 1218 024a 013B     		subs	r3, r3, #1
 1219 024c C2F82630 		str	r3, [r2, #38]	@ unaligned
 1220              	.L84:
 240:src/sensorcoms.c ****                 if (orgsw == 0x55)
 1221              		.loc 1 240 17 is_stmt 1 view .LVU324
 1222              		.loc 1 240 20 is_stmt 0 view .LVU325
 1223 0250 BAF1550F 		cmp	r10, #85
 1224 0254 7FF461AF 		bne	.L83
 1225              	.LBB28:
 241:src/sensorcoms.c ****                     consoleLog("Stepped Off\r\n");
 1226              		.loc 1 241 21 is_stmt 1 view .LVU326
 1227 0258 1B48     		ldr	r0, .L96+12
 1228 025a FFF7FEFF 		bl	consoleLog
 1229              	.LVL106:
 1230 025e 5CE7     		b	.L83
 1231              	.L76:
 1232              		.loc 1 241 21 is_stmt 0 view .LVU327
 1233              	.LBE28:
 242:src/sensorcoms.c ****             }
 243:src/sensorcoms.c **** 
 244:src/sensorcoms.c ****         } else {
 245:src/sensorcoms.c ****             //if (sensor_data[side].read_timeout==10)
 246:src/sensorcoms.c ****             //    consoleLog("\r\nSensor SOF not found");
 247:src/sensorcoms.c **** 
 248:src/sensorcoms.c ****             if (s->read_timeout > 0){
 1234              		.loc 1 248 13 is_stmt 1 view .LVU328
 1235              		.loc 1 248 18 is_stmt 0 view .LVU329
 1236 0260 164B     		ldr	r3, .L96
 1237 0262 4A22     		movs	r2, #74
 1238 0264 02FB0433 		mla	r3, r2, r4, r3
 1239 0268 D3F82A30 		ldr	r3, [r3, #42]	@ unaligned
 1240              		.loc 1 248 16 view .LVU330
 1241 026c 002B     		cmp	r3, #0
 1242 026e 07DD     		ble	.L85
 249:src/sensorcoms.c ****                 s->read_timeout--;
 1243              		.loc 1 249 17 is_stmt 1 view .LVU331
 1244              		.loc 1 249 32 is_stmt 0 view .LVU332
 1245 0270 013B     		subs	r3, r3, #1
 1246 0272 124A     		ldr	r2, .L96
 1247 0274 4A21     		movs	r1, #74
 1248 0276 01FB0422 		mla	r2, r1, r4, r2
 1249 027a C2F82A30 		str	r3, [r2, #42]	@ unaligned
 250:src/sensorcoms.c ****                 if (s->read_timeout == 0){
 1250              		.loc 1 250 17 is_stmt 1 view .LVU333
 1251              		.loc 1 250 20 is_stmt 0 view .LVU334
 1252 027e B3B1     		cbz	r3, .L95
 1253              	.L85:
 251:src/sensorcoms.c ****                     consoleLog("Sensor RX timeout\r\n");
 252:src/sensorcoms.c ****                 }
 253:src/sensorcoms.c **** 
 254:src/sensorcoms.c ****             }
 255:src/sensorcoms.c **** 
 256:src/sensorcoms.c ****             if (s->sensor_ok > 0){
 1254              		.loc 1 256 13 is_stmt 1 view .LVU335
 1255              		.loc 1 256 18 is_stmt 0 view .LVU336
ARM GAS  /tmp/ccMro7q3.s 			page 31


 1256 0280 0E4B     		ldr	r3, .L96
 1257 0282 4A22     		movs	r2, #74
 1258 0284 02FB0433 		mla	r3, r2, r4, r3
 1259 0288 D3F82630 		ldr	r3, [r3, #38]	@ unaligned
 1260              		.loc 1 256 16 view .LVU337
 1261 028c 002B     		cmp	r3, #0
 1262 028e 7FF744AF 		ble	.L83
 257:src/sensorcoms.c ****                 s->sensor_ok--;
 1263              		.loc 1 257 17 is_stmt 1 view .LVU338
 1264              		.loc 1 257 29 is_stmt 0 view .LVU339
 1265 0292 013B     		subs	r3, r3, #1
 1266 0294 094A     		ldr	r2, .L96
 1267 0296 4A21     		movs	r1, #74
 1268 0298 01FB0422 		mla	r2, r1, r4, r2
 1269 029c C2F82630 		str	r3, [r2, #38]	@ unaligned
 258:src/sensorcoms.c ****                 if (s->sensor_ok == 0){
 1270              		.loc 1 258 17 is_stmt 1 view .LVU340
 1271              		.loc 1 258 20 is_stmt 0 view .LVU341
 1272 02a0 002B     		cmp	r3, #0
 1273 02a2 7FF43AAF 		bne	.L83
 1274              	.LBB29:
 259:src/sensorcoms.c ****                     consoleLog("SensorOK -> 0 in unprocessed poll\r\n");
 1275              		.loc 1 259 21 is_stmt 1 view .LVU342
 1276 02a6 0948     		ldr	r0, .L96+16
 1277 02a8 FFF7FEFF 		bl	consoleLog
 1278              	.LVL107:
 1279 02ac 35E7     		b	.L83
 1280              	.L95:
 1281              		.loc 1 259 21 is_stmt 0 view .LVU343
 1282              	.LBE29:
 1283              	.LBB30:
 251:src/sensorcoms.c ****                 }
 1284              		.loc 1 251 21 is_stmt 1 view .LVU344
 1285 02ae 0848     		ldr	r0, .L96+20
 1286 02b0 FFF7FEFF 		bl	consoleLog
 1287              	.LVL108:
 1288 02b4 E4E7     		b	.L85
 1289              	.LVL109:
 1290              	.L93:
 251:src/sensorcoms.c ****                 }
 1291              		.loc 1 251 21 is_stmt 0 view .LVU345
 1292              	.LBE30:
 1293              	.LBE31:
 1294              	.LBE19:
 260:src/sensorcoms.c ****                 }
 261:src/sensorcoms.c ****             }
 262:src/sensorcoms.c ****         }
 263:src/sensorcoms.c ****     }
 264:src/sensorcoms.c **** }
 1295              		.loc 1 264 1 view .LVU346
 1296 02b6 BDE8F087 		pop	{r4, r5, r6, r7, r8, r9, r10, pc}
 1297              	.LVL110:
 1298              	.L97:
 1299              		.loc 1 264 1 view .LVU347
 1300 02ba 00BF     		.align	2
 1301              	.L96:
 1302 02bc 00000000 		.word	sensor_data
ARM GAS  /tmp/ccMro7q3.s 			page 32


 1303 02c0 00000000 		.word	.LC6
 1304 02c4 18000000 		.word	.LC7
 1305 02c8 28000000 		.word	.LC8
 1306 02cc 4C000000 		.word	.LC10
 1307 02d0 38000000 		.word	.LC9
 1308              		.cfi_endproc
 1309              	.LFE74:
 1311              		.section	.text.sensor_get_speeds,"ax",%progbits
 1312              		.align	1
 1313              		.global	sensor_get_speeds
 1314              		.syntax unified
 1315              		.thumb
 1316              		.thumb_func
 1318              	sensor_get_speeds:
 1319              	.LVL111:
 1320              	.LFB75:
 265:src/sensorcoms.c **** 
 266:src/sensorcoms.c **** // *** NOT USED.
 267:src/sensorcoms.c **** int sensor_get_speeds(int16_t *speedL, int16_t *speedR){
 1321              		.loc 1 267 56 is_stmt 1 view -0
 1322              		.cfi_startproc
 1323              		@ args = 0, pretend = 0, frame = 0
 1324              		@ frame_needed = 0, uses_anonymous_args = 0
 1325              		@ link register save eliminated.
 268:src/sensorcoms.c **** 	if (sensor_data[0].read_timeout && sensor_data[1].read_timeout){
 1326              		.loc 1 268 2 view .LVU349
 1327              		.loc 1 268 20 is_stmt 0 view .LVU350
 1328 0000 254B     		ldr	r3, .L110
 1329 0002 D3F82A30 		ldr	r3, [r3, #42]	@ unaligned
 1330              		.loc 1 268 5 view .LVU351
 1331 0006 3BB1     		cbz	r3, .L99
 1332              		.loc 1 268 51 discriminator 1 view .LVU352
 1333 0008 234B     		ldr	r3, .L110
 1334 000a 5B6F     		ldr	r3, [r3, #116]	@ unaligned
 1335              		.loc 1 268 34 discriminator 1 view .LVU353
 1336 000c 23B1     		cbz	r3, .L99
 269:src/sensorcoms.c **** 		if ((sensor_data[0].complete.AA_55 == 0x55) && (sensor_data[0].complete.AA_55 == 0x55)){
 1337              		.loc 1 269 3 is_stmt 1 view .LVU354
 1338              		.loc 1 269 31 is_stmt 0 view .LVU355
 1339 000e 224B     		ldr	r3, .L110
 1340 0010 93F82130 		ldrb	r3, [r3, #33]	@ zero_extendqisi2
 1341              		.loc 1 269 6 view .LVU356
 1342 0014 552B     		cmp	r3, #85
 1343 0016 07D0     		beq	.L109
 1344              	.L99:
 270:src/sensorcoms.c ****             if (speedL){
 271:src/sensorcoms.c ****                 int angle = (sensor_data[0].complete.Angle - sensor_data[0].Center)/100;
 272:src/sensorcoms.c ****                 *speedL = CLAMP( angle , -10, 10);
 273:src/sensorcoms.c ****             }
 274:src/sensorcoms.c ****             if (speedR){
 275:src/sensorcoms.c ****                 int angle = (sensor_data[1].complete.Angle - sensor_data[1].Center)/100;
 276:src/sensorcoms.c ****                 *speedR = CLAMP( angle , -10, 10);
 277:src/sensorcoms.c ****             }
 278:src/sensorcoms.c ****             return 1;
 279:src/sensorcoms.c ****         }
 280:src/sensorcoms.c **** 	}
 281:src/sensorcoms.c ****     if (speedL){
ARM GAS  /tmp/ccMro7q3.s 			page 33


 1345              		.loc 1 281 5 is_stmt 1 view .LVU357
 1346              		.loc 1 281 8 is_stmt 0 view .LVU358
 1347 0018 08B1     		cbz	r0, .L105
 282:src/sensorcoms.c ****         *speedL = 0;
 1348              		.loc 1 282 9 is_stmt 1 view .LVU359
 1349              		.loc 1 282 17 is_stmt 0 view .LVU360
 1350 001a 0023     		movs	r3, #0
 1351 001c 0380     		strh	r3, [r0]	@ movhi
 1352              	.L105:
 283:src/sensorcoms.c ****     }
 284:src/sensorcoms.c ****     if (speedR){
 1353              		.loc 1 284 5 is_stmt 1 view .LVU361
 1354              		.loc 1 284 8 is_stmt 0 view .LVU362
 1355 001e 0029     		cmp	r1, #0
 1356 0020 38D0     		beq	.L108
 285:src/sensorcoms.c ****         *speedR = 0;
 1357              		.loc 1 285 9 is_stmt 1 view .LVU363
 1358              		.loc 1 285 17 is_stmt 0 view .LVU364
 1359 0022 0020     		movs	r0, #0
 1360              	.LVL112:
 1361              		.loc 1 285 17 view .LVU365
 1362 0024 0880     		strh	r0, [r1]	@ movhi
 1363 0026 7047     		bx	lr
 1364              	.LVL113:
 1365              	.L109:
 270:src/sensorcoms.c ****                 int angle = (sensor_data[0].complete.Angle - sensor_data[0].Center)/100;
 1366              		.loc 1 270 13 is_stmt 1 view .LVU366
 270:src/sensorcoms.c ****                 int angle = (sensor_data[0].complete.Angle - sensor_data[0].Center)/100;
 1367              		.loc 1 270 16 is_stmt 0 view .LVU367
 1368 0028 B0B1     		cbz	r0, .L100
 1369              	.LBB32:
 271:src/sensorcoms.c ****                 *speedL = CLAMP( angle , -10, 10);
 1370              		.loc 1 271 17 is_stmt 1 view .LVU368
 271:src/sensorcoms.c ****                 *speedL = CLAMP( angle , -10, 10);
 1371              		.loc 1 271 53 is_stmt 0 view .LVU369
 1372 002a 1B4B     		ldr	r3, .L110
 1373 002c B3F91D20 		ldrsh	r2, [r3, #29]	@ unaligned
 271:src/sensorcoms.c ****                 *speedL = CLAMP( angle , -10, 10);
 1374              		.loc 1 271 76 view .LVU370
 1375 0030 B3F92E30 		ldrsh	r3, [r3, #46]	@ unaligned
 271:src/sensorcoms.c ****                 *speedL = CLAMP( angle , -10, 10);
 1376              		.loc 1 271 60 view .LVU371
 1377 0034 D21A     		subs	r2, r2, r3
 271:src/sensorcoms.c ****                 *speedL = CLAMP( angle , -10, 10);
 1378              		.loc 1 271 21 view .LVU372
 1379 0036 194B     		ldr	r3, .L110+4
 1380 0038 83FB023C 		smull	r3, ip, r3, r2
 1381 003c D317     		asrs	r3, r2, #31
 1382 003e C3EB6C13 		rsb	r3, r3, ip, asr #5
 1383              	.LVL114:
 272:src/sensorcoms.c ****             }
 1384              		.loc 1 272 17 is_stmt 1 view .LVU373
 272:src/sensorcoms.c ****             }
 1385              		.loc 1 272 25 is_stmt 0 view .LVU374
 1386 0042 40F24B4C 		movw	ip, #1099
 1387 0046 6245     		cmp	r2, ip
 1388 0048 20DC     		bgt	.L106
ARM GAS  /tmp/ccMro7q3.s 			page 34


 272:src/sensorcoms.c ****             }
 1389              		.loc 1 272 27 discriminator 1 view .LVU375
 1390 004a 6FF00902 		mvn	r2, #9
 1391 004e 9342     		cmp	r3, r2
 1392 0050 B8BF     		it	lt
 1393 0052 1346     		movlt	r3, r2
 1394              	.LVL115:
 272:src/sensorcoms.c ****             }
 1395              		.loc 1 272 25 discriminator 1 view .LVU376
 1396 0054 1BB2     		sxth	r3, r3
 1397              	.L101:
 272:src/sensorcoms.c ****             }
 1398              		.loc 1 272 25 discriminator 4 view .LVU377
 1399 0056 0380     		strh	r3, [r0]	@ movhi
 1400              	.LVL116:
 1401              	.L100:
 272:src/sensorcoms.c ****             }
 1402              		.loc 1 272 25 discriminator 4 view .LVU378
 1403              	.LBE32:
 274:src/sensorcoms.c ****                 int angle = (sensor_data[1].complete.Angle - sensor_data[1].Center)/100;
 1404              		.loc 1 274 13 is_stmt 1 view .LVU379
 274:src/sensorcoms.c ****                 int angle = (sensor_data[1].complete.Angle - sensor_data[1].Center)/100;
 1405              		.loc 1 274 16 is_stmt 0 view .LVU380
 1406 0058 B1B1     		cbz	r1, .L102
 1407              	.LBB33:
 275:src/sensorcoms.c ****                 *speedR = CLAMP( angle , -10, 10);
 1408              		.loc 1 275 17 is_stmt 1 view .LVU381
 275:src/sensorcoms.c ****                 *speedR = CLAMP( angle , -10, 10);
 1409              		.loc 1 275 53 is_stmt 0 view .LVU382
 1410 005a 0F4B     		ldr	r3, .L110
 1411 005c B3F96720 		ldrsh	r2, [r3, #103]	@ unaligned
 275:src/sensorcoms.c ****                 *speedR = CLAMP( angle , -10, 10);
 1412              		.loc 1 275 76 view .LVU383
 1413 0060 B3F97830 		ldrsh	r3, [r3, #120]	@ unaligned
 275:src/sensorcoms.c ****                 *speedR = CLAMP( angle , -10, 10);
 1414              		.loc 1 275 60 view .LVU384
 1415 0064 D21A     		subs	r2, r2, r3
 275:src/sensorcoms.c ****                 *speedR = CLAMP( angle , -10, 10);
 1416              		.loc 1 275 21 view .LVU385
 1417 0066 0D48     		ldr	r0, .L110+4
 1418              	.LVL117:
 275:src/sensorcoms.c ****                 *speedR = CLAMP( angle , -10, 10);
 1419              		.loc 1 275 21 view .LVU386
 1420 0068 80FB0230 		smull	r3, r0, r0, r2
 1421 006c D317     		asrs	r3, r2, #31
 1422 006e C3EB6013 		rsb	r3, r3, r0, asr #5
 1423              	.LVL118:
 276:src/sensorcoms.c ****             }
 1424              		.loc 1 276 17 is_stmt 1 view .LVU387
 276:src/sensorcoms.c ****             }
 1425              		.loc 1 276 25 is_stmt 0 view .LVU388
 1426 0072 40F24B40 		movw	r0, #1099
 1427 0076 8242     		cmp	r2, r0
 1428 0078 0ADC     		bgt	.L107
 276:src/sensorcoms.c ****             }
 1429              		.loc 1 276 27 discriminator 1 view .LVU389
 1430 007a 6FF00902 		mvn	r2, #9
ARM GAS  /tmp/ccMro7q3.s 			page 35


 1431 007e 9342     		cmp	r3, r2
 1432 0080 B8BF     		it	lt
 1433 0082 1346     		movlt	r3, r2
 1434              	.LVL119:
 276:src/sensorcoms.c ****             }
 1435              		.loc 1 276 25 discriminator 1 view .LVU390
 1436 0084 1BB2     		sxth	r3, r3
 1437              	.L103:
 276:src/sensorcoms.c ****             }
 1438              		.loc 1 276 25 discriminator 4 view .LVU391
 1439 0086 0B80     		strh	r3, [r1]	@ movhi
 1440              	.LVL120:
 1441              	.L102:
 276:src/sensorcoms.c ****             }
 1442              		.loc 1 276 25 discriminator 4 view .LVU392
 1443              	.LBE33:
 278:src/sensorcoms.c ****         }
 1444              		.loc 1 278 13 is_stmt 1 view .LVU393
 278:src/sensorcoms.c ****         }
 1445              		.loc 1 278 20 is_stmt 0 view .LVU394
 1446 0088 0120     		movs	r0, #1
 1447 008a 7047     		bx	lr
 1448              	.LVL121:
 1449              	.L106:
 1450              	.LBB34:
 272:src/sensorcoms.c ****             }
 1451              		.loc 1 272 25 discriminator 2 view .LVU395
 1452 008c 0A23     		movs	r3, #10
 1453              	.LVL122:
 272:src/sensorcoms.c ****             }
 1454              		.loc 1 272 25 discriminator 2 view .LVU396
 1455 008e E2E7     		b	.L101
 1456              	.LVL123:
 1457              	.L107:
 272:src/sensorcoms.c ****             }
 1458              		.loc 1 272 25 discriminator 2 view .LVU397
 1459              	.LBE34:
 1460              	.LBB35:
 276:src/sensorcoms.c ****             }
 1461              		.loc 1 276 25 discriminator 2 view .LVU398
 1462 0090 0A23     		movs	r3, #10
 1463              	.LVL124:
 276:src/sensorcoms.c ****             }
 1464              		.loc 1 276 25 discriminator 2 view .LVU399
 1465 0092 F8E7     		b	.L103
 1466              	.LVL125:
 1467              	.L108:
 276:src/sensorcoms.c ****             }
 1468              		.loc 1 276 25 discriminator 2 view .LVU400
 1469              	.LBE35:
 286:src/sensorcoms.c ****     }
 287:src/sensorcoms.c ****     return 0;
 1470              		.loc 1 287 12 view .LVU401
 1471 0094 0020     		movs	r0, #0
 1472              	.LVL126:
 288:src/sensorcoms.c **** }
 1473              		.loc 1 288 1 view .LVU402
ARM GAS  /tmp/ccMro7q3.s 			page 36


 1474 0096 7047     		bx	lr
 1475              	.L111:
 1476              		.align	2
 1477              	.L110:
 1478 0098 00000000 		.word	sensor_data
 1479 009c 1F85EB51 		.word	1374389535
 1480              		.cfi_endproc
 1481              	.LFE75:
 1483              		.section	.text.sensor_set_flash,"ax",%progbits
 1484              		.align	1
 1485              		.global	sensor_set_flash
 1486              		.syntax unified
 1487              		.thumb
 1488              		.thumb_func
 1490              	sensor_set_flash:
 1491              	.LVL127:
 1492              	.LFB76:
 289:src/sensorcoms.c **** 
 290:src/sensorcoms.c **** void sensor_set_flash(int side, int count){
 1493              		.loc 1 290 43 is_stmt 1 view -0
 1494              		.cfi_startproc
 1495              		@ args = 0, pretend = 0, frame = 0
 1496              		@ frame_needed = 0, uses_anonymous_args = 0
 1497              		@ link register save eliminated.
 291:src/sensorcoms.c ****     sensorlights[side].flashcount = count;
 1498              		.loc 1 291 5 view .LVU404
 1499              		.loc 1 291 35 is_stmt 0 view .LVU405
 1500 0000 00EB4000 		add	r0, r0, r0, lsl #1
 1501              	.LVL128:
 1502              		.loc 1 291 35 view .LVU406
 1503 0004 024B     		ldr	r3, .L113
 1504 0006 03EB4003 		add	r3, r3, r0, lsl #1
 1505 000a 9970     		strb	r1, [r3, #2]
 292:src/sensorcoms.c **** }
 1506              		.loc 1 292 1 view .LVU407
 1507 000c 7047     		bx	lr
 1508              	.L114:
 1509 000e 00BF     		.align	2
 1510              	.L113:
 1511 0010 00000000 		.word	sensorlights
 1512              		.cfi_endproc
 1513              	.LFE76:
 1515              		.section	.rodata.sensor_set_colour.str1.4,"aMS",%progbits,1
 1516              		.align	2
 1517              	.LC11:
 1518 0000 636F6C6F 		.ascii	"colour %d %x -> %x (%d)\015\012\000"
 1518      75722025 
 1518      64202578 
 1518      202D3E20 
 1518      25782028 
 1519              		.section	.text.sensor_set_colour,"ax",%progbits
 1520              		.align	1
 1521              		.global	sensor_set_colour
 1522              		.syntax unified
 1523              		.thumb
 1524              		.thumb_func
 1526              	sensor_set_colour:
ARM GAS  /tmp/ccMro7q3.s 			page 37


 1527              	.LVL129:
 1528              	.LFB77:
 293:src/sensorcoms.c **** 
 294:src/sensorcoms.c **** int diag_count = 0;
 295:src/sensorcoms.c **** void sensor_set_colour(int side, int colour){
 1529              		.loc 1 295 45 is_stmt 1 view -0
 1530              		.cfi_startproc
 1531              		@ args = 0, pretend = 0, frame = 40
 1532              		@ frame_needed = 0, uses_anonymous_args = 0
 1533              		.loc 1 295 45 is_stmt 0 view .LVU409
 1534 0000 30B5     		push	{r4, r5, lr}
 1535              	.LCFI12:
 1536              		.cfi_def_cfa_offset 12
 1537              		.cfi_offset 4, -12
 1538              		.cfi_offset 5, -8
 1539              		.cfi_offset 14, -4
 1540 0002 8DB0     		sub	sp, sp, #52
 1541              	.LCFI13:
 1542              		.cfi_def_cfa_offset 64
 1543 0004 0446     		mov	r4, r0
 1544 0006 0D46     		mov	r5, r1
 296:src/sensorcoms.c ****     if (sensorlights[side].colour != colour) {
 1545              		.loc 1 296 5 is_stmt 1 view .LVU410
 1546              		.loc 1 296 27 is_stmt 0 view .LVU411
 1547 0008 00EB4002 		add	r2, r0, r0, lsl #1
 1548 000c 0D4B     		ldr	r3, .L119
 1549 000e 13F81230 		ldrb	r3, [r3, r2, lsl #1]	@ zero_extendqisi2
 1550              		.loc 1 296 8 view .LVU412
 1551 0012 8B42     		cmp	r3, r1
 1552 0014 06D1     		bne	.L118
 1553              	.LVL130:
 1554              	.L116:
 297:src/sensorcoms.c ****         char tmp[40];
 298:src/sensorcoms.c ****         sprintf(tmp, "colour %d %x -> %x (%d)\r\n", side, sensorlights[side].colour, colour, diag_c
 299:src/sensorcoms.c ****         consoleLog(tmp);
 300:src/sensorcoms.c ****     }
 301:src/sensorcoms.c ****     sensorlights[side].colour = colour;
 1555              		.loc 1 301 5 is_stmt 1 view .LVU413
 1556              		.loc 1 301 31 is_stmt 0 view .LVU414
 1557 0016 04EB4404 		add	r4, r4, r4, lsl #1
 1558              	.LVL131:
 1559              		.loc 1 301 31 view .LVU415
 1560 001a 0A4B     		ldr	r3, .L119
 1561 001c 03F81450 		strb	r5, [r3, r4, lsl #1]
 302:src/sensorcoms.c **** }
 1562              		.loc 1 302 1 view .LVU416
 1563 0020 0DB0     		add	sp, sp, #52
 1564              	.LCFI14:
 1565              		.cfi_remember_state
 1566              		.cfi_def_cfa_offset 12
 1567              		@ sp needed
 1568 0022 30BD     		pop	{r4, r5, pc}
 1569              	.LVL132:
 1570              	.L118:
 1571              	.LCFI15:
 1572              		.cfi_restore_state
 1573              	.LBB36:
ARM GAS  /tmp/ccMro7q3.s 			page 38


 297:src/sensorcoms.c ****         char tmp[40];
 1574              		.loc 1 297 9 is_stmt 1 view .LVU417
 298:src/sensorcoms.c ****         consoleLog(tmp);
 1575              		.loc 1 298 9 view .LVU418
 1576 0024 0849     		ldr	r1, .L119+4
 1577              	.LVL133:
 298:src/sensorcoms.c ****         consoleLog(tmp);
 1578              		.loc 1 298 9 is_stmt 0 view .LVU419
 1579 0026 0A68     		ldr	r2, [r1]
 1580 0028 501C     		adds	r0, r2, #1
 1581              	.LVL134:
 298:src/sensorcoms.c ****         consoleLog(tmp);
 1582              		.loc 1 298 9 view .LVU420
 1583 002a 0860     		str	r0, [r1]
 1584 002c 0192     		str	r2, [sp, #4]
 1585 002e 0095     		str	r5, [sp]
 1586 0030 2246     		mov	r2, r4
 1587 0032 0649     		ldr	r1, .L119+8
 1588 0034 02A8     		add	r0, sp, #8
 1589 0036 FFF7FEFF 		bl	sprintf
 1590              	.LVL135:
 299:src/sensorcoms.c ****     }
 1591              		.loc 1 299 9 is_stmt 1 view .LVU421
 1592 003a 02A8     		add	r0, sp, #8
 1593 003c FFF7FEFF 		bl	consoleLog
 1594              	.LVL136:
 1595 0040 E9E7     		b	.L116
 1596              	.L120:
 1597 0042 00BF     		.align	2
 1598              	.L119:
 1599 0044 00000000 		.word	sensorlights
 1600 0048 00000000 		.word	diag_count
 1601 004c 00000000 		.word	.LC11
 1602              	.LBE36:
 1603              		.cfi_endproc
 1604              	.LFE77:
 1606              		.section	.text.sensor_send_lights,"ax",%progbits
 1607              		.align	1
 1608              		.global	sensor_send_lights
 1609              		.syntax unified
 1610              		.thumb
 1611              		.thumb_func
 1613              	sensor_send_lights:
 1614              	.LFB78:
 303:src/sensorcoms.c **** 
 304:src/sensorcoms.c **** void sensor_send_lights(){
 1615              		.loc 1 304 26 view -0
 1616              		.cfi_startproc
 1617              		@ args = 0, pretend = 0, frame = 0
 1618              		@ frame_needed = 0, uses_anonymous_args = 0
 1619 0000 10B5     		push	{r4, lr}
 1620              	.LCFI16:
 1621              		.cfi_def_cfa_offset 8
 1622              		.cfi_offset 4, -8
 1623              		.cfi_offset 14, -4
 305:src/sensorcoms.c ****     // send twice - we don;t send very often, and sensor board seems
 306:src/sensorcoms.c ****     // to need a complete frame betwen 0x1xx words to trigger
ARM GAS  /tmp/ccMro7q3.s 			page 39


 307:src/sensorcoms.c ****     int count = USART_sensor_txcount(0);
 1624              		.loc 1 307 5 view .LVU423
 1625              		.loc 1 307 17 is_stmt 0 view .LVU424
 1626 0002 0020     		movs	r0, #0
 1627 0004 FFF7FEFF 		bl	USART_sensor_txcount
 1628              	.LVL137:
 308:src/sensorcoms.c ****     // don't send unless we are empty
 309:src/sensorcoms.c ****     if (!count) {
 1629              		.loc 1 309 5 is_stmt 1 view .LVU425
 1630              		.loc 1 309 8 is_stmt 0 view .LVU426
 1631 0008 20B1     		cbz	r0, .L125
 1632              	.LVL138:
 1633              	.L122:
 310:src/sensorcoms.c ****     USART_sensorSend(0, (unsigned char *)&sensorlights[0], 6, 1);
 311:src/sensorcoms.c ****     USART_sensorSend(0, (unsigned char *)&sensorlights[0], 6, 1);
 312:src/sensorcoms.c ****     }
 313:src/sensorcoms.c ****     count = USART_sensor_txcount(1);
 1634              		.loc 1 313 5 is_stmt 1 view .LVU427
 1635              		.loc 1 313 13 is_stmt 0 view .LVU428
 1636 000a 0120     		movs	r0, #1
 1637 000c FFF7FEFF 		bl	USART_sensor_txcount
 1638              	.LVL139:
 314:src/sensorcoms.c ****     // don't send unless we are empty
 315:src/sensorcoms.c ****     if (!count) {
 1639              		.loc 1 315 5 is_stmt 1 view .LVU429
 1640              		.loc 1 315 8 is_stmt 0 view .LVU430
 1641 0010 68B1     		cbz	r0, .L126
 1642              	.LVL140:
 1643              	.L121:
 316:src/sensorcoms.c ****     USART_sensorSend(1, (unsigned char *)&sensorlights[1], 6, 1);
 317:src/sensorcoms.c ****         USART_sensorSend(1, (unsigned char *)&sensorlights[1], 6, 1);
 318:src/sensorcoms.c ****     }
 319:src/sensorcoms.c **** }
 1644              		.loc 1 319 1 view .LVU431
 1645 0012 10BD     		pop	{r4, pc}
 1646              	.LVL141:
 1647              	.L125:
 310:src/sensorcoms.c ****     USART_sensorSend(0, (unsigned char *)&sensorlights[0], 6, 1);
 1648              		.loc 1 310 5 is_stmt 1 view .LVU432
 1649 0014 0D4C     		ldr	r4, .L127
 1650 0016 0123     		movs	r3, #1
 1651 0018 0622     		movs	r2, #6
 1652 001a 2146     		mov	r1, r4
 1653 001c FFF7FEFF 		bl	USART_sensorSend
 1654              	.LVL142:
 311:src/sensorcoms.c ****     }
 1655              		.loc 1 311 5 view .LVU433
 1656 0020 0123     		movs	r3, #1
 1657 0022 0622     		movs	r2, #6
 1658 0024 2146     		mov	r1, r4
 1659 0026 0020     		movs	r0, #0
 1660 0028 FFF7FEFF 		bl	USART_sensorSend
 1661              	.LVL143:
 1662 002c EDE7     		b	.L122
 1663              	.LVL144:
 1664              	.L126:
 316:src/sensorcoms.c ****     USART_sensorSend(1, (unsigned char *)&sensorlights[1], 6, 1);
ARM GAS  /tmp/ccMro7q3.s 			page 40


 1665              		.loc 1 316 5 view .LVU434
 1666 002e 084C     		ldr	r4, .L127+4
 1667 0030 0123     		movs	r3, #1
 1668 0032 0622     		movs	r2, #6
 1669 0034 2146     		mov	r1, r4
 1670 0036 1846     		mov	r0, r3
 1671              	.LVL145:
 316:src/sensorcoms.c ****     USART_sensorSend(1, (unsigned char *)&sensorlights[1], 6, 1);
 1672              		.loc 1 316 5 is_stmt 0 view .LVU435
 1673 0038 FFF7FEFF 		bl	USART_sensorSend
 1674              	.LVL146:
 317:src/sensorcoms.c ****     }
 1675              		.loc 1 317 9 is_stmt 1 view .LVU436
 1676 003c 0123     		movs	r3, #1
 1677 003e 0622     		movs	r2, #6
 1678 0040 2146     		mov	r1, r4
 1679 0042 1846     		mov	r0, r3
 1680 0044 FFF7FEFF 		bl	USART_sensorSend
 1681              	.LVL147:
 1682              		.loc 1 319 1 is_stmt 0 view .LVU437
 1683 0048 E3E7     		b	.L121
 1684              	.L128:
 1685 004a 00BF     		.align	2
 1686              	.L127:
 1687 004c 00000000 		.word	sensorlights
 1688 0050 06000000 		.word	sensorlights+6
 1689              		.cfi_endproc
 1690              	.LFE78:
 1692              		.global	__aeabi_i2f
 1693              		.global	__aeabi_fdiv
 1694              		.global	__aeabi_fcmpeq
 1695              		.global	__aeabi_ui2f
 1696              		.section	.rodata.getSensorBaudRate.str1.4,"aMS",%progbits,1
 1697              		.align	2
 1698              	.LC12:
 1699 0000 75736172 		.ascii	"usart %d\015\012\000"
 1699      74202564 
 1699      0D0A00
 1700              		.global	__aeabi_fmul
 1701              		.global	__aeabi_f2iz
 1702 000b 00       		.align	2
 1703              	.LC13:
 1704 000c 6D696E20 		.ascii	"min time %d avg short time x 100 %d clk %d baud %d\015"
 1704      74696D65 
 1704      20256420 
 1704      61766720 
 1704      73686F72 
 1705 003f 0A00     		.ascii	"\012\000"
 1706              		.global	__aeabi_f2d
 1707              		.global	__aeabi_dmul
 1708              		.global	__aeabi_d2iz
 1709 0041 000000   		.align	2
 1710              	.LC14:
 1711 0044 746F7461 		.ascii	"total cycles %d, bits x 100 %d\015\012\000"
 1711      6C206379 
 1711      636C6573 
 1711      2025642C 
ARM GAS  /tmp/ccMro7q3.s 			page 41


 1711      20626974 
 1712 0065 000000   		.align	2
 1713              	.LC15:
 1714 0068 75736172 		.ascii	"usart %d\015\012no input?\015\012\000"
 1714      74202564 
 1714      0D0A6E6F 
 1714      20696E70 
 1714      75743F0D 
 1715              		.section	.text.getSensorBaudRate,"ax",%progbits
 1716              		.align	1
 1717              		.global	getSensorBaudRate
 1718              		.syntax unified
 1719              		.thumb
 1720              		.thumb_func
 1722              	getSensorBaudRate:
 1723              	.LVL148:
 1724              	.LFB79:
 320:src/sensorcoms.c **** 
 321:src/sensorcoms.c **** 
 322:src/sensorcoms.c **** #define MAX_SAMPLES 100
 323:src/sensorcoms.c **** 
 324:src/sensorcoms.c **** int getSensorBaudRate(int side) {
 1725              		.loc 1 324 33 is_stmt 1 view -0
 1726              		.cfi_startproc
 1727              		@ args = 0, pretend = 0, frame = 104
 1728              		@ frame_needed = 0, uses_anonymous_args = 0
 1729              		.loc 1 324 33 is_stmt 0 view .LVU439
 1730 0000 2DE9F04F 		push	{r4, r5, r6, r7, r8, r9, r10, fp, lr}
 1731              	.LCFI17:
 1732              		.cfi_def_cfa_offset 36
 1733              		.cfi_offset 4, -36
 1734              		.cfi_offset 5, -32
 1735              		.cfi_offset 6, -28
 1736              		.cfi_offset 7, -24
 1737              		.cfi_offset 8, -20
 1738              		.cfi_offset 9, -16
 1739              		.cfi_offset 10, -12
 1740              		.cfi_offset 11, -8
 1741              		.cfi_offset 14, -4
 1742 0004 9DB0     		sub	sp, sp, #116
 1743              	.LCFI18:
 1744              		.cfi_def_cfa_offset 152
 1745 0006 0546     		mov	r5, r0
 325:src/sensorcoms.c ****     uint32_t *cycle_store = NULL;
 1746              		.loc 1 325 5 is_stmt 1 view .LVU440
 1747              	.LVL149:
 326:src/sensorcoms.c ****     volatile int cycle_len = 0;
 1748              		.loc 1 326 5 view .LVU441
 1749              		.loc 1 326 18 is_stmt 0 view .LVU442
 1750 0008 0026     		movs	r6, #0
 1751 000a 1B96     		str	r6, [sp, #108]
 327:src/sensorcoms.c ****     cycle_store = malloc(sizeof(uint32_t) * MAX_SAMPLES);
 1752              		.loc 1 327 5 is_stmt 1 view .LVU443
 1753              		.loc 1 327 19 is_stmt 0 view .LVU444
 1754 000c 4FF4C870 		mov	r0, #400
 1755              	.LVL150:
 1756              		.loc 1 327 19 view .LVU445
ARM GAS  /tmp/ccMro7q3.s 			page 42


 1757 0010 FFF7FEFF 		bl	malloc
 1758              	.LVL151:
 1759 0014 0446     		mov	r4, r0
 1760              	.LVL152:
 328:src/sensorcoms.c ****     cycle_len = 0;
 1761              		.loc 1 328 5 is_stmt 1 view .LVU446
 1762              		.loc 1 328 15 is_stmt 0 view .LVU447
 1763 0016 1B96     		str	r6, [sp, #108]
 329:src/sensorcoms.c **** 
 330:src/sensorcoms.c ****     float rate = 0;
 1764              		.loc 1 330 5 is_stmt 1 view .LVU448
 1765              	.LVL153:
 331:src/sensorcoms.c ****     uint16_t pin;
 1766              		.loc 1 331 5 view .LVU449
 332:src/sensorcoms.c ****     GPIO_TypeDef *gpioport;
 1767              		.loc 1 332 5 view .LVU450
 333:src/sensorcoms.c **** 
 334:src/sensorcoms.c ****     if (!side) {
 1768              		.loc 1 334 5 view .LVU451
 1769              		.loc 1 334 8 is_stmt 0 view .LVU452
 1770 0018 5DB9     		cbnz	r5, .L145
 335:src/sensorcoms.c ****         gpioport = GPIOA;
 1771              		.loc 1 335 18 view .LVU453
 1772 001a 6548     		ldr	r0, .L154
 1773              	.LVL154:
 336:src/sensorcoms.c ****         pin = GPIO_PIN_3;
 1774              		.loc 1 336 13 view .LVU454
 1775 001c 0823     		movs	r3, #8
 1776              	.L130:
 1777              	.LVL155:
 337:src/sensorcoms.c ****     } else {
 338:src/sensorcoms.c ****         gpioport = GPIOB;
 339:src/sensorcoms.c ****         pin = GPIO_PIN_11;
 340:src/sensorcoms.c ****     }
 341:src/sensorcoms.c **** 
 342:src/sensorcoms.c ****     char t[100];
 1778              		.loc 1 342 5 is_stmt 1 view .LVU455
 343:src/sensorcoms.c **** 
 344:src/sensorcoms.c ****     __disable_irq(); // but we want all values at the same time, without interferance
 1779              		.loc 1 344 5 view .LVU456
 1780              	.LBB37:
 1781              	.LBI37:
 1782              		.file 2 "Drivers/CMSIS/Include/cmsis_gcc.h"
   1:Drivers/CMSIS/Include/cmsis_gcc.h **** /**************************************************************************//**
   2:Drivers/CMSIS/Include/cmsis_gcc.h ****  * @file     cmsis_gcc.h
   3:Drivers/CMSIS/Include/cmsis_gcc.h ****  * @brief    CMSIS Cortex-M Core Function/Instruction Header File
   4:Drivers/CMSIS/Include/cmsis_gcc.h ****  * @version  V4.30
   5:Drivers/CMSIS/Include/cmsis_gcc.h ****  * @date     20. October 2015
   6:Drivers/CMSIS/Include/cmsis_gcc.h ****  ******************************************************************************/
   7:Drivers/CMSIS/Include/cmsis_gcc.h **** /* Copyright (c) 2009 - 2015 ARM LIMITED
   8:Drivers/CMSIS/Include/cmsis_gcc.h **** 
   9:Drivers/CMSIS/Include/cmsis_gcc.h ****    All rights reserved.
  10:Drivers/CMSIS/Include/cmsis_gcc.h ****    Redistribution and use in source and binary forms, with or without
  11:Drivers/CMSIS/Include/cmsis_gcc.h ****    modification, are permitted provided that the following conditions are met:
  12:Drivers/CMSIS/Include/cmsis_gcc.h ****    - Redistributions of source code must retain the above copyright
  13:Drivers/CMSIS/Include/cmsis_gcc.h ****      notice, this list of conditions and the following disclaimer.
  14:Drivers/CMSIS/Include/cmsis_gcc.h ****    - Redistributions in binary form must reproduce the above copyright
ARM GAS  /tmp/ccMro7q3.s 			page 43


  15:Drivers/CMSIS/Include/cmsis_gcc.h ****      notice, this list of conditions and the following disclaimer in the
  16:Drivers/CMSIS/Include/cmsis_gcc.h ****      documentation and/or other materials provided with the distribution.
  17:Drivers/CMSIS/Include/cmsis_gcc.h ****    - Neither the name of ARM nor the names of its contributors may be used
  18:Drivers/CMSIS/Include/cmsis_gcc.h ****      to endorse or promote products derived from this software without
  19:Drivers/CMSIS/Include/cmsis_gcc.h ****      specific prior written permission.
  20:Drivers/CMSIS/Include/cmsis_gcc.h ****    *
  21:Drivers/CMSIS/Include/cmsis_gcc.h ****    THIS SOFTWARE IS PROVIDED BY THE COPYRIGHT HOLDERS AND CONTRIBUTORS "AS IS"
  22:Drivers/CMSIS/Include/cmsis_gcc.h ****    AND ANY EXPRESS OR IMPLIED WARRANTIES, INCLUDING, BUT NOT LIMITED TO, THE
  23:Drivers/CMSIS/Include/cmsis_gcc.h ****    IMPLIED WARRANTIES OF MERCHANTABILITY AND FITNESS FOR A PARTICULAR PURPOSE
  24:Drivers/CMSIS/Include/cmsis_gcc.h ****    ARE DISCLAIMED. IN NO EVENT SHALL COPYRIGHT HOLDERS AND CONTRIBUTORS BE
  25:Drivers/CMSIS/Include/cmsis_gcc.h ****    LIABLE FOR ANY DIRECT, INDIRECT, INCIDENTAL, SPECIAL, EXEMPLARY, OR
  26:Drivers/CMSIS/Include/cmsis_gcc.h ****    CONSEQUENTIAL DAMAGES (INCLUDING, BUT NOT LIMITED TO, PROCUREMENT OF
  27:Drivers/CMSIS/Include/cmsis_gcc.h ****    SUBSTITUTE GOODS OR SERVICES; LOSS OF USE, DATA, OR PROFITS; OR BUSINESS
  28:Drivers/CMSIS/Include/cmsis_gcc.h ****    INTERRUPTION) HOWEVER CAUSED AND ON ANY THEORY OF LIABILITY, WHETHER IN
  29:Drivers/CMSIS/Include/cmsis_gcc.h ****    CONTRACT, STRICT LIABILITY, OR TORT (INCLUDING NEGLIGENCE OR OTHERWISE)
  30:Drivers/CMSIS/Include/cmsis_gcc.h ****    ARISING IN ANY WAY OUT OF THE USE OF THIS SOFTWARE, EVEN IF ADVISED OF THE
  31:Drivers/CMSIS/Include/cmsis_gcc.h ****    POSSIBILITY OF SUCH DAMAGE.
  32:Drivers/CMSIS/Include/cmsis_gcc.h ****    ---------------------------------------------------------------------------*/
  33:Drivers/CMSIS/Include/cmsis_gcc.h **** 
  34:Drivers/CMSIS/Include/cmsis_gcc.h **** 
  35:Drivers/CMSIS/Include/cmsis_gcc.h **** #ifndef __CMSIS_GCC_H
  36:Drivers/CMSIS/Include/cmsis_gcc.h **** #define __CMSIS_GCC_H
  37:Drivers/CMSIS/Include/cmsis_gcc.h **** 
  38:Drivers/CMSIS/Include/cmsis_gcc.h **** /* ignore some GCC warnings */
  39:Drivers/CMSIS/Include/cmsis_gcc.h **** #if defined ( __GNUC__ )
  40:Drivers/CMSIS/Include/cmsis_gcc.h **** #pragma GCC diagnostic push
  41:Drivers/CMSIS/Include/cmsis_gcc.h **** #pragma GCC diagnostic ignored "-Wsign-conversion"
  42:Drivers/CMSIS/Include/cmsis_gcc.h **** #pragma GCC diagnostic ignored "-Wconversion"
  43:Drivers/CMSIS/Include/cmsis_gcc.h **** #pragma GCC diagnostic ignored "-Wunused-parameter"
  44:Drivers/CMSIS/Include/cmsis_gcc.h **** #endif
  45:Drivers/CMSIS/Include/cmsis_gcc.h **** 
  46:Drivers/CMSIS/Include/cmsis_gcc.h **** 
  47:Drivers/CMSIS/Include/cmsis_gcc.h **** /* ###########################  Core Function Access  ########################### */
  48:Drivers/CMSIS/Include/cmsis_gcc.h **** /** \ingroup  CMSIS_Core_FunctionInterface
  49:Drivers/CMSIS/Include/cmsis_gcc.h ****     \defgroup CMSIS_Core_RegAccFunctions CMSIS Core Register Access Functions
  50:Drivers/CMSIS/Include/cmsis_gcc.h ****   @{
  51:Drivers/CMSIS/Include/cmsis_gcc.h ****  */
  52:Drivers/CMSIS/Include/cmsis_gcc.h **** 
  53:Drivers/CMSIS/Include/cmsis_gcc.h **** /**
  54:Drivers/CMSIS/Include/cmsis_gcc.h ****   \brief   Enable IRQ Interrupts
  55:Drivers/CMSIS/Include/cmsis_gcc.h ****   \details Enables IRQ interrupts by clearing the I-bit in the CPSR.
  56:Drivers/CMSIS/Include/cmsis_gcc.h ****            Can only be executed in Privileged modes.
  57:Drivers/CMSIS/Include/cmsis_gcc.h ****  */
  58:Drivers/CMSIS/Include/cmsis_gcc.h **** __attribute__( ( always_inline ) ) __STATIC_INLINE void __enable_irq(void)
  59:Drivers/CMSIS/Include/cmsis_gcc.h **** {
  60:Drivers/CMSIS/Include/cmsis_gcc.h ****   __ASM volatile ("cpsie i" : : : "memory");
  61:Drivers/CMSIS/Include/cmsis_gcc.h **** }
  62:Drivers/CMSIS/Include/cmsis_gcc.h **** 
  63:Drivers/CMSIS/Include/cmsis_gcc.h **** 
  64:Drivers/CMSIS/Include/cmsis_gcc.h **** /**
  65:Drivers/CMSIS/Include/cmsis_gcc.h ****   \brief   Disable IRQ Interrupts
  66:Drivers/CMSIS/Include/cmsis_gcc.h ****   \details Disables IRQ interrupts by setting the I-bit in the CPSR.
  67:Drivers/CMSIS/Include/cmsis_gcc.h ****   Can only be executed in Privileged modes.
  68:Drivers/CMSIS/Include/cmsis_gcc.h ****  */
  69:Drivers/CMSIS/Include/cmsis_gcc.h **** __attribute__( ( always_inline ) ) __STATIC_INLINE void __disable_irq(void)
 1783              		.loc 2 69 57 view .LVU457
 1784              	.LBB38:
ARM GAS  /tmp/ccMro7q3.s 			page 44


  70:Drivers/CMSIS/Include/cmsis_gcc.h **** {
  71:Drivers/CMSIS/Include/cmsis_gcc.h ****   __ASM volatile ("cpsid i" : : : "memory");
 1785              		.loc 2 71 3 view .LVU458
 1786              		.syntax unified
 1787              	@ 71 "Drivers/CMSIS/Include/cmsis_gcc.h" 1
 1788 001e 72B6     		cpsid i
 1789              	@ 0 "" 2
 1790              		.thumb
 1791              		.syntax unified
 1792              	.LBE38:
 1793              	.LBE37:
 345:src/sensorcoms.c ****     uint32_t start_cycles = DWT->CYCCNT;
 1794              		.loc 1 345 5 view .LVU459
 1795              		.loc 1 345 14 is_stmt 0 view .LVU460
 1796 0020 644A     		ldr	r2, .L154+4
 1797 0022 5768     		ldr	r7, [r2, #4]
 1798              	.LVL156:
 346:src/sensorcoms.c ****     uint32_t cycles = start_cycles;
 1799              		.loc 1 346 5 is_stmt 1 view .LVU461
 347:src/sensorcoms.c ****     char value = (gpioport->IDR & pin)?1:0;
 1800              		.loc 1 347 5 view .LVU462
 1801              		.loc 1 347 27 is_stmt 0 view .LVU463
 1802 0024 8268     		ldr	r2, [r0, #8]
 1803              		.loc 1 347 33 view .LVU464
 1804 0026 1E46     		mov	r6, r3
 1805              		.loc 1 347 41 view .LVU465
 1806 0028 1A42     		tst	r2, r3
 1807 002a 14BF     		ite	ne
 1808 002c 0121     		movne	r1, #1
 1809 002e 0021     		moveq	r1, #0
 1810              	.LVL157:
 1811              		.loc 1 347 41 view .LVU466
 1812 0030 0EE0     		b	.L133
 1813              	.LVL158:
 1814              	.L145:
 338:src/sensorcoms.c ****         pin = GPIO_PIN_11;
 1815              		.loc 1 338 18 view .LVU467
 1816 0032 6148     		ldr	r0, .L154+8
 1817              	.LVL159:
 339:src/sensorcoms.c ****     }
 1818              		.loc 1 339 13 view .LVU468
 1819 0034 4FF40063 		mov	r3, #2048
 1820 0038 F1E7     		b	.L130
 1821              	.LVL160:
 1822              	.L151:
 1823              	.LBB39:
 348:src/sensorcoms.c ****     do {
 349:src/sensorcoms.c ****         cycles = DWT->CYCCNT;
 350:src/sensorcoms.c ****         cycle_store[cycle_len] = cycles;
 351:src/sensorcoms.c **** 
 352:src/sensorcoms.c ****         char newvalue = (gpioport->IDR & pin)?1:0;
 353:src/sensorcoms.c ****         if (newvalue != value) {
 354:src/sensorcoms.c ****             cycle_len ++;
 1824              		.loc 1 354 13 is_stmt 1 view .LVU469
 1825              		.loc 1 354 23 is_stmt 0 view .LVU470
 1826 003a 1B99     		ldr	r1, [sp, #108]
 1827              	.LVL161:
ARM GAS  /tmp/ccMro7q3.s 			page 45


 1828              		.loc 1 354 23 view .LVU471
 1829 003c 0131     		adds	r1, r1, #1
 1830 003e 1B91     		str	r1, [sp, #108]
 355:src/sensorcoms.c ****             value = newvalue;
 1831              		.loc 1 355 13 is_stmt 1 view .LVU472
 1832              	.LVL162:
 1833              		.loc 1 355 19 is_stmt 0 view .LVU473
 1834 0040 1146     		mov	r1, r2
 1835              	.LVL163:
 1836              	.L131:
 1837              		.loc 1 355 19 view .LVU474
 1838              	.LBE39:
 356:src/sensorcoms.c ****         }
 357:src/sensorcoms.c ****     } while ((cycle_len < MAX_SAMPLES) && ((cycles - start_cycles) < 400000));
 1839              		.loc 1 357 40 is_stmt 1 view .LVU475
 1840              		.loc 1 357 25 is_stmt 0 view .LVU476
 1841 0042 1B9A     		ldr	r2, [sp, #108]
 1842              	.LVL164:
 1843              		.loc 1 357 40 view .LVU477
 1844 0044 632A     		cmp	r2, #99
 1845 0046 10DC     		bgt	.L132
 1846              		.loc 1 357 52 discriminator 1 view .LVU478
 1847 0048 DB1B     		subs	r3, r3, r7
 1848              	.LVL165:
 1849              		.loc 1 357 40 discriminator 1 view .LVU479
 1850 004a 5C4A     		ldr	r2, .L154+12
 1851 004c 9342     		cmp	r3, r2
 1852 004e 0CD8     		bhi	.L132
 1853              	.LVL166:
 1854              	.L133:
 348:src/sensorcoms.c ****         cycles = DWT->CYCCNT;
 1855              		.loc 1 348 5 is_stmt 1 view .LVU480
 1856              	.LBB40:
 349:src/sensorcoms.c ****         cycle_store[cycle_len] = cycles;
 1857              		.loc 1 349 9 view .LVU481
 349:src/sensorcoms.c ****         cycle_store[cycle_len] = cycles;
 1858              		.loc 1 349 16 is_stmt 0 view .LVU482
 1859 0050 584B     		ldr	r3, .L154+4
 1860 0052 5B68     		ldr	r3, [r3, #4]
 1861              	.LVL167:
 350:src/sensorcoms.c **** 
 1862              		.loc 1 350 9 is_stmt 1 view .LVU483
 350:src/sensorcoms.c **** 
 1863              		.loc 1 350 20 is_stmt 0 view .LVU484
 1864 0054 1B9A     		ldr	r2, [sp, #108]
 350:src/sensorcoms.c **** 
 1865              		.loc 1 350 32 view .LVU485
 1866 0056 44F82230 		str	r3, [r4, r2, lsl #2]
 352:src/sensorcoms.c ****         if (newvalue != value) {
 1867              		.loc 1 352 9 is_stmt 1 view .LVU486
 352:src/sensorcoms.c ****         if (newvalue != value) {
 1868              		.loc 1 352 34 is_stmt 0 view .LVU487
 1869 005a 8268     		ldr	r2, [r0, #8]
 352:src/sensorcoms.c ****         if (newvalue != value) {
 1870              		.loc 1 352 48 view .LVU488
 1871 005c 1642     		tst	r6, r2
 1872 005e 14BF     		ite	ne
ARM GAS  /tmp/ccMro7q3.s 			page 46


 1873 0060 0122     		movne	r2, #1
 1874 0062 0022     		moveq	r2, #0
 1875              	.LVL168:
 353:src/sensorcoms.c ****             cycle_len ++;
 1876              		.loc 1 353 9 is_stmt 1 view .LVU489
 353:src/sensorcoms.c ****             cycle_len ++;
 1877              		.loc 1 353 12 is_stmt 0 view .LVU490
 1878 0064 9142     		cmp	r1, r2
 1879 0066 E8D1     		bne	.L151
 353:src/sensorcoms.c ****             cycle_len ++;
 1880              		.loc 1 353 12 view .LVU491
 1881 0068 EBE7     		b	.L131
 1882              	.LVL169:
 1883              	.L132:
 353:src/sensorcoms.c ****             cycle_len ++;
 1884              		.loc 1 353 12 view .LVU492
 1885              	.LBE40:
 358:src/sensorcoms.c ****     __enable_irq(); // but we want all values at the same time, without interferance
 1886              		.loc 1 358 5 is_stmt 1 view .LVU493
 1887              	.LBB41:
 1888              	.LBI41:
  58:Drivers/CMSIS/Include/cmsis_gcc.h **** {
 1889              		.loc 2 58 57 view .LVU494
 1890              	.LBB42:
  60:Drivers/CMSIS/Include/cmsis_gcc.h **** }
 1891              		.loc 2 60 3 view .LVU495
 1892              		.syntax unified
 1893              	@ 60 "Drivers/CMSIS/Include/cmsis_gcc.h" 1
 1894 006a 62B6     		cpsie i
 1895              	@ 0 "" 2
 1896              		.thumb
 1897              		.syntax unified
 1898              	.LBE42:
 1899              	.LBE41:
 359:src/sensorcoms.c **** 
 360:src/sensorcoms.c ****     if (cycle_len > 10) {
 1900              		.loc 1 360 5 view .LVU496
 1901              		.loc 1 360 19 is_stmt 0 view .LVU497
 1902 006c 1B9B     		ldr	r3, [sp, #108]
 1903              		.loc 1 360 8 view .LVU498
 1904 006e 0A2B     		cmp	r3, #10
 1905 0070 40F39380 		ble	.L134
 1906              	.LBB43:
 361:src/sensorcoms.c ****         uint32_t first_time = cycle_store[0];
 1907              		.loc 1 361 9 is_stmt 1 view .LVU499
 1908              		.loc 1 361 18 is_stmt 0 view .LVU500
 1909 0074 2268     		ldr	r2, [r4]
 1910              	.LVL170:
 362:src/sensorcoms.c ****         uint32_t last_time = cycle_store[cycle_len-1];
 1911              		.loc 1 362 9 is_stmt 1 view .LVU501
 1912              		.loc 1 362 41 is_stmt 0 view .LVU502
 1913 0076 1B9B     		ldr	r3, [sp, #108]
 1914 0078 03F18043 		add	r3, r3, #1073741824
 1915 007c 013B     		subs	r3, r3, #1
 1916              		.loc 1 362 18 view .LVU503
 1917 007e 54F82370 		ldr	r7, [r4, r3, lsl #2]
 1918              	.LVL171:
ARM GAS  /tmp/ccMro7q3.s 			page 47


 363:src/sensorcoms.c ****         uint32_t total_time = last_time - first_time;
 1919              		.loc 1 363 9 is_stmt 1 view .LVU504
 1920              		.loc 1 363 18 is_stmt 0 view .LVU505
 1921 0082 BF1A     		subs	r7, r7, r2
 1922              	.LVL172:
 364:src/sensorcoms.c **** 
 365:src/sensorcoms.c ****         // convert to difference
 366:src/sensorcoms.c ****         int min_cycles = 100000;
 1923              		.loc 1 366 9 is_stmt 1 view .LVU506
 367:src/sensorcoms.c ****         for (int i = 0; i < cycle_len-1; i++) {
 1924              		.loc 1 367 9 view .LVU507
 1925              	.LBB44:
 1926              		.loc 1 367 14 view .LVU508
 1927              		.loc 1 367 18 is_stmt 0 view .LVU509
 1928 0084 0023     		movs	r3, #0
 1929              	.LVL173:
 1930              		.loc 1 367 18 view .LVU510
 1931              	.LBE44:
 366:src/sensorcoms.c ****         for (int i = 0; i < cycle_len-1; i++) {
 1932              		.loc 1 366 13 view .LVU511
 1933 0086 4E4E     		ldr	r6, .L154+16
 1934              	.LVL174:
 1935              	.LBB45:
 1936              		.loc 1 367 9 view .LVU512
 1937 0088 00E0     		b	.L135
 1938              	.LVL175:
 1939              	.L136:
 1940              		.loc 1 367 43 is_stmt 1 discriminator 2 view .LVU513
 1941 008a 0133     		adds	r3, r3, #1
 1942              	.LVL176:
 1943              	.L135:
 1944              		.loc 1 367 27 discriminator 1 view .LVU514
 1945              		.loc 1 367 38 is_stmt 0 discriminator 1 view .LVU515
 1946 008c 1B9A     		ldr	r2, [sp, #108]
 1947 008e 013A     		subs	r2, r2, #1
 1948              		.loc 1 367 27 discriminator 1 view .LVU516
 1949 0090 9A42     		cmp	r2, r3
 1950 0092 0BDD     		ble	.L152
 368:src/sensorcoms.c ****             cycle_store[i] = cycle_store[i+1] - cycle_store[i];
 1951              		.loc 1 368 13 is_stmt 1 view .LVU517
 1952              		.loc 1 368 41 is_stmt 0 view .LVU518
 1953 0094 5A1C     		adds	r2, r3, #1
 1954 0096 54F82220 		ldr	r2, [r4, r2, lsl #2]
 1955              		.loc 1 368 60 view .LVU519
 1956 009a 54F82310 		ldr	r1, [r4, r3, lsl #2]
 1957              		.loc 1 368 47 view .LVU520
 1958 009e 521A     		subs	r2, r2, r1
 1959              		.loc 1 368 28 view .LVU521
 1960 00a0 44F82320 		str	r2, [r4, r3, lsl #2]
 369:src/sensorcoms.c ****             if (cycle_store[i] < min_cycles) {
 1961              		.loc 1 369 13 is_stmt 1 view .LVU522
 1962              		.loc 1 369 16 is_stmt 0 view .LVU523
 1963 00a4 B242     		cmp	r2, r6
 1964 00a6 F0D2     		bcs	.L136
 370:src/sensorcoms.c ****                 min_cycles = cycle_store[i];
 1965              		.loc 1 370 17 is_stmt 1 view .LVU524
 1966              		.loc 1 370 28 is_stmt 0 view .LVU525
ARM GAS  /tmp/ccMro7q3.s 			page 48


 1967 00a8 1646     		mov	r6, r2
 1968              	.LVL177:
 1969              		.loc 1 370 28 view .LVU526
 1970 00aa EEE7     		b	.L136
 1971              	.LVL178:
 1972              	.L152:
 1973              		.loc 1 370 28 view .LVU527
 1974              	.LBE45:
 1975              	.LBB46:
 371:src/sensorcoms.c ****             }
 372:src/sensorcoms.c ****         }
 373:src/sensorcoms.c **** 
 374:src/sensorcoms.c **** 
 375:src/sensorcoms.c ****         int total_cycles = 0;
 376:src/sensorcoms.c ****         int num_cycles = 0;
 377:src/sensorcoms.c ****         for (int i = 0; i < cycle_len-1; i++) {
 1976              		.loc 1 377 18 view .LVU528
 1977 00ac 0022     		movs	r2, #0
 1978              	.LBE46:
 376:src/sensorcoms.c ****         for (int i = 0; i < cycle_len-1; i++) {
 1979              		.loc 1 376 13 view .LVU529
 1980 00ae 9046     		mov	r8, r2
 375:src/sensorcoms.c ****         int num_cycles = 0;
 1981              		.loc 1 375 13 view .LVU530
 1982 00b0 1046     		mov	r0, r2
 1983              	.LVL179:
 375:src/sensorcoms.c ****         int num_cycles = 0;
 1984              		.loc 1 375 13 view .LVU531
 1985 00b2 00E0     		b	.L138
 1986              	.LVL180:
 1987              	.L139:
 1988              	.LBB47:
 1989              		.loc 1 377 43 is_stmt 1 discriminator 2 view .LVU532
 1990 00b4 0132     		adds	r2, r2, #1
 1991              	.LVL181:
 1992              	.L138:
 1993              		.loc 1 377 27 discriminator 1 view .LVU533
 1994              		.loc 1 377 38 is_stmt 0 discriminator 1 view .LVU534
 1995 00b6 1B9B     		ldr	r3, [sp, #108]
 1996 00b8 013B     		subs	r3, r3, #1
 1997              		.loc 1 377 27 discriminator 1 view .LVU535
 1998 00ba 9342     		cmp	r3, r2
 1999 00bc 09DD     		ble	.L153
 378:src/sensorcoms.c ****             if (cycle_store[i] < min_cycles + 20) {
 2000              		.loc 1 378 13 is_stmt 1 view .LVU536
 2001              		.loc 1 378 28 is_stmt 0 view .LVU537
 2002 00be 54F82230 		ldr	r3, [r4, r2, lsl #2]
 2003              		.loc 1 378 45 view .LVU538
 2004 00c2 06F11401 		add	r1, r6, #20
 2005              		.loc 1 378 16 view .LVU539
 2006 00c6 8B42     		cmp	r3, r1
 2007 00c8 F4D2     		bcs	.L139
 379:src/sensorcoms.c ****                 total_cycles += cycle_store[i];
 2008              		.loc 1 379 17 is_stmt 1 view .LVU540
 2009              		.loc 1 379 30 is_stmt 0 view .LVU541
 2010 00ca 1844     		add	r0, r0, r3
 2011              	.LVL182:
ARM GAS  /tmp/ccMro7q3.s 			page 49


 380:src/sensorcoms.c ****                 num_cycles++;
 2012              		.loc 1 380 17 is_stmt 1 view .LVU542
 2013              		.loc 1 380 27 is_stmt 0 view .LVU543
 2014 00cc 08F10108 		add	r8, r8, #1
 2015              	.LVL183:
 2016              		.loc 1 380 27 view .LVU544
 2017 00d0 F0E7     		b	.L139
 2018              	.L153:
 2019              		.loc 1 380 27 view .LVU545
 2020              	.LBE47:
 381:src/sensorcoms.c ****             }
 382:src/sensorcoms.c ****         }
 383:src/sensorcoms.c **** 
 384:src/sensorcoms.c ****         float avg_cycles = 0;
 2021              		.loc 1 384 9 is_stmt 1 view .LVU546
 2022              	.LVL184:
 385:src/sensorcoms.c ****         if (num_cycles) {
 2023              		.loc 1 385 9 view .LVU547
 2024              		.loc 1 385 12 is_stmt 0 view .LVU548
 2025 00d2 B8F1000F 		cmp	r8, #0
 2026 00d6 5AD0     		beq	.L146
 386:src/sensorcoms.c ****             avg_cycles = (float)total_cycles/(float)num_cycles;
 2027              		.loc 1 386 13 is_stmt 1 view .LVU549
 2028              		.loc 1 386 26 is_stmt 0 view .LVU550
 2029 00d8 FFF7FEFF 		bl	__aeabi_i2f
 2030              	.LVL185:
 2031              		.loc 1 386 26 view .LVU551
 2032 00dc 8146     		mov	r9, r0
 2033              		.loc 1 386 46 view .LVU552
 2034 00de 4046     		mov	r0, r8
 2035 00e0 FFF7FEFF 		bl	__aeabi_i2f
 2036              	.LVL186:
 2037 00e4 0146     		mov	r1, r0
 2038              		.loc 1 386 24 view .LVU553
 2039 00e6 4846     		mov	r0, r9
 2040 00e8 FFF7FEFF 		bl	__aeabi_fdiv
 2041              	.LVL187:
 2042 00ec 8046     		mov	r8, r0
 2043              	.LVL188:
 2044              	.L141:
 387:src/sensorcoms.c ****         }
 388:src/sensorcoms.c ****         int freq = HAL_RCC_GetHCLKFreq();
 2045              		.loc 1 388 9 is_stmt 1 view .LVU554
 2046              		.loc 1 388 20 is_stmt 0 view .LVU555
 2047 00ee FFF7FEFF 		bl	HAL_RCC_GetHCLKFreq
 2048              	.LVL189:
 2049 00f2 8246     		mov	r10, r0
 2050              	.LVL190:
 389:src/sensorcoms.c ****         if (avg_cycles) {
 2051              		.loc 1 389 9 is_stmt 1 view .LVU556
 2052              		.loc 1 389 12 is_stmt 0 view .LVU557
 2053 00f4 0021     		movs	r1, #0
 2054 00f6 4046     		mov	r0, r8
 2055              	.LVL191:
 2056              		.loc 1 389 12 view .LVU558
 2057 00f8 FFF7FEFF 		bl	__aeabi_fcmpeq
 2058              	.LVL192:
ARM GAS  /tmp/ccMro7q3.s 			page 50


 2059 00fc 0028     		cmp	r0, #0
 2060 00fe 49D1     		bne	.L149
 390:src/sensorcoms.c ****             rate = (float)freq/avg_cycles;
 2061              		.loc 1 390 13 is_stmt 1 view .LVU559
 2062              		.loc 1 390 20 is_stmt 0 view .LVU560
 2063 0100 5046     		mov	r0, r10
 2064 0102 FFF7FEFF 		bl	__aeabi_i2f
 2065              	.LVL193:
 2066              		.loc 1 390 18 view .LVU561
 2067 0106 4146     		mov	r1, r8
 2068 0108 FFF7FEFF 		bl	__aeabi_fdiv
 2069              	.LVL194:
 2070 010c 8146     		mov	r9, r0
 2071              	.LVL195:
 2072              	.L142:
 391:src/sensorcoms.c ****         }
 392:src/sensorcoms.c **** 
 393:src/sensorcoms.c ****         float bits = (float)total_time/avg_cycles;
 2073              		.loc 1 393 9 is_stmt 1 view .LVU562
 2074              		.loc 1 393 22 is_stmt 0 view .LVU563
 2075 010e 3846     		mov	r0, r7
 2076 0110 FFF7FEFF 		bl	__aeabi_ui2f
 2077              	.LVL196:
 2078              		.loc 1 393 15 view .LVU564
 2079 0114 4146     		mov	r1, r8
 2080 0116 FFF7FEFF 		bl	__aeabi_fdiv
 2081              	.LVL197:
 2082 011a 8346     		mov	fp, r0
 2083              	.LVL198:
 394:src/sensorcoms.c ****         sprintf(t, "usart %d\r\n", side+2 );
 2084              		.loc 1 394 9 is_stmt 1 view .LVU565
 2085 011c AA1C     		adds	r2, r5, #2
 2086 011e 2949     		ldr	r1, .L154+20
 2087 0120 02A8     		add	r0, sp, #8
 2088              	.LVL199:
 2089              		.loc 1 394 9 is_stmt 0 view .LVU566
 2090 0122 FFF7FEFF 		bl	sprintf
 2091              	.LVL200:
 395:src/sensorcoms.c ****         consoleLog(t);
 2092              		.loc 1 395 9 is_stmt 1 view .LVU567
 2093 0126 02A8     		add	r0, sp, #8
 2094 0128 FFF7FEFF 		bl	consoleLog
 2095              	.LVL201:
 396:src/sensorcoms.c ****         sprintf(t, "min time %d avg short time x 100 %d clk %d baud %d\r\n", min_cycles, (int)(avg_
 2096              		.loc 1 396 9 view .LVU568
 2097              		.loc 1 396 106 is_stmt 0 view .LVU569
 2098 012c 2649     		ldr	r1, .L154+24
 2099 012e 4046     		mov	r0, r8
 2100 0130 FFF7FEFF 		bl	__aeabi_fmul
 2101              	.LVL202:
 2102              		.loc 1 396 9 view .LVU570
 2103 0134 FFF7FEFF 		bl	__aeabi_f2iz
 2104              	.LVL203:
 2105 0138 0546     		mov	r5, r0
 2106              	.LVL204:
 2107              		.loc 1 396 9 view .LVU571
 2108 013a 4846     		mov	r0, r9
ARM GAS  /tmp/ccMro7q3.s 			page 51


 2109 013c FFF7FEFF 		bl	__aeabi_f2iz
 2110              	.LVL205:
 2111 0140 0190     		str	r0, [sp, #4]
 2112 0142 CDF800A0 		str	r10, [sp]
 2113 0146 2B46     		mov	r3, r5
 2114 0148 3246     		mov	r2, r6
 2115 014a 2049     		ldr	r1, .L154+28
 2116 014c 02A8     		add	r0, sp, #8
 2117 014e FFF7FEFF 		bl	sprintf
 2118              	.LVL206:
 397:src/sensorcoms.c ****         consoleLog(t);
 2119              		.loc 1 397 9 is_stmt 1 view .LVU572
 2120 0152 02A8     		add	r0, sp, #8
 2121 0154 FFF7FEFF 		bl	consoleLog
 2122              	.LVL207:
 398:src/sensorcoms.c ****         sprintf(t, "total cycles %d, bits x 100 %d\r\n", (int)total_time, (int)(bits*100.0));
 2123              		.loc 1 398 9 view .LVU573
 2124              		.loc 1 398 85 is_stmt 0 view .LVU574
 2125 0158 5846     		mov	r0, fp
 2126 015a FFF7FEFF 		bl	__aeabi_f2d
 2127              	.LVL208:
 2128 015e 0022     		movs	r2, #0
 2129 0160 1B4B     		ldr	r3, .L154+32
 2130 0162 FFF7FEFF 		bl	__aeabi_dmul
 2131              	.LVL209:
 2132              		.loc 1 398 9 view .LVU575
 2133 0166 FFF7FEFF 		bl	__aeabi_d2iz
 2134              	.LVL210:
 2135 016a 0346     		mov	r3, r0
 2136 016c 3A46     		mov	r2, r7
 2137 016e 1949     		ldr	r1, .L154+36
 2138 0170 02A8     		add	r0, sp, #8
 2139 0172 FFF7FEFF 		bl	sprintf
 2140              	.LVL211:
 399:src/sensorcoms.c ****         consoleLog(t);
 2141              		.loc 1 399 9 is_stmt 1 view .LVU576
 2142 0176 02A8     		add	r0, sp, #8
 2143 0178 FFF7FEFF 		bl	consoleLog
 2144              	.LVL212:
 2145              	.L144:
 2146              		.loc 1 399 9 is_stmt 0 view .LVU577
 2147              	.LBE43:
 400:src/sensorcoms.c ****     } else {
 401:src/sensorcoms.c ****         sprintf(t, "usart %d\r\nno input?\r\n", side+2 );
 402:src/sensorcoms.c ****         consoleLog(t);
 403:src/sensorcoms.c ****     }
 404:src/sensorcoms.c **** 
 405:src/sensorcoms.c ****     free(cycle_store);
 2148              		.loc 1 405 5 is_stmt 1 view .LVU578
 2149 017c 2046     		mov	r0, r4
 2150 017e FFF7FEFF 		bl	free
 2151              	.LVL213:
 406:src/sensorcoms.c ****     cycle_store = NULL;
 2152              		.loc 1 406 5 view .LVU579
 407:src/sensorcoms.c **** 
 408:src/sensorcoms.c ****     // may be zero
 409:src/sensorcoms.c ****     return (int)rate;
ARM GAS  /tmp/ccMro7q3.s 			page 52


 2153              		.loc 1 409 5 view .LVU580
 2154              		.loc 1 409 12 is_stmt 0 view .LVU581
 2155 0182 4846     		mov	r0, r9
 2156 0184 FFF7FEFF 		bl	__aeabi_f2iz
 2157              	.LVL214:
 410:src/sensorcoms.c **** }
 2158              		.loc 1 410 1 view .LVU582
 2159 0188 1DB0     		add	sp, sp, #116
 2160              	.LCFI19:
 2161              		.cfi_remember_state
 2162              		.cfi_def_cfa_offset 36
 2163              		@ sp needed
 2164 018a BDE8F08F 		pop	{r4, r5, r6, r7, r8, r9, r10, fp, pc}
 2165              	.LVL215:
 2166              	.L146:
 2167              	.LCFI20:
 2168              		.cfi_restore_state
 2169              	.LBB48:
 384:src/sensorcoms.c ****         if (num_cycles) {
 2170              		.loc 1 384 15 view .LVU583
 2171 018e 4FF00008 		mov	r8, #0
 2172              	.LVL216:
 384:src/sensorcoms.c ****         if (num_cycles) {
 2173              		.loc 1 384 15 view .LVU584
 2174 0192 ACE7     		b	.L141
 2175              	.LVL217:
 2176              	.L149:
 384:src/sensorcoms.c ****         if (num_cycles) {
 2177              		.loc 1 384 15 view .LVU585
 2178              	.LBE48:
 330:src/sensorcoms.c ****     uint16_t pin;
 2179              		.loc 1 330 11 view .LVU586
 2180 0194 4FF00009 		mov	r9, #0
 2181 0198 B9E7     		b	.L142
 2182              	.LVL218:
 2183              	.L134:
 2184              	.LBB49:
 401:src/sensorcoms.c ****         consoleLog(t);
 2185              		.loc 1 401 9 is_stmt 1 view .LVU587
 2186 019a AA1C     		adds	r2, r5, #2
 2187 019c 0E49     		ldr	r1, .L154+40
 2188              	.LVL219:
 401:src/sensorcoms.c ****         consoleLog(t);
 2189              		.loc 1 401 9 is_stmt 0 view .LVU588
 2190 019e 02A8     		add	r0, sp, #8
 2191              	.LVL220:
 401:src/sensorcoms.c ****         consoleLog(t);
 2192              		.loc 1 401 9 view .LVU589
 2193 01a0 FFF7FEFF 		bl	sprintf
 2194              	.LVL221:
 402:src/sensorcoms.c ****     }
 2195              		.loc 1 402 9 is_stmt 1 view .LVU590
 2196 01a4 02A8     		add	r0, sp, #8
 2197 01a6 FFF7FEFF 		bl	consoleLog
 2198              	.LVL222:
 2199              	.LBE49:
 330:src/sensorcoms.c ****     uint16_t pin;
ARM GAS  /tmp/ccMro7q3.s 			page 53


 2200              		.loc 1 330 11 is_stmt 0 view .LVU591
 2201 01aa 4FF00009 		mov	r9, #0
 2202 01ae E5E7     		b	.L144
 2203              	.L155:
 2204              		.align	2
 2205              	.L154:
 2206 01b0 00080140 		.word	1073809408
 2207 01b4 001000E0 		.word	-536866816
 2208 01b8 000C0140 		.word	1073810432
 2209 01bc 7F1A0600 		.word	399999
 2210 01c0 A0860100 		.word	100000
 2211 01c4 00000000 		.word	.LC12
 2212 01c8 0000C842 		.word	1120403456
 2213 01cc 0C000000 		.word	.LC13
 2214 01d0 00005940 		.word	1079574528
 2215 01d4 44000000 		.word	.LC14
 2216 01d8 68000000 		.word	.LC15
 2217              		.cfi_endproc
 2218              	.LFE79:
 2220              		.global	diag_count
 2221              		.section	.bss.diag_count,"aw",%nobits
 2222              		.align	2
 2225              	diag_count:
 2226 0000 00000000 		.space	4
 2227              		.comm	sensorlights,12,4
 2228              		.comm	sensor_data,148,4
 2229              		.text
 2230              	.Letext0:
 2231              		.file 3 "/usr/lib/gcc/arm-none-eabi/13.2.1/include/stdint.h"
 2232              		.file 4 "Drivers/CMSIS/Include/core_cm3.h"
 2233              		.file 5 "Drivers/CMSIS/Device/ST/STM32F1xx/Include/stm32f103xe.h"
 2234              		.file 6 "/usr/lib/gcc/arm-none-eabi/13.2.1/include/stddef.h"
 2235              		.file 7 "inc/protocol.h"
 2236              		.file 8 "inc/control_structures.h"
 2237              		.file 9 "inc/sensorcoms.h"
 2238              		.file 10 "inc/comms.h"
 2239              		.file 11 "inc/flashcontent.h"
 2240              		.file 12 "Drivers/STM32F1xx_HAL_Driver/Inc/stm32f1xx_hal_rcc.h"
 2241              		.file 13 "Drivers/STM32F1xx_HAL_Driver/Inc/stm32f1xx_hal.h"
 2242              		.file 14 "/usr/include/newlib/stdlib.h"
 2243              		.file 15 "/usr/include/newlib/string.h"
 2244              		.file 16 "/usr/include/newlib/stdio.h"
 2245              		.file 17 "<built-in>"
ARM GAS  /tmp/ccMro7q3.s 			page 54

