ARM GAS  /tmp/ccs4xsFa.s 			page 1


   1              		.cpu cortex-m3
   2              		.arch armv7-m
   3              		.fpu softvfp
   4              		.eabi_attribute 20, 1
   5              		.eabi_attribute 21, 1
   6              		.eabi_attribute 23, 3
   7              		.eabi_attribute 24, 1
   8              		.eabi_attribute 25, 1
   9              		.eabi_attribute 26, 1
  10              		.eabi_attribute 30, 1
  11              		.eabi_attribute 34, 1
  12              		.eabi_attribute 18, 4
  13              		.file	"softwareserial.c"
  14              		.text
  15              	.Ltext0:
  16              		.cfi_sections	.debug_frame
  17              		.file 1 "src/softwareserial.c"
  18              		.section	.text.SoftwareSerialReadTimer,"ax",%progbits
  19              		.align	1
  20              		.global	SoftwareSerialReadTimer
  21              		.syntax unified
  22              		.thumb
  23              		.thumb_func
  25              	SoftwareSerialReadTimer:
  26              	.LFB66:
   1:src/softwareserial.c **** /*
   2:src/softwareserial.c **** * This file is part of the hoverboard-firmware-hack project.
   3:src/softwareserial.c **** *
   4:src/softwareserial.c **** * Copyright (C) 2018 Simon Hailes <btsimonh@googlemail.com>
   5:src/softwareserial.c **** *
   6:src/softwareserial.c **** * This program is free software: you can redistribute it and/or modify
   7:src/softwareserial.c **** * it under the terms of the GNU General Public License as published by
   8:src/softwareserial.c **** * the Free Software Foundation, either version 3 of the License, or
   9:src/softwareserial.c **** * (at your option) any later version.
  10:src/softwareserial.c **** *
  11:src/softwareserial.c **** * This program is distributed in the hope that it will be useful,
  12:src/softwareserial.c **** * but WITHOUT ANY WARRANTY; without even the implied warranty of
  13:src/softwareserial.c **** * MERCHANTABILITY or FITNESS FOR A PARTICULAR PURPOSE.  See the
  14:src/softwareserial.c **** * GNU General Public License for more details.
  15:src/softwareserial.c **** *
  16:src/softwareserial.c **** * You should have received a copy of the GNU General Public License
  17:src/softwareserial.c **** * along with this program.  If not, see <http://www.gnu.org/licenses/>.
  18:src/softwareserial.c **** */
  19:src/softwareserial.c **** #include "stm32f1xx_hal.h"
  20:src/softwareserial.c **** #include "defines.h"
  21:src/softwareserial.c **** #include "config.h"
  22:src/softwareserial.c **** #include <string.h>
  23:src/softwareserial.c **** 
  24:src/softwareserial.c **** #ifdef SOFTWARE_SERIAL
  25:src/softwareserial.c **** #include "softwareserial.h"
  26:src/softwareserial.c **** 
  27:src/softwareserial.c **** #define SOFTWARE_SERIAL_RX_TIMER_FREQ (SOFTWARE_SERIAL_BAUD*4)
  28:src/softwareserial.c **** #define SOFTWARE_SERIAL_TX_TIMER_FREQ (SOFTWARE_SERIAL_BAUD)
  29:src/softwareserial.c **** 
  30:src/softwareserial.c **** // assume 10 bit
  31:src/softwareserial.c **** #define SOFTWARE_SERIAL_MS_PER_BYTE (1000.0/((float)SOFTWARE_SERIAL_BAUD/10.0))
  32:src/softwareserial.c **** 
ARM GAS  /tmp/ccs4xsFa.s 			page 2


  33:src/softwareserial.c **** 
  34:src/softwareserial.c **** TIM_HandleTypeDef softwareserialtimer;
  35:src/softwareserial.c **** TIM_HandleTypeDef softwareserialtimerTX;
  36:src/softwareserial.c **** 
  37:src/softwareserial.c **** volatile unsigned int timerval = 0;
  38:src/softwareserial.c **** volatile unsigned int ssbits = 0;
  39:src/softwareserial.c **** 
  40:src/softwareserial.c **** #define SOFTWARE_SERIAL_BUFFER_SIZE 1024
  41:src/softwareserial.c **** typedef struct tag_SOFTWARE_SERIAL_BUFFER {
  42:src/softwareserial.c ****     volatile unsigned char buff[SOFTWARE_SERIAL_BUFFER_SIZE];
  43:src/softwareserial.c ****     volatile int head;
  44:src/softwareserial.c ****     volatile int tail;
  45:src/softwareserial.c ****     volatile int bit;
  46:src/softwareserial.c **** 
  47:src/softwareserial.c ****     volatile uint32_t lasttime;
  48:src/softwareserial.c ****     volatile char lastvalue;
  49:src/softwareserial.c **** 
  50:src/softwareserial.c ****     // count of buffer overflows
  51:src/softwareserial.c ****     volatile unsigned int overflow;
  52:src/softwareserial.c **** 
  53:src/softwareserial.c **** } SOFTWARE_SERIAL_BUFFER;
  54:src/softwareserial.c **** 
  55:src/softwareserial.c **** volatile SOFTWARE_SERIAL_BUFFER softwareserialRXbuffer;
  56:src/softwareserial.c **** volatile SOFTWARE_SERIAL_BUFFER softwareserialTXbuffer;
  57:src/softwareserial.c **** 
  58:src/softwareserial.c **** void SoftwareSerialReadTimer(void){
  27              		.loc 1 58 35 view -0
  28              		.cfi_startproc
  29              		@ args = 0, pretend = 0, frame = 0
  30              		@ frame_needed = 0, uses_anonymous_args = 0
  31              		@ link register save eliminated.
  59:src/softwareserial.c ****   unsigned int time = softwareserialtimer.Instance->CNT;
  32              		.loc 1 59 3 view .LVU1
  33              		.loc 1 59 42 is_stmt 0 view .LVU2
  34 0000 024B     		ldr	r3, .L2
  35 0002 1B68     		ldr	r3, [r3]
  36              		.loc 1 59 16 view .LVU3
  37 0004 5A6A     		ldr	r2, [r3, #36]
  38              	.LVL0:
  60:src/softwareserial.c ****   timerval = time;
  39              		.loc 1 60 3 is_stmt 1 view .LVU4
  40              		.loc 1 60 12 is_stmt 0 view .LVU5
  41 0006 024B     		ldr	r3, .L2+4
  42 0008 1A60     		str	r2, [r3]
  61:src/softwareserial.c **** }
  43              		.loc 1 61 1 view .LVU6
  44 000a 7047     		bx	lr
  45              	.L3:
  46              		.align	2
  47              	.L2:
  48 000c 00000000 		.word	softwareserialtimer
  49 0010 00000000 		.word	timerval
  50              		.cfi_endproc
  51              	.LFE66:
  53              		.section	.text.SoftwareSerialInit,"ax",%progbits
  54              		.align	1
  55              		.global	SoftwareSerialInit
ARM GAS  /tmp/ccs4xsFa.s 			page 3


  56              		.syntax unified
  57              		.thumb
  58              		.thumb_func
  60              	SoftwareSerialInit:
  61              	.LFB67:
  62:src/softwareserial.c **** 
  63:src/softwareserial.c **** void SoftwareSerialInit(void){
  62              		.loc 1 63 30 is_stmt 1 view -0
  63              		.cfi_startproc
  64              		@ args = 0, pretend = 0, frame = 32
  65              		@ frame_needed = 0, uses_anonymous_args = 0
  66 0000 2DE9F041 		push	{r4, r5, r6, r7, r8, lr}
  67              	.LCFI0:
  68              		.cfi_def_cfa_offset 24
  69              		.cfi_offset 4, -24
  70              		.cfi_offset 5, -20
  71              		.cfi_offset 6, -16
  72              		.cfi_offset 7, -12
  73              		.cfi_offset 8, -8
  74              		.cfi_offset 14, -4
  75 0004 88B0     		sub	sp, sp, #32
  76              	.LCFI1:
  77              		.cfi_def_cfa_offset 56
  64:src/softwareserial.c ****   memset((void *)&softwareserialRXbuffer, 0, sizeof(softwareserialRXbuffer));
  78              		.loc 1 64 3 view .LVU8
  79 0006 464D     		ldr	r5, .L6
  80 0008 4FF48366 		mov	r6, #1048
  81 000c 3246     		mov	r2, r6
  82 000e 0021     		movs	r1, #0
  83 0010 2846     		mov	r0, r5
  84 0012 FFF7FEFF 		bl	memset
  85              	.LVL1:
  65:src/softwareserial.c ****   memset((void *)&softwareserialTXbuffer, 0, sizeof(softwareserialTXbuffer));
  86              		.loc 1 65 3 view .LVU9
  87 0016 434C     		ldr	r4, .L6+4
  88 0018 3246     		mov	r2, r6
  89 001a 0021     		movs	r1, #0
  90 001c 2046     		mov	r0, r4
  91 001e FFF7FEFF 		bl	memset
  92              	.LVL2:
  66:src/softwareserial.c **** 
  67:src/softwareserial.c ****   softwareserialRXbuffer.bit = -1; // awaiting start bit
  93              		.loc 1 67 3 view .LVU10
  94              		.loc 1 67 30 is_stmt 0 view .LVU11
  95 0022 4FF0FF33 		mov	r3, #-1
  96 0026 C5F80834 		str	r3, [r5, #1032]
  68:src/softwareserial.c ****   softwareserialTXbuffer.bit = -1; // awaiting start bit
  97              		.loc 1 68 3 is_stmt 1 view .LVU12
  98              		.loc 1 68 30 is_stmt 0 view .LVU13
  99 002a C4F80834 		str	r3, [r4, #1032]
  69:src/softwareserial.c **** 
  70:src/softwareserial.c ****   // setup our GPIO pin for rising and falling interrupts
  71:src/softwareserial.c ****   GPIO_InitTypeDef GPIO_InitStruct;
 100              		.loc 1 71 3 is_stmt 1 view .LVU14
  72:src/softwareserial.c ****   GPIO_InitStruct.Mode  = GPIO_MODE_INPUT;
 101              		.loc 1 72 3 view .LVU15
 102              		.loc 1 72 25 is_stmt 0 view .LVU16
ARM GAS  /tmp/ccs4xsFa.s 			page 4


 103 002e 0024     		movs	r4, #0
 104 0030 0594     		str	r4, [sp, #20]
  73:src/softwareserial.c ****   GPIO_InitStruct.Pull  = GPIO_PULLUP;
 105              		.loc 1 73 3 is_stmt 1 view .LVU17
 106              		.loc 1 73 25 is_stmt 0 view .LVU18
 107 0032 0127     		movs	r7, #1
 108 0034 0697     		str	r7, [sp, #24]
  74:src/softwareserial.c ****   GPIO_InitStruct.Speed = GPIO_SPEED_FREQ_HIGH;
 109              		.loc 1 74 3 is_stmt 1 view .LVU19
 110              		.loc 1 74 25 is_stmt 0 view .LVU20
 111 0036 0323     		movs	r3, #3
 112 0038 0793     		str	r3, [sp, #28]
  75:src/softwareserial.c **** 
  76:src/softwareserial.c ****   GPIO_InitStruct.Pin = SOFTWARE_SERIAL_RX_PIN;
 113              		.loc 1 76 3 is_stmt 1 view .LVU21
 114              		.loc 1 76 23 is_stmt 0 view .LVU22
 115 003a 4FF48043 		mov	r3, #16384
 116 003e 0493     		str	r3, [sp, #16]
  77:src/softwareserial.c ****   GPIO_InitStruct.Mode  = GPIO_MODE_IT_RISING_FALLING;
 117              		.loc 1 77 3 is_stmt 1 view .LVU23
 118              		.loc 1 77 25 is_stmt 0 view .LVU24
 119 0040 394B     		ldr	r3, .L6+8
 120 0042 0593     		str	r3, [sp, #20]
  78:src/softwareserial.c ****   HAL_GPIO_Init(SOFTWARE_SERIAL_RX_PORT, &GPIO_InitStruct);
 121              		.loc 1 78 3 is_stmt 1 view .LVU25
 122 0044 DFF8E480 		ldr	r8, .L6+12
 123 0048 04A9     		add	r1, sp, #16
 124 004a 4046     		mov	r0, r8
 125 004c FFF7FEFF 		bl	HAL_GPIO_Init
 126              	.LVL3:
  79:src/softwareserial.c **** 
  80:src/softwareserial.c **** 
  81:src/softwareserial.c ****   // setup TIM5: Changed from TIM2 to avoid conflict with control.c
  82:src/softwareserial.c ****   __HAL_RCC_TIM5_CLK_ENABLE();
 127              		.loc 1 82 3 view .LVU26
 128              	.LBB10:
 129              		.loc 1 82 3 view .LVU27
 130              		.loc 1 82 3 view .LVU28
 131 0050 374E     		ldr	r6, .L6+16
 132 0052 F369     		ldr	r3, [r6, #28]
 133 0054 43F00803 		orr	r3, r3, #8
 134 0058 F361     		str	r3, [r6, #28]
 135              		.loc 1 82 3 view .LVU29
 136 005a F369     		ldr	r3, [r6, #28]
 137 005c 03F00803 		and	r3, r3, #8
 138 0060 0193     		str	r3, [sp, #4]
 139              		.loc 1 82 3 view .LVU30
 140 0062 019B     		ldr	r3, [sp, #4]
 141              	.LBE10:
 142              		.loc 1 82 3 view .LVU31
  83:src/softwareserial.c ****   softwareserialtimer.Instance = TIM5;
 143              		.loc 1 83 3 view .LVU32
 144              		.loc 1 83 32 is_stmt 0 view .LVU33
 145 0064 334D     		ldr	r5, .L6+20
 146 0066 344B     		ldr	r3, .L6+24
 147 0068 2B60     		str	r3, [r5]
  84:src/softwareserial.c ****   softwareserialtimer.Init.Prescaler         = 64000000 / 2 / SOFTWARE_SERIAL_RX_TIMER_FREQ;
ARM GAS  /tmp/ccs4xsFa.s 			page 5


 148              		.loc 1 84 3 is_stmt 1 view .LVU34
 149              		.loc 1 84 46 is_stmt 0 view .LVU35
 150 006a 4523     		movs	r3, #69
 151 006c 6B60     		str	r3, [r5, #4]
  85:src/softwareserial.c ****   softwareserialtimer.Init.CounterMode       = TIM_COUNTERMODE_UP;
 152              		.loc 1 85 3 is_stmt 1 view .LVU36
 153              		.loc 1 85 46 is_stmt 0 view .LVU37
 154 006e AC60     		str	r4, [r5, #8]
  86:src/softwareserial.c ****   softwareserialtimer.Init.Period            = 0xFFFF;
 155              		.loc 1 86 3 is_stmt 1 view .LVU38
 156              		.loc 1 86 46 is_stmt 0 view .LVU39
 157 0070 4FF6FF73 		movw	r3, #65535
 158 0074 EB60     		str	r3, [r5, #12]
  87:src/softwareserial.c ****   softwareserialtimer.Init.ClockDivision     = TIM_CLOCKDIVISION_DIV1;
 159              		.loc 1 87 3 is_stmt 1 view .LVU40
 160              		.loc 1 87 46 is_stmt 0 view .LVU41
 161 0076 2C61     		str	r4, [r5, #16]
  88:src/softwareserial.c ****   softwareserialtimer.Init.RepetitionCounter = 0;
 162              		.loc 1 88 3 is_stmt 1 view .LVU42
 163              		.loc 1 88 46 is_stmt 0 view .LVU43
 164 0078 6C61     		str	r4, [r5, #20]
  89:src/softwareserial.c ****   softwareserialtimer.Init.AutoReloadPreload = TIM_AUTORELOAD_PRELOAD_DISABLE;
 165              		.loc 1 89 3 is_stmt 1 view .LVU44
 166              		.loc 1 89 46 is_stmt 0 view .LVU45
 167 007a AC61     		str	r4, [r5, #24]
  90:src/softwareserial.c ****   HAL_TIM_Base_Init(&softwareserialtimer);
 168              		.loc 1 90 3 is_stmt 1 view .LVU46
 169 007c 2846     		mov	r0, r5
 170 007e FFF7FEFF 		bl	HAL_TIM_Base_Init
 171              	.LVL4:
  91:src/softwareserial.c ****   HAL_TIM_Base_Start(&softwareserialtimer);
 172              		.loc 1 91 3 view .LVU47
 173 0082 2846     		mov	r0, r5
 174 0084 FFF7FEFF 		bl	HAL_TIM_Base_Start
 175              	.LVL5:
  92:src/softwareserial.c **** 
  93:src/softwareserial.c **** 
  94:src/softwareserial.c ****   GPIO_InitStruct.Mode  = GPIO_MODE_OUTPUT_PP;
 176              		.loc 1 94 3 view .LVU48
 177              		.loc 1 94 25 is_stmt 0 view .LVU49
 178 0088 0597     		str	r7, [sp, #20]
  95:src/softwareserial.c ****   GPIO_InitStruct.Pull  = GPIO_NOPULL;
 179              		.loc 1 95 3 is_stmt 1 view .LVU50
 180              		.loc 1 95 25 is_stmt 0 view .LVU51
 181 008a 0694     		str	r4, [sp, #24]
  96:src/softwareserial.c ****   GPIO_InitStruct.Speed = GPIO_SPEED_FREQ_LOW;
 182              		.loc 1 96 3 is_stmt 1 view .LVU52
 183              		.loc 1 96 25 is_stmt 0 view .LVU53
 184 008c 0223     		movs	r3, #2
 185 008e 0793     		str	r3, [sp, #28]
  97:src/softwareserial.c **** 
  98:src/softwareserial.c ****   GPIO_InitStruct.Pin = SOFTWARE_SERIAL_TX_PIN;
 186              		.loc 1 98 3 is_stmt 1 view .LVU54
 187              		.loc 1 98 23 is_stmt 0 view .LVU55
 188 0090 4FF40053 		mov	r3, #8192
 189 0094 0493     		str	r3, [sp, #16]
  99:src/softwareserial.c ****   HAL_GPIO_Init(SOFTWARE_SERIAL_TX_PORT, &GPIO_InitStruct);
ARM GAS  /tmp/ccs4xsFa.s 			page 6


 190              		.loc 1 99 3 is_stmt 1 view .LVU56
 191 0096 04A9     		add	r1, sp, #16
 192 0098 4046     		mov	r0, r8
 193 009a FFF7FEFF 		bl	HAL_GPIO_Init
 194              	.LVL6:
 100:src/softwareserial.c **** 
 101:src/softwareserial.c ****   // setup TIM3:
 102:src/softwareserial.c ****   __HAL_RCC_TIM3_CLK_ENABLE();
 195              		.loc 1 102 3 view .LVU57
 196              	.LBB11:
 197              		.loc 1 102 3 view .LVU58
 198              		.loc 1 102 3 view .LVU59
 199 009e F369     		ldr	r3, [r6, #28]
 200 00a0 43F00203 		orr	r3, r3, #2
 201 00a4 F361     		str	r3, [r6, #28]
 202              		.loc 1 102 3 view .LVU60
 203 00a6 F369     		ldr	r3, [r6, #28]
 204 00a8 03F00203 		and	r3, r3, #2
 205 00ac 0293     		str	r3, [sp, #8]
 206              		.loc 1 102 3 view .LVU61
 207 00ae 029B     		ldr	r3, [sp, #8]
 208              	.LBE11:
 209              		.loc 1 102 3 view .LVU62
 103:src/softwareserial.c ****   softwareserialtimerTX.Instance = TIM3;
 210              		.loc 1 103 3 view .LVU63
 211              		.loc 1 103 34 is_stmt 0 view .LVU64
 212 00b0 224D     		ldr	r5, .L6+28
 213 00b2 234B     		ldr	r3, .L6+32
 214 00b4 2B60     		str	r3, [r5]
 104:src/softwareserial.c ****   softwareserialtimerTX.Init.Prescaler         = 64000000 / 2 / SOFTWARE_SERIAL_TX_TIMER_FREQ;
 215              		.loc 1 104 3 is_stmt 1 view .LVU65
 216              		.loc 1 104 48 is_stmt 0 view .LVU66
 217 00b6 40F21513 		movw	r3, #277
 218 00ba 6B60     		str	r3, [r5, #4]
 105:src/softwareserial.c ****   softwareserialtimerTX.Init.CounterMode       = TIM_COUNTERMODE_UP;
 219              		.loc 1 105 3 is_stmt 1 view .LVU67
 220              		.loc 1 105 48 is_stmt 0 view .LVU68
 221 00bc AC60     		str	r4, [r5, #8]
 106:src/softwareserial.c ****   softwareserialtimerTX.Init.Period            = 1;
 222              		.loc 1 106 3 is_stmt 1 view .LVU69
 223              		.loc 1 106 48 is_stmt 0 view .LVU70
 224 00be EF60     		str	r7, [r5, #12]
 107:src/softwareserial.c ****   softwareserialtimerTX.Init.ClockDivision     = TIM_CLOCKDIVISION_DIV1;
 225              		.loc 1 107 3 is_stmt 1 view .LVU71
 226              		.loc 1 107 48 is_stmt 0 view .LVU72
 227 00c0 2C61     		str	r4, [r5, #16]
 108:src/softwareserial.c ****   softwareserialtimerTX.Init.RepetitionCounter = 0;
 228              		.loc 1 108 3 is_stmt 1 view .LVU73
 229              		.loc 1 108 48 is_stmt 0 view .LVU74
 230 00c2 6C61     		str	r4, [r5, #20]
 109:src/softwareserial.c ****   softwareserialtimerTX.Init.AutoReloadPreload = TIM_AUTORELOAD_PRELOAD_DISABLE;
 231              		.loc 1 109 3 is_stmt 1 view .LVU75
 232              		.loc 1 109 48 is_stmt 0 view .LVU76
 233 00c4 AC61     		str	r4, [r5, #24]
 110:src/softwareserial.c ****   HAL_TIM_Base_Init(&softwareserialtimerTX);
 234              		.loc 1 110 3 is_stmt 1 view .LVU77
 235 00c6 2846     		mov	r0, r5
ARM GAS  /tmp/ccs4xsFa.s 			page 7


 236 00c8 FFF7FEFF 		bl	HAL_TIM_Base_Init
 237              	.LVL7:
 111:src/softwareserial.c ****   HAL_TIM_Base_Start(&softwareserialtimerTX);
 238              		.loc 1 111 3 view .LVU78
 239 00cc 2846     		mov	r0, r5
 240 00ce FFF7FEFF 		bl	HAL_TIM_Base_Start
 241              	.LVL8:
 112:src/softwareserial.c ****   __HAL_TIM_ENABLE_IT(&softwareserialtimerTX, TIM_IT_UPDATE);
 242              		.loc 1 112 3 view .LVU79
 243 00d2 2A68     		ldr	r2, [r5]
 244 00d4 D368     		ldr	r3, [r2, #12]
 245 00d6 3B43     		orrs	r3, r3, r7
 246 00d8 D360     		str	r3, [r2, #12]
 113:src/softwareserial.c ****   HAL_NVIC_SetPriority(TIM3_IRQn, 0, 0);
 247              		.loc 1 113 3 view .LVU80
 248 00da 2246     		mov	r2, r4
 249 00dc 2146     		mov	r1, r4
 250 00de 1D20     		movs	r0, #29
 251 00e0 FFF7FEFF 		bl	HAL_NVIC_SetPriority
 252              	.LVL9:
 114:src/softwareserial.c ****   HAL_NVIC_EnableIRQ(TIM3_IRQn);
 253              		.loc 1 114 3 view .LVU81
 254 00e4 1D20     		movs	r0, #29
 255 00e6 FFF7FEFF 		bl	HAL_NVIC_EnableIRQ
 256              	.LVL10:
 115:src/softwareserial.c **** 
 116:src/softwareserial.c ****   // Disable SWD/JTAG if using PA13/PA14 pins
 117:src/softwareserial.c ****   #ifdef SOFTWARE_SERIAL_USE_SWD_PINS
 118:src/softwareserial.c ****     __HAL_RCC_AFIO_CLK_ENABLE();
 257              		.loc 1 118 5 view .LVU82
 258              	.LBB12:
 259              		.loc 1 118 5 view .LVU83
 260              		.loc 1 118 5 view .LVU84
 261 00ea B369     		ldr	r3, [r6, #24]
 262 00ec 3B43     		orrs	r3, r3, r7
 263 00ee B361     		str	r3, [r6, #24]
 264              		.loc 1 118 5 view .LVU85
 265 00f0 B369     		ldr	r3, [r6, #24]
 266 00f2 3B40     		ands	r3, r3, r7
 267 00f4 0393     		str	r3, [sp, #12]
 268              		.loc 1 118 5 view .LVU86
 269 00f6 039B     		ldr	r3, [sp, #12]
 270              	.LBE12:
 271              		.loc 1 118 5 view .LVU87
 119:src/softwareserial.c ****     __HAL_AFIO_REMAP_SWJ_DISABLE();  // Disable JTAG and SWD to release PA13/PA14/PA15/PB3/PB4
 272              		.loc 1 119 5 view .LVU88
 273              		.loc 1 119 5 view .LVU89
 274 00f8 124B     		ldr	r3, .L6+36
 275 00fa 5A68     		ldr	r2, [r3, #4]
 276 00fc 22F0E062 		bic	r2, r2, #117440512
 277 0100 5A60     		str	r2, [r3, #4]
 278              		.loc 1 119 5 view .LVU90
 279 0102 5A68     		ldr	r2, [r3, #4]
 280 0104 42F08062 		orr	r2, r2, #67108864
 281 0108 5A60     		str	r2, [r3, #4]
 282              		.loc 1 119 5 view .LVU91
 120:src/softwareserial.c ****   #endif
ARM GAS  /tmp/ccs4xsFa.s 			page 8


 121:src/softwareserial.c **** 
 122:src/softwareserial.c ****   // Enable the appropriate EXTI interrupt based on pin number
 123:src/softwareserial.c ****   // The interrupt handler is determined at runtime in stm32f1xx_it.c
 124:src/softwareserial.c ****   uint16_t pin = SOFTWARE_SERIAL_RX_PIN;
 283              		.loc 1 124 3 view .LVU92
 284              	.LVL11:
 125:src/softwareserial.c ****   if (pin == GPIO_PIN_0) {
 285              		.loc 1 125 3 view .LVU93
 126:src/softwareserial.c ****     HAL_NVIC_SetPriority(EXTI0_IRQn, 0, 0);
 127:src/softwareserial.c ****     HAL_NVIC_EnableIRQ(EXTI0_IRQn);
 128:src/softwareserial.c ****   } else if (pin == GPIO_PIN_1) {
 286              		.loc 1 128 10 view .LVU94
 129:src/softwareserial.c ****     HAL_NVIC_SetPriority(EXTI1_IRQn, 0, 0);
 130:src/softwareserial.c ****     HAL_NVIC_EnableIRQ(EXTI1_IRQn);
 131:src/softwareserial.c ****   } else if (pin == GPIO_PIN_2) {
 287              		.loc 1 131 10 view .LVU95
 132:src/softwareserial.c ****     HAL_NVIC_SetPriority(EXTI2_IRQn, 0, 0);
 133:src/softwareserial.c ****     HAL_NVIC_EnableIRQ(EXTI2_IRQn);
 134:src/softwareserial.c ****   } else if (pin == GPIO_PIN_3) {
 288              		.loc 1 134 10 view .LVU96
 135:src/softwareserial.c ****     HAL_NVIC_SetPriority(EXTI3_IRQn, 0, 0);
 136:src/softwareserial.c ****     HAL_NVIC_EnableIRQ(EXTI3_IRQn);
 137:src/softwareserial.c ****   } else if (pin == GPIO_PIN_4) {
 289              		.loc 1 137 10 view .LVU97
 138:src/softwareserial.c ****     HAL_NVIC_SetPriority(EXTI4_IRQn, 0, 0);
 139:src/softwareserial.c ****     HAL_NVIC_EnableIRQ(EXTI4_IRQn);
 140:src/softwareserial.c ****   } else if (pin >= GPIO_PIN_5 && pin <= GPIO_PIN_9) {
 290              		.loc 1 140 10 view .LVU98
 141:src/softwareserial.c ****     HAL_NVIC_SetPriority(EXTI9_5_IRQn, 0, 0);
 142:src/softwareserial.c ****     HAL_NVIC_EnableIRQ(EXTI9_5_IRQn);
 143:src/softwareserial.c ****   } else if (pin >= GPIO_PIN_10 && pin <= GPIO_PIN_15) {
 291              		.loc 1 143 10 view .LVU99
 144:src/softwareserial.c ****     HAL_NVIC_SetPriority(EXTI15_10_IRQn, 0, 0);
 292              		.loc 1 144 5 view .LVU100
 293 010a 2246     		mov	r2, r4
 294 010c 2146     		mov	r1, r4
 295 010e 2820     		movs	r0, #40
 296 0110 FFF7FEFF 		bl	HAL_NVIC_SetPriority
 297              	.LVL12:
 145:src/softwareserial.c ****     HAL_NVIC_EnableIRQ(EXTI15_10_IRQn);
 298              		.loc 1 145 5 view .LVU101
 299 0114 2820     		movs	r0, #40
 300 0116 FFF7FEFF 		bl	HAL_NVIC_EnableIRQ
 301              	.LVL13:
 146:src/softwareserial.c ****   }
 147:src/softwareserial.c **** 
 148:src/softwareserial.c **** }
 302              		.loc 1 148 1 is_stmt 0 view .LVU102
 303 011a 08B0     		add	sp, sp, #32
 304              	.LCFI2:
 305              		.cfi_def_cfa_offset 24
 306              		@ sp needed
 307 011c BDE8F081 		pop	{r4, r5, r6, r7, r8, pc}
 308              	.L7:
 309              		.align	2
 310              	.L6:
 311 0120 00000000 		.word	softwareserialRXbuffer
ARM GAS  /tmp/ccs4xsFa.s 			page 9


 312 0124 00000000 		.word	softwareserialTXbuffer
 313 0128 00003110 		.word	271646720
 314 012c 00080140 		.word	1073809408
 315 0130 00100240 		.word	1073876992
 316 0134 00000000 		.word	softwareserialtimer
 317 0138 000C0040 		.word	1073744896
 318 013c 00000000 		.word	softwareserialtimerTX
 319 0140 00040040 		.word	1073742848
 320 0144 00000140 		.word	1073807360
 321              		.cfi_endproc
 322              	.LFE67:
 324              		.section	.text.softwareserial_getrx,"ax",%progbits
 325              		.align	1
 326              		.global	softwareserial_getrx
 327              		.syntax unified
 328              		.thumb
 329              		.thumb_func
 331              	softwareserial_getrx:
 332              	.LFB68:
 149:src/softwareserial.c **** 
 150:src/softwareserial.c **** 
 151:src/softwareserial.c **** //////////////////////////////////////////////////////////
 152:src/softwareserial.c **** // get a single character if available.
 153:src/softwareserial.c **** // return -1 if none.
 154:src/softwareserial.c **** short softwareserial_getrx(){
 333              		.loc 1 154 29 is_stmt 1 view -0
 334              		.cfi_startproc
 335              		@ args = 0, pretend = 0, frame = 0
 336              		@ frame_needed = 0, uses_anonymous_args = 0
 337              		@ link register save eliminated.
 155:src/softwareserial.c ****     short t = -1;
 338              		.loc 1 155 5 view .LVU104
 339              	.LVL14:
 156:src/softwareserial.c ****     if (softwareserialRXbuffer.head != softwareserialRXbuffer.tail){
 340              		.loc 1 156 5 view .LVU105
 341              		.loc 1 156 31 is_stmt 0 view .LVU106
 342 0000 0D4B     		ldr	r3, .L11
 343 0002 D3F80024 		ldr	r2, [r3, #1024]
 344              		.loc 1 156 62 view .LVU107
 345 0006 D3F80434 		ldr	r3, [r3, #1028]
 346              		.loc 1 156 8 view .LVU108
 347 000a 9A42     		cmp	r2, r3
 348 000c 10D0     		beq	.L10
 157:src/softwareserial.c ****         t = softwareserialRXbuffer.buff[softwareserialRXbuffer.tail];
 349              		.loc 1 157 9 is_stmt 1 view .LVU109
 350              		.loc 1 157 63 is_stmt 0 view .LVU110
 351 000e 0A4A     		ldr	r2, .L11
 352 0010 D2F80434 		ldr	r3, [r2, #1028]
 353              		.loc 1 157 40 view .LVU111
 354 0014 D05C     		ldrb	r0, [r2, r3]	@ zero_extendqisi2
 355              	.LVL15:
 158:src/softwareserial.c ****         softwareserialRXbuffer.tail = ((softwareserialRXbuffer.tail + 1 ) % SOFTWARE_SERIAL_BUFFER_
 356              		.loc 1 158 9 is_stmt 1 view .LVU112
 357              		.loc 1 158 63 is_stmt 0 view .LVU113
 358 0016 D2F80434 		ldr	r3, [r2, #1028]
 359              		.loc 1 158 69 view .LVU114
 360 001a 0133     		adds	r3, r3, #1
ARM GAS  /tmp/ccs4xsFa.s 			page 10


 361              		.loc 1 158 75 view .LVU115
 362 001c 5942     		rsbs	r1, r3, #0
 363 001e C3F30903 		ubfx	r3, r3, #0, #10
 364 0022 C1F30901 		ubfx	r1, r1, #0, #10
 365 0026 58BF     		it	pl
 366 0028 4B42     		rsbpl	r3, r1, #0
 367              		.loc 1 158 37 view .LVU116
 368 002a C2F80434 		str	r3, [r2, #1028]
 369 002e 7047     		bx	lr
 370              	.LVL16:
 371              	.L10:
 155:src/softwareserial.c ****     if (softwareserialRXbuffer.head != softwareserialRXbuffer.tail){
 372              		.loc 1 155 11 view .LVU117
 373 0030 4FF0FF30 		mov	r0, #-1
 374              	.LVL17:
 159:src/softwareserial.c ****     }
 160:src/softwareserial.c ****     return t;
 375              		.loc 1 160 5 is_stmt 1 view .LVU118
 161:src/softwareserial.c **** }
 376              		.loc 1 161 1 is_stmt 0 view .LVU119
 377 0034 7047     		bx	lr
 378              	.L12:
 379 0036 00BF     		.align	2
 380              	.L11:
 381 0038 00000000 		.word	softwareserialRXbuffer
 382              		.cfi_endproc
 383              	.LFE68:
 385              		.section	.text.softwareserial_peekrx,"ax",%progbits
 386              		.align	1
 387              		.global	softwareserial_peekrx
 388              		.syntax unified
 389              		.thumb
 390              		.thumb_func
 392              	softwareserial_peekrx:
 393              	.LFB69:
 162:src/softwareserial.c **** 
 163:src/softwareserial.c **** //////////////////////////////////////////////////////////
 164:src/softwareserial.c **** // get a single character if available.
 165:src/softwareserial.c **** // return -1 if none.
 166:src/softwareserial.c **** short softwareserial_peekrx(){
 394              		.loc 1 166 30 is_stmt 1 view -0
 395              		.cfi_startproc
 396              		@ args = 0, pretend = 0, frame = 0
 397              		@ frame_needed = 0, uses_anonymous_args = 0
 398              		@ link register save eliminated.
 167:src/softwareserial.c ****     short t = -1;
 399              		.loc 1 167 5 view .LVU121
 400              	.LVL18:
 168:src/softwareserial.c ****     if (softwareserialRXbuffer.head != softwareserialRXbuffer.tail){
 401              		.loc 1 168 5 view .LVU122
 402              		.loc 1 168 31 is_stmt 0 view .LVU123
 403 0000 074B     		ldr	r3, .L16
 404 0002 D3F80024 		ldr	r2, [r3, #1024]
 405              		.loc 1 168 62 view .LVU124
 406 0006 D3F80434 		ldr	r3, [r3, #1028]
 407              		.loc 1 168 8 view .LVU125
 408 000a 9A42     		cmp	r2, r3
ARM GAS  /tmp/ccs4xsFa.s 			page 11


 409 000c 04D0     		beq	.L15
 169:src/softwareserial.c ****         t = softwareserialRXbuffer.buff[softwareserialRXbuffer.tail];
 410              		.loc 1 169 9 is_stmt 1 view .LVU126
 411              		.loc 1 169 63 is_stmt 0 view .LVU127
 412 000e 044B     		ldr	r3, .L16
 413 0010 D3F80424 		ldr	r2, [r3, #1028]
 414              		.loc 1 169 40 view .LVU128
 415 0014 985C     		ldrb	r0, [r3, r2]	@ zero_extendqisi2
 416              	.LVL19:
 417              		.loc 1 169 40 view .LVU129
 418 0016 7047     		bx	lr
 419              	.LVL20:
 420              	.L15:
 167:src/softwareserial.c ****     short t = -1;
 421              		.loc 1 167 11 view .LVU130
 422 0018 4FF0FF30 		mov	r0, #-1
 423              	.LVL21:
 170:src/softwareserial.c ****     }
 171:src/softwareserial.c ****     return t;
 424              		.loc 1 171 5 is_stmt 1 view .LVU131
 172:src/softwareserial.c **** }
 425              		.loc 1 172 1 is_stmt 0 view .LVU132
 426 001c 7047     		bx	lr
 427              	.L17:
 428 001e 00BF     		.align	2
 429              	.L16:
 430 0020 00000000 		.word	softwareserialRXbuffer
 431              		.cfi_endproc
 432              	.LFE69:
 434              		.section	.text.softwareserial_available,"ax",%progbits
 435              		.align	1
 436              		.global	softwareserial_available
 437              		.syntax unified
 438              		.thumb
 439              		.thumb_func
 441              	softwareserial_available:
 442              	.LFB70:
 173:src/softwareserial.c **** 
 174:src/softwareserial.c **** 
 175:src/softwareserial.c **** //////////////////////////////////////////////////////////
 176:src/softwareserial.c **** // return chars available
 177:src/softwareserial.c **** int softwareserial_available(){
 443              		.loc 1 177 31 is_stmt 1 view -0
 444              		.cfi_startproc
 445              		@ args = 0, pretend = 0, frame = 0
 446              		@ frame_needed = 0, uses_anonymous_args = 0
 447              		@ link register save eliminated.
 178:src/softwareserial.c ****     if (softwareserialRXbuffer.head != softwareserialRXbuffer.tail){
 448              		.loc 1 178 5 view .LVU134
 449              		.loc 1 178 31 is_stmt 0 view .LVU135
 450 0000 094B     		ldr	r3, .L22
 451 0002 D3F80024 		ldr	r2, [r3, #1024]
 452              		.loc 1 178 62 view .LVU136
 453 0006 D3F80434 		ldr	r3, [r3, #1028]
 454              		.loc 1 178 8 view .LVU137
 455 000a 9A42     		cmp	r2, r3
 456 000c 09D0     		beq	.L21
ARM GAS  /tmp/ccs4xsFa.s 			page 12


 457              	.LBB13:
 179:src/softwareserial.c ****         int count = softwareserialRXbuffer.head - softwareserialRXbuffer.tail;
 458              		.loc 1 179 9 is_stmt 1 view .LVU138
 459              		.loc 1 179 43 is_stmt 0 view .LVU139
 460 000e 064B     		ldr	r3, .L22
 461 0010 D3F80004 		ldr	r0, [r3, #1024]
 462              		.loc 1 179 73 view .LVU140
 463 0014 D3F80434 		ldr	r3, [r3, #1028]
 464              	.LVL22:
 180:src/softwareserial.c ****         if (count < 0){
 465              		.loc 1 180 9 is_stmt 1 view .LVU141
 466              		.loc 1 180 12 is_stmt 0 view .LVU142
 467 0018 C01A     		subs	r0, r0, r3
 468              	.LVL23:
 469              		.loc 1 180 12 view .LVU143
 470 001a 03D5     		bpl	.L18
 181:src/softwareserial.c ****             count += SOFTWARE_SERIAL_BUFFER_SIZE;
 471              		.loc 1 181 13 is_stmt 1 view .LVU144
 472              		.loc 1 181 19 is_stmt 0 view .LVU145
 473 001c 00F58060 		add	r0, r0, #1024
 474              	.LVL24:
 182:src/softwareserial.c ****         }
 183:src/softwareserial.c ****         return count;
 475              		.loc 1 183 9 is_stmt 1 view .LVU146
 476              		.loc 1 183 16 is_stmt 0 view .LVU147
 477 0020 7047     		bx	lr
 478              	.LVL25:
 479              	.L21:
 480              		.loc 1 183 16 view .LVU148
 481              	.LBE13:
 184:src/softwareserial.c ****     }
 185:src/softwareserial.c ****     return 0;
 482              		.loc 1 185 12 view .LVU149
 483 0022 0020     		movs	r0, #0
 484              	.L18:
 186:src/softwareserial.c **** }
 485              		.loc 1 186 1 view .LVU150
 486 0024 7047     		bx	lr
 487              	.L23:
 488 0026 00BF     		.align	2
 489              	.L22:
 490 0028 00000000 		.word	softwareserialRXbuffer
 491              		.cfi_endproc
 492              	.LFE70:
 494              		.section	.text.softwareserial_flushRX,"ax",%progbits
 495              		.align	1
 496              		.global	softwareserial_flushRX
 497              		.syntax unified
 498              		.thumb
 499              		.thumb_func
 501              	softwareserial_flushRX:
 502              	.LFB71:
 187:src/softwareserial.c **** 
 188:src/softwareserial.c **** 
 189:src/softwareserial.c **** //////////////////////////////////////////////////////////
 190:src/softwareserial.c **** // flush receive
 191:src/softwareserial.c **** void softwareserial_flushRX(){
ARM GAS  /tmp/ccs4xsFa.s 			page 13


 503              		.loc 1 191 30 is_stmt 1 view -0
 504              		.cfi_startproc
 505              		@ args = 0, pretend = 0, frame = 0
 506              		@ frame_needed = 0, uses_anonymous_args = 0
 507              		@ link register save eliminated.
 192:src/softwareserial.c ****     __disable_irq();
 508              		.loc 1 192 5 view .LVU152
 509              	.LBB14:
 510              	.LBI14:
 511              		.file 2 "Drivers/CMSIS/Include/cmsis_gcc.h"
   1:Drivers/CMSIS/Include/cmsis_gcc.h **** /**************************************************************************//**
   2:Drivers/CMSIS/Include/cmsis_gcc.h ****  * @file     cmsis_gcc.h
   3:Drivers/CMSIS/Include/cmsis_gcc.h ****  * @brief    CMSIS Cortex-M Core Function/Instruction Header File
   4:Drivers/CMSIS/Include/cmsis_gcc.h ****  * @version  V4.30
   5:Drivers/CMSIS/Include/cmsis_gcc.h ****  * @date     20. October 2015
   6:Drivers/CMSIS/Include/cmsis_gcc.h ****  ******************************************************************************/
   7:Drivers/CMSIS/Include/cmsis_gcc.h **** /* Copyright (c) 2009 - 2015 ARM LIMITED
   8:Drivers/CMSIS/Include/cmsis_gcc.h **** 
   9:Drivers/CMSIS/Include/cmsis_gcc.h ****    All rights reserved.
  10:Drivers/CMSIS/Include/cmsis_gcc.h ****    Redistribution and use in source and binary forms, with or without
  11:Drivers/CMSIS/Include/cmsis_gcc.h ****    modification, are permitted provided that the following conditions are met:
  12:Drivers/CMSIS/Include/cmsis_gcc.h ****    - Redistributions of source code must retain the above copyright
  13:Drivers/CMSIS/Include/cmsis_gcc.h ****      notice, this list of conditions and the following disclaimer.
  14:Drivers/CMSIS/Include/cmsis_gcc.h ****    - Redistributions in binary form must reproduce the above copyright
  15:Drivers/CMSIS/Include/cmsis_gcc.h ****      notice, this list of conditions and the following disclaimer in the
  16:Drivers/CMSIS/Include/cmsis_gcc.h ****      documentation and/or other materials provided with the distribution.
  17:Drivers/CMSIS/Include/cmsis_gcc.h ****    - Neither the name of ARM nor the names of its contributors may be used
  18:Drivers/CMSIS/Include/cmsis_gcc.h ****      to endorse or promote products derived from this software without
  19:Drivers/CMSIS/Include/cmsis_gcc.h ****      specific prior written permission.
  20:Drivers/CMSIS/Include/cmsis_gcc.h ****    *
  21:Drivers/CMSIS/Include/cmsis_gcc.h ****    THIS SOFTWARE IS PROVIDED BY THE COPYRIGHT HOLDERS AND CONTRIBUTORS "AS IS"
  22:Drivers/CMSIS/Include/cmsis_gcc.h ****    AND ANY EXPRESS OR IMPLIED WARRANTIES, INCLUDING, BUT NOT LIMITED TO, THE
  23:Drivers/CMSIS/Include/cmsis_gcc.h ****    IMPLIED WARRANTIES OF MERCHANTABILITY AND FITNESS FOR A PARTICULAR PURPOSE
  24:Drivers/CMSIS/Include/cmsis_gcc.h ****    ARE DISCLAIMED. IN NO EVENT SHALL COPYRIGHT HOLDERS AND CONTRIBUTORS BE
  25:Drivers/CMSIS/Include/cmsis_gcc.h ****    LIABLE FOR ANY DIRECT, INDIRECT, INCIDENTAL, SPECIAL, EXEMPLARY, OR
  26:Drivers/CMSIS/Include/cmsis_gcc.h ****    CONSEQUENTIAL DAMAGES (INCLUDING, BUT NOT LIMITED TO, PROCUREMENT OF
  27:Drivers/CMSIS/Include/cmsis_gcc.h ****    SUBSTITUTE GOODS OR SERVICES; LOSS OF USE, DATA, OR PROFITS; OR BUSINESS
  28:Drivers/CMSIS/Include/cmsis_gcc.h ****    INTERRUPTION) HOWEVER CAUSED AND ON ANY THEORY OF LIABILITY, WHETHER IN
  29:Drivers/CMSIS/Include/cmsis_gcc.h ****    CONTRACT, STRICT LIABILITY, OR TORT (INCLUDING NEGLIGENCE OR OTHERWISE)
  30:Drivers/CMSIS/Include/cmsis_gcc.h ****    ARISING IN ANY WAY OUT OF THE USE OF THIS SOFTWARE, EVEN IF ADVISED OF THE
  31:Drivers/CMSIS/Include/cmsis_gcc.h ****    POSSIBILITY OF SUCH DAMAGE.
  32:Drivers/CMSIS/Include/cmsis_gcc.h ****    ---------------------------------------------------------------------------*/
  33:Drivers/CMSIS/Include/cmsis_gcc.h **** 
  34:Drivers/CMSIS/Include/cmsis_gcc.h **** 
  35:Drivers/CMSIS/Include/cmsis_gcc.h **** #ifndef __CMSIS_GCC_H
  36:Drivers/CMSIS/Include/cmsis_gcc.h **** #define __CMSIS_GCC_H
  37:Drivers/CMSIS/Include/cmsis_gcc.h **** 
  38:Drivers/CMSIS/Include/cmsis_gcc.h **** /* ignore some GCC warnings */
  39:Drivers/CMSIS/Include/cmsis_gcc.h **** #if defined ( __GNUC__ )
  40:Drivers/CMSIS/Include/cmsis_gcc.h **** #pragma GCC diagnostic push
  41:Drivers/CMSIS/Include/cmsis_gcc.h **** #pragma GCC diagnostic ignored "-Wsign-conversion"
  42:Drivers/CMSIS/Include/cmsis_gcc.h **** #pragma GCC diagnostic ignored "-Wconversion"
  43:Drivers/CMSIS/Include/cmsis_gcc.h **** #pragma GCC diagnostic ignored "-Wunused-parameter"
  44:Drivers/CMSIS/Include/cmsis_gcc.h **** #endif
  45:Drivers/CMSIS/Include/cmsis_gcc.h **** 
  46:Drivers/CMSIS/Include/cmsis_gcc.h **** 
  47:Drivers/CMSIS/Include/cmsis_gcc.h **** /* ###########################  Core Function Access  ########################### */
ARM GAS  /tmp/ccs4xsFa.s 			page 14


  48:Drivers/CMSIS/Include/cmsis_gcc.h **** /** \ingroup  CMSIS_Core_FunctionInterface
  49:Drivers/CMSIS/Include/cmsis_gcc.h ****     \defgroup CMSIS_Core_RegAccFunctions CMSIS Core Register Access Functions
  50:Drivers/CMSIS/Include/cmsis_gcc.h ****   @{
  51:Drivers/CMSIS/Include/cmsis_gcc.h ****  */
  52:Drivers/CMSIS/Include/cmsis_gcc.h **** 
  53:Drivers/CMSIS/Include/cmsis_gcc.h **** /**
  54:Drivers/CMSIS/Include/cmsis_gcc.h ****   \brief   Enable IRQ Interrupts
  55:Drivers/CMSIS/Include/cmsis_gcc.h ****   \details Enables IRQ interrupts by clearing the I-bit in the CPSR.
  56:Drivers/CMSIS/Include/cmsis_gcc.h ****            Can only be executed in Privileged modes.
  57:Drivers/CMSIS/Include/cmsis_gcc.h ****  */
  58:Drivers/CMSIS/Include/cmsis_gcc.h **** __attribute__( ( always_inline ) ) __STATIC_INLINE void __enable_irq(void)
  59:Drivers/CMSIS/Include/cmsis_gcc.h **** {
  60:Drivers/CMSIS/Include/cmsis_gcc.h ****   __ASM volatile ("cpsie i" : : : "memory");
  61:Drivers/CMSIS/Include/cmsis_gcc.h **** }
  62:Drivers/CMSIS/Include/cmsis_gcc.h **** 
  63:Drivers/CMSIS/Include/cmsis_gcc.h **** 
  64:Drivers/CMSIS/Include/cmsis_gcc.h **** /**
  65:Drivers/CMSIS/Include/cmsis_gcc.h ****   \brief   Disable IRQ Interrupts
  66:Drivers/CMSIS/Include/cmsis_gcc.h ****   \details Disables IRQ interrupts by setting the I-bit in the CPSR.
  67:Drivers/CMSIS/Include/cmsis_gcc.h ****   Can only be executed in Privileged modes.
  68:Drivers/CMSIS/Include/cmsis_gcc.h ****  */
  69:Drivers/CMSIS/Include/cmsis_gcc.h **** __attribute__( ( always_inline ) ) __STATIC_INLINE void __disable_irq(void)
 512              		.loc 2 69 57 view .LVU153
 513              	.LBB15:
  70:Drivers/CMSIS/Include/cmsis_gcc.h **** {
  71:Drivers/CMSIS/Include/cmsis_gcc.h ****   __ASM volatile ("cpsid i" : : : "memory");
 514              		.loc 2 71 3 view .LVU154
 515              		.syntax unified
 516              	@ 71 "Drivers/CMSIS/Include/cmsis_gcc.h" 1
 517 0000 72B6     		cpsid i
 518              	@ 0 "" 2
 519              		.thumb
 520              		.syntax unified
 521              	.LBE15:
 522              	.LBE14:
 193:src/softwareserial.c ****     softwareserialRXbuffer.head = softwareserialRXbuffer.tail;
 523              		.loc 1 193 5 view .LVU155
 524              		.loc 1 193 57 is_stmt 0 view .LVU156
 525 0002 034B     		ldr	r3, .L25
 526 0004 D3F80424 		ldr	r2, [r3, #1028]
 527              		.loc 1 193 33 view .LVU157
 528 0008 C3F80024 		str	r2, [r3, #1024]
 194:src/softwareserial.c ****     __enable_irq();
 529              		.loc 1 194 5 is_stmt 1 view .LVU158
 530              	.LBB16:
 531              	.LBI16:
  58:Drivers/CMSIS/Include/cmsis_gcc.h **** {
 532              		.loc 2 58 57 view .LVU159
 533              	.LBB17:
  60:Drivers/CMSIS/Include/cmsis_gcc.h **** }
 534              		.loc 2 60 3 view .LVU160
 535              		.syntax unified
 536              	@ 60 "Drivers/CMSIS/Include/cmsis_gcc.h" 1
 537 000c 62B6     		cpsie i
 538              	@ 0 "" 2
 539              		.thumb
 540              		.syntax unified
ARM GAS  /tmp/ccs4xsFa.s 			page 15


 541              	.LBE17:
 542              	.LBE16:
 195:src/softwareserial.c **** }
 543              		.loc 1 195 1 is_stmt 0 view .LVU161
 544 000e 7047     		bx	lr
 545              	.L26:
 546              		.align	2
 547              	.L25:
 548 0010 00000000 		.word	softwareserialRXbuffer
 549              		.cfi_endproc
 550              	.LFE71:
 552              		.section	.text.softwareserial_flushTX,"ax",%progbits
 553              		.align	1
 554              		.global	softwareserial_flushTX
 555              		.syntax unified
 556              		.thumb
 557              		.thumb_func
 559              	softwareserial_flushTX:
 560              	.LFB72:
 196:src/softwareserial.c **** 
 197:src/softwareserial.c **** //////////////////////////////////////////////////////////
 198:src/softwareserial.c **** // flush receive
 199:src/softwareserial.c **** void softwareserial_flushTX(){
 561              		.loc 1 199 30 is_stmt 1 view -0
 562              		.cfi_startproc
 563              		@ args = 0, pretend = 0, frame = 0
 564              		@ frame_needed = 0, uses_anonymous_args = 0
 565              		@ link register save eliminated.
 200:src/softwareserial.c ****     __disable_irq();
 566              		.loc 1 200 5 view .LVU163
 567              	.LBB18:
 568              	.LBI18:
  69:Drivers/CMSIS/Include/cmsis_gcc.h **** {
 569              		.loc 2 69 57 view .LVU164
 570              	.LBB19:
 571              		.loc 2 71 3 view .LVU165
 572              		.syntax unified
 573              	@ 71 "Drivers/CMSIS/Include/cmsis_gcc.h" 1
 574 0000 72B6     		cpsid i
 575              	@ 0 "" 2
 576              		.thumb
 577              		.syntax unified
 578              	.LBE19:
 579              	.LBE18:
 201:src/softwareserial.c ****     softwareserialTXbuffer.head = softwareserialTXbuffer.tail;
 580              		.loc 1 201 5 view .LVU166
 581              		.loc 1 201 57 is_stmt 0 view .LVU167
 582 0002 034B     		ldr	r3, .L28
 583 0004 D3F80424 		ldr	r2, [r3, #1028]
 584              		.loc 1 201 33 view .LVU168
 585 0008 C3F80024 		str	r2, [r3, #1024]
 202:src/softwareserial.c ****     __enable_irq();
 586              		.loc 1 202 5 is_stmt 1 view .LVU169
 587              	.LBB20:
 588              	.LBI20:
  58:Drivers/CMSIS/Include/cmsis_gcc.h **** {
 589              		.loc 2 58 57 view .LVU170
ARM GAS  /tmp/ccs4xsFa.s 			page 16


 590              	.LBB21:
  60:Drivers/CMSIS/Include/cmsis_gcc.h **** }
 591              		.loc 2 60 3 view .LVU171
 592              		.syntax unified
 593              	@ 60 "Drivers/CMSIS/Include/cmsis_gcc.h" 1
 594 000c 62B6     		cpsie i
 595              	@ 0 "" 2
 596              		.thumb
 597              		.syntax unified
 598              	.LBE21:
 599              	.LBE20:
 203:src/softwareserial.c **** }
 600              		.loc 1 203 1 is_stmt 0 view .LVU172
 601 000e 7047     		bx	lr
 602              	.L29:
 603              		.align	2
 604              	.L28:
 605 0010 00000000 		.word	softwareserialTXbuffer
 606              		.cfi_endproc
 607              	.LFE72:
 609              		.section	.text.softwareserial_puttx,"ax",%progbits
 610              		.align	1
 611              		.global	softwareserial_puttx
 612              		.syntax unified
 613              		.thumb
 614              		.thumb_func
 616              	softwareserial_puttx:
 617              	.LVL26:
 618              	.LFB73:
 204:src/softwareserial.c **** 
 205:src/softwareserial.c **** //////////////////////////////////////////////////////////
 206:src/softwareserial.c **** // put a single character if room in output buffer
 207:src/softwareserial.c **** void softwareserial_puttx(unsigned char value){
 619              		.loc 1 207 47 is_stmt 1 view -0
 620              		.cfi_startproc
 621              		@ args = 0, pretend = 0, frame = 0
 622              		@ frame_needed = 0, uses_anonymous_args = 0
 623              		@ link register save eliminated.
 208:src/softwareserial.c ****     int count = softwareserialTXbuffer.head - softwareserialTXbuffer.tail;
 624              		.loc 1 208 5 view .LVU174
 625              		.loc 1 208 39 is_stmt 0 view .LVU175
 626 0000 124A     		ldr	r2, .L36
 627 0002 D2F80034 		ldr	r3, [r2, #1024]
 628              		.loc 1 208 69 view .LVU176
 629 0006 D2F80424 		ldr	r2, [r2, #1028]
 630              	.LVL27:
 209:src/softwareserial.c ****     if (count < 0)
 631              		.loc 1 209 5 is_stmt 1 view .LVU177
 632              		.loc 1 209 8 is_stmt 0 view .LVU178
 633 000a 9B1A     		subs	r3, r3, r2
 634              	.LVL28:
 635              		.loc 1 209 8 view .LVU179
 636 000c 14D4     		bmi	.L34
 637              	.LVL29:
 638              	.L31:
 210:src/softwareserial.c ****         count += SOFTWARE_SERIAL_BUFFER_SIZE;
 211:src/softwareserial.c **** 
ARM GAS  /tmp/ccs4xsFa.s 			page 17


 212:src/softwareserial.c ****     if (count >= SOFTWARE_SERIAL_BUFFER_SIZE-2){
 639              		.loc 1 212 5 is_stmt 1 view .LVU180
 640              		.loc 1 212 8 is_stmt 0 view .LVU181
 641 000e 40F2FD32 		movw	r2, #1021
 642 0012 9342     		cmp	r3, r2
 643 0014 13DC     		bgt	.L35
 213:src/softwareserial.c ****         softwareserialTXbuffer.overflow++;
 214:src/softwareserial.c ****         return;
 215:src/softwareserial.c ****     }
 216:src/softwareserial.c ****     softwareserialTXbuffer.buff[softwareserialTXbuffer.head] = value;
 644              		.loc 1 216 5 is_stmt 1 view .LVU182
 645              		.loc 1 216 55 is_stmt 0 view .LVU183
 646 0016 0D4A     		ldr	r2, .L36
 647 0018 D2F80034 		ldr	r3, [r2, #1024]
 648              	.LVL30:
 649              		.loc 1 216 62 view .LVU184
 650 001c D054     		strb	r0, [r2, r3]
 217:src/softwareserial.c ****     softwareserialTXbuffer.head = ((softwareserialTXbuffer.head + 1 ) % SOFTWARE_SERIAL_BUFFER_SIZE
 651              		.loc 1 217 5 is_stmt 1 view .LVU185
 652              		.loc 1 217 59 is_stmt 0 view .LVU186
 653 001e D2F80034 		ldr	r3, [r2, #1024]
 654              		.loc 1 217 65 view .LVU187
 655 0022 0133     		adds	r3, r3, #1
 656              		.loc 1 217 71 view .LVU188
 657 0024 5942     		rsbs	r1, r3, #0
 658 0026 C3F30903 		ubfx	r3, r3, #0, #10
 659 002a C1F30901 		ubfx	r1, r1, #0, #10
 660 002e 58BF     		it	pl
 661 0030 4B42     		rsbpl	r3, r1, #0
 662              		.loc 1 217 33 view .LVU189
 663 0032 C2F80034 		str	r3, [r2, #1024]
 218:src/softwareserial.c **** }
 664              		.loc 1 218 1 view .LVU190
 665 0036 7047     		bx	lr
 666              	.LVL31:
 667              	.L34:
 210:src/softwareserial.c **** 
 668              		.loc 1 210 9 is_stmt 1 view .LVU191
 210:src/softwareserial.c **** 
 669              		.loc 1 210 15 is_stmt 0 view .LVU192
 670 0038 03F58063 		add	r3, r3, #1024
 671              	.LVL32:
 210:src/softwareserial.c **** 
 672              		.loc 1 210 15 view .LVU193
 673 003c E7E7     		b	.L31
 674              	.L35:
 213:src/softwareserial.c ****         return;
 675              		.loc 1 213 9 is_stmt 1 view .LVU194
 213:src/softwareserial.c ****         return;
 676              		.loc 1 213 31 is_stmt 0 view .LVU195
 677 003e 034A     		ldr	r2, .L36
 678 0040 D2F81434 		ldr	r3, [r2, #1044]
 679              	.LVL33:
 213:src/softwareserial.c ****         return;
 680              		.loc 1 213 40 view .LVU196
 681 0044 0133     		adds	r3, r3, #1
 682 0046 C2F81434 		str	r3, [r2, #1044]
ARM GAS  /tmp/ccs4xsFa.s 			page 18


 214:src/softwareserial.c ****     }
 683              		.loc 1 214 9 is_stmt 1 view .LVU197
 684 004a 7047     		bx	lr
 685              	.L37:
 686              		.align	2
 687              	.L36:
 688 004c 00000000 		.word	softwareserialTXbuffer
 689              		.cfi_endproc
 690              	.LFE73:
 692              		.section	.text.softwareserial_Send,"ax",%progbits
 693              		.align	1
 694              		.global	softwareserial_Send
 695              		.syntax unified
 696              		.thumb
 697              		.thumb_func
 699              	softwareserial_Send:
 700              	.LVL34:
 701              	.LFB74:
 219:src/softwareserial.c **** 
 220:src/softwareserial.c **** //////////////////////////////////////////////////////////
 221:src/softwareserial.c **** // copy a buffer of data to the output buffer
 222:src/softwareserial.c **** // return length, or 0 if it won't fit
 223:src/softwareserial.c **** int softwareserial_Send(unsigned char *data, int len){
 702              		.loc 1 223 54 view -0
 703              		.cfi_startproc
 704              		@ args = 0, pretend = 0, frame = 0
 705              		@ frame_needed = 0, uses_anonymous_args = 0
 706              		.loc 1 223 54 is_stmt 0 view .LVU199
 707 0000 70B5     		push	{r4, r5, r6, lr}
 708              	.LCFI3:
 709              		.cfi_def_cfa_offset 16
 710              		.cfi_offset 4, -16
 711              		.cfi_offset 5, -12
 712              		.cfi_offset 6, -8
 713              		.cfi_offset 14, -4
 714 0002 0646     		mov	r6, r0
 715 0004 0D46     		mov	r5, r1
 224:src/softwareserial.c ****     int count = softwareserialTXbuffer.head - softwareserialTXbuffer.tail;
 716              		.loc 1 224 5 is_stmt 1 view .LVU200
 717              		.loc 1 224 39 is_stmt 0 view .LVU201
 718 0006 104A     		ldr	r2, .L47
 719 0008 D2F80034 		ldr	r3, [r2, #1024]
 720              		.loc 1 224 69 view .LVU202
 721 000c D2F80424 		ldr	r2, [r2, #1028]
 722              	.LVL35:
 225:src/softwareserial.c ****     if (count < 0)
 723              		.loc 1 225 5 is_stmt 1 view .LVU203
 724              		.loc 1 225 8 is_stmt 0 view .LVU204
 725 0010 9B1A     		subs	r3, r3, r2
 726              	.LVL36:
 727              		.loc 1 225 8 view .LVU205
 728 0012 06D4     		bmi	.L45
 729              	.LVL37:
 730              	.L39:
 226:src/softwareserial.c ****         count += SOFTWARE_SERIAL_BUFFER_SIZE;
 227:src/softwareserial.c **** 
 228:src/softwareserial.c ****     if (count + len >= SOFTWARE_SERIAL_BUFFER_SIZE-2){
ARM GAS  /tmp/ccs4xsFa.s 			page 19


 731              		.loc 1 228 5 is_stmt 1 view .LVU206
 732              		.loc 1 228 15 is_stmt 0 view .LVU207
 733 0014 2B44     		add	r3, r3, r5
 734              	.LVL38:
 735              		.loc 1 228 8 view .LVU208
 736 0016 40F2FD32 		movw	r2, #1021
 737 001a 9342     		cmp	r3, r2
 738 001c 04DC     		bgt	.L46
 739              	.LBB22:
 229:src/softwareserial.c ****         softwareserialTXbuffer.overflow++;
 230:src/softwareserial.c ****         return 0;
 231:src/softwareserial.c ****     }
 232:src/softwareserial.c **** 
 233:src/softwareserial.c ****     for (int i = 0; i < len; i++){
 740              		.loc 1 233 14 view .LVU209
 741 001e 0024     		movs	r4, #0
 742 0020 0EE0     		b	.L40
 743              	.LVL39:
 744              	.L45:
 745              		.loc 1 233 14 view .LVU210
 746              	.LBE22:
 226:src/softwareserial.c ****         count += SOFTWARE_SERIAL_BUFFER_SIZE;
 747              		.loc 1 226 9 is_stmt 1 view .LVU211
 226:src/softwareserial.c ****         count += SOFTWARE_SERIAL_BUFFER_SIZE;
 748              		.loc 1 226 15 is_stmt 0 view .LVU212
 749 0022 03F58063 		add	r3, r3, #1024
 750              	.LVL40:
 226:src/softwareserial.c ****         count += SOFTWARE_SERIAL_BUFFER_SIZE;
 751              		.loc 1 226 15 view .LVU213
 752 0026 F5E7     		b	.L39
 753              	.LVL41:
 754              	.L46:
 229:src/softwareserial.c ****         softwareserialTXbuffer.overflow++;
 755              		.loc 1 229 9 is_stmt 1 view .LVU214
 229:src/softwareserial.c ****         softwareserialTXbuffer.overflow++;
 756              		.loc 1 229 31 is_stmt 0 view .LVU215
 757 0028 074A     		ldr	r2, .L47
 758 002a D2F81434 		ldr	r3, [r2, #1044]
 229:src/softwareserial.c ****         softwareserialTXbuffer.overflow++;
 759              		.loc 1 229 40 view .LVU216
 760 002e 0133     		adds	r3, r3, #1
 761 0030 C2F81434 		str	r3, [r2, #1044]
 230:src/softwareserial.c ****     }
 762              		.loc 1 230 9 is_stmt 1 view .LVU217
 230:src/softwareserial.c ****     }
 763              		.loc 1 230 16 is_stmt 0 view .LVU218
 764 0034 0025     		movs	r5, #0
 765 0036 05E0     		b	.L41
 766              	.LVL42:
 767              	.L42:
 768              	.LBB23:
 234:src/softwareserial.c ****         softwareserial_puttx( data[i] );
 769              		.loc 1 234 9 is_stmt 1 view .LVU219
 770 0038 305D     		ldrb	r0, [r6, r4]	@ zero_extendqisi2
 771 003a FFF7FEFF 		bl	softwareserial_puttx
 772              	.LVL43:
 233:src/softwareserial.c ****         softwareserial_puttx( data[i] );
ARM GAS  /tmp/ccs4xsFa.s 			page 20


 773              		.loc 1 233 31 discriminator 3 view .LVU220
 774 003e 0134     		adds	r4, r4, #1
 775              	.LVL44:
 776              	.L40:
 233:src/softwareserial.c ****         softwareserial_puttx( data[i] );
 777              		.loc 1 233 23 discriminator 1 view .LVU221
 778 0040 AC42     		cmp	r4, r5
 779 0042 F9DB     		blt	.L42
 780              	.LVL45:
 781              	.L41:
 233:src/softwareserial.c ****         softwareserial_puttx( data[i] );
 782              		.loc 1 233 23 is_stmt 0 discriminator 1 view .LVU222
 783              	.LBE23:
 235:src/softwareserial.c ****     }
 236:src/softwareserial.c ****     return len;
 237:src/softwareserial.c **** }
 784              		.loc 1 237 1 view .LVU223
 785 0044 2846     		mov	r0, r5
 786 0046 70BD     		pop	{r4, r5, r6, pc}
 787              	.LVL46:
 788              	.L48:
 789              		.loc 1 237 1 view .LVU224
 790              		.align	2
 791              	.L47:
 792 0048 00000000 		.word	softwareserialTXbuffer
 793              		.cfi_endproc
 794              	.LFE74:
 796              		.global	__aeabi_i2f
 797              		.global	__aeabi_f2d
 798              		.global	__aeabi_dmul
 799              		.global	__aeabi_d2f
 800              		.global	__aeabi_f2iz
 801              		.section	.text.softwareserial_Send_Wait,"ax",%progbits
 802              		.align	1
 803              		.global	softwareserial_Send_Wait
 804              		.syntax unified
 805              		.thumb
 806              		.thumb_func
 808              	softwareserial_Send_Wait:
 809              	.LVL47:
 810              	.LFB75:
 238:src/softwareserial.c **** 
 239:src/softwareserial.c **** //////////////////////////////////////////////////////////
 240:src/softwareserial.c **** // copy a buffer of data to the output buffer in chunks
 241:src/softwareserial.c **** // waiting if necessary for the data to leave so there is room
 242:src/softwareserial.c **** // use sparingly as this will pause main loop!!!
 243:src/softwareserial.c **** // used in 'protocol' for long strings, like '?' response
 244:src/softwareserial.c **** int softwareserial_Send_Wait(unsigned char *data, int len){
 811              		.loc 1 244 59 is_stmt 1 view -0
 812              		.cfi_startproc
 813              		@ args = 0, pretend = 0, frame = 0
 814              		@ frame_needed = 0, uses_anonymous_args = 0
 815              		.loc 1 244 59 is_stmt 0 view .LVU226
 816 0000 2DE9F041 		push	{r4, r5, r6, r7, r8, lr}
 817              	.LCFI4:
 818              		.cfi_def_cfa_offset 24
 819              		.cfi_offset 4, -24
ARM GAS  /tmp/ccs4xsFa.s 			page 21


 820              		.cfi_offset 5, -20
 821              		.cfi_offset 6, -16
 822              		.cfi_offset 7, -12
 823              		.cfi_offset 8, -8
 824              		.cfi_offset 14, -4
 825 0004 0646     		mov	r6, r0
 826 0006 8846     		mov	r8, r1
 245:src/softwareserial.c ****     int orglen = len;
 827              		.loc 1 245 5 is_stmt 1 view .LVU227
 828              	.LVL48:
 246:src/softwareserial.c ****     int maxloops = 1000;
 829              		.loc 1 246 5 view .LVU228
 247:src/softwareserial.c ****     while (len && maxloops){
 830              		.loc 1 247 5 view .LVU229
 831              		.loc 1 247 11 is_stmt 0 view .LVU230
 832 0008 0D46     		mov	r5, r1
 246:src/softwareserial.c ****     int maxloops = 1000;
 833              		.loc 1 246 9 view .LVU231
 834 000a 4FF47A77 		mov	r7, #1000
 835              		.loc 1 247 11 view .LVU232
 836 000e 0AE0     		b	.L50
 837              	.LVL49:
 838              	.L58:
 839              	.LBB24:
 248:src/softwareserial.c ****         maxloops--;
 249:src/softwareserial.c ****         int count = softwareserialTXbuffer.head - softwareserialTXbuffer.tail;
 250:src/softwareserial.c ****         if (count < 0)
 251:src/softwareserial.c ****             count += SOFTWARE_SERIAL_BUFFER_SIZE;
 840              		.loc 1 251 13 is_stmt 1 view .LVU233
 841              		.loc 1 251 19 is_stmt 0 view .LVU234
 842 0010 04F58064 		add	r4, r4, #1024
 843              	.LVL50:
 844              		.loc 1 251 19 view .LVU235
 845 0014 11E0     		b	.L51
 846              	.LVL51:
 847              	.L52:
 252:src/softwareserial.c **** 
 253:src/softwareserial.c ****         int avail = (SOFTWARE_SERIAL_BUFFER_SIZE-3) - count;
 254:src/softwareserial.c **** 
 255:src/softwareserial.c ****         int sendlen = len;
 256:src/softwareserial.c ****         if (sendlen > avail){
 257:src/softwareserial.c ****             sendlen = avail;
 258:src/softwareserial.c ****         }
 259:src/softwareserial.c ****         softwareserial_Send(data, sendlen);
 848              		.loc 1 259 9 is_stmt 1 view .LVU236
 849 0016 2146     		mov	r1, r4
 850 0018 3046     		mov	r0, r6
 851 001a FFF7FEFF 		bl	softwareserial_Send
 852              	.LVL52:
 260:src/softwareserial.c ****         len -= sendlen;
 853              		.loc 1 260 9 view .LVU237
 854              		.loc 1 260 13 is_stmt 0 view .LVU238
 855 001e 2D1B     		subs	r5, r5, r4
 856              	.LVL53:
 261:src/softwareserial.c ****         data += sendlen;
 857              		.loc 1 261 9 is_stmt 1 view .LVU239
 858              		.loc 1 261 14 is_stmt 0 view .LVU240
ARM GAS  /tmp/ccs4xsFa.s 			page 22


 859 0020 2644     		add	r6, r6, r4
 860              	.LVL54:
 262:src/softwareserial.c **** 
 263:src/softwareserial.c ****         if (len > 0){
 861              		.loc 1 263 9 is_stmt 1 view .LVU241
 862              		.loc 1 263 12 is_stmt 0 view .LVU242
 863 0022 002D     		cmp	r5, #0
 864 0024 10DC     		bgt	.L57
 865              	.LVL55:
 866              	.L50:
 867              		.loc 1 263 12 view .LVU243
 868              	.LBE24:
 247:src/softwareserial.c ****         maxloops--;
 869              		.loc 1 247 16 is_stmt 1 view .LVU244
 870 0026 25B3     		cbz	r5, .L54
 247:src/softwareserial.c ****         maxloops--;
 871              		.loc 1 247 16 is_stmt 0 discriminator 1 view .LVU245
 872 0028 1FB3     		cbz	r7, .L54
 873              	.LBB26:
 248:src/softwareserial.c ****         int count = softwareserialTXbuffer.head - softwareserialTXbuffer.tail;
 874              		.loc 1 248 9 is_stmt 1 view .LVU246
 248:src/softwareserial.c ****         int count = softwareserialTXbuffer.head - softwareserialTXbuffer.tail;
 875              		.loc 1 248 17 is_stmt 0 view .LVU247
 876 002a 013F     		subs	r7, r7, #1
 877              	.LVL56:
 249:src/softwareserial.c ****         if (count < 0)
 878              		.loc 1 249 9 is_stmt 1 view .LVU248
 249:src/softwareserial.c ****         if (count < 0)
 879              		.loc 1 249 43 is_stmt 0 view .LVU249
 880 002c 144B     		ldr	r3, .L59+8
 881 002e D3F80044 		ldr	r4, [r3, #1024]
 249:src/softwareserial.c ****         if (count < 0)
 882              		.loc 1 249 73 view .LVU250
 883 0032 D3F80434 		ldr	r3, [r3, #1028]
 884              	.LVL57:
 250:src/softwareserial.c ****             count += SOFTWARE_SERIAL_BUFFER_SIZE;
 885              		.loc 1 250 9 is_stmt 1 view .LVU251
 250:src/softwareserial.c ****             count += SOFTWARE_SERIAL_BUFFER_SIZE;
 886              		.loc 1 250 12 is_stmt 0 view .LVU252
 887 0036 E41A     		subs	r4, r4, r3
 888              	.LVL58:
 250:src/softwareserial.c ****             count += SOFTWARE_SERIAL_BUFFER_SIZE;
 889              		.loc 1 250 12 view .LVU253
 890 0038 EAD4     		bmi	.L58
 891              	.LVL59:
 892              	.L51:
 253:src/softwareserial.c **** 
 893              		.loc 1 253 9 is_stmt 1 view .LVU254
 253:src/softwareserial.c **** 
 894              		.loc 1 253 13 is_stmt 0 view .LVU255
 895 003a C4F57F74 		rsb	r4, r4, #1020
 896              	.LVL60:
 253:src/softwareserial.c **** 
 897              		.loc 1 253 13 view .LVU256
 898 003e 0134     		adds	r4, r4, #1
 899              	.LVL61:
 255:src/softwareserial.c ****         if (sendlen > avail){
ARM GAS  /tmp/ccs4xsFa.s 			page 23


 900              		.loc 1 255 9 is_stmt 1 view .LVU257
 256:src/softwareserial.c ****             sendlen = avail;
 901              		.loc 1 256 9 view .LVU258
 256:src/softwareserial.c ****             sendlen = avail;
 902              		.loc 1 256 12 is_stmt 0 view .LVU259
 903 0040 A542     		cmp	r5, r4
 904 0042 E8DC     		bgt	.L52
 255:src/softwareserial.c ****         if (sendlen > avail){
 905              		.loc 1 255 13 view .LVU260
 906 0044 2C46     		mov	r4, r5
 907              	.LVL62:
 255:src/softwareserial.c ****         if (sendlen > avail){
 908              		.loc 1 255 13 view .LVU261
 909 0046 E6E7     		b	.L52
 910              	.LVL63:
 911              	.L57:
 912              	.LBB25:
 264:src/softwareserial.c ****             // wait for an appropriate period
 265:src/softwareserial.c ****             float delay_ms = (len > sendlen)? sendlen:len;
 913              		.loc 1 265 13 is_stmt 1 view .LVU262
 914              		.loc 1 265 19 is_stmt 0 view .LVU263
 915 0048 2046     		mov	r0, r4
 916 004a AC42     		cmp	r4, r5
 917 004c A8BF     		it	ge
 918 004e 2846     		movge	r0, r5
 919 0050 FFF7FEFF 		bl	__aeabi_i2f
 920              	.LVL64:
 266:src/softwareserial.c ****             delay_ms *= SOFTWARE_SERIAL_MS_PER_BYTE;
 921              		.loc 1 266 13 is_stmt 1 view .LVU264
 922              		.loc 1 266 22 is_stmt 0 view .LVU265
 923 0054 FFF7FEFF 		bl	__aeabi_f2d
 924              	.LVL65:
 925              		.loc 1 266 22 view .LVU266
 926 0058 07A3     		adr	r3, .L59
 927 005a D3E90023 		ldrd	r2, [r3]
 928 005e FFF7FEFF 		bl	__aeabi_dmul
 929              	.LVL66:
 930 0062 FFF7FEFF 		bl	__aeabi_d2f
 931              	.LVL67:
 267:src/softwareserial.c ****             HAL_Delay((int)delay_ms + 2); //delay in ms, plus 2
 932              		.loc 1 267 13 is_stmt 1 view .LVU267
 933              		.loc 1 267 23 is_stmt 0 view .LVU268
 934 0066 FFF7FEFF 		bl	__aeabi_f2iz
 935              	.LVL68:
 936              		.loc 1 267 13 view .LVU269
 937 006a 0230     		adds	r0, r0, #2
 938 006c FFF7FEFF 		bl	HAL_Delay
 939              	.LVL69:
 940 0070 D9E7     		b	.L50
 941              	.LVL70:
 942              	.L54:
 943              		.loc 1 267 13 view .LVU270
 944              	.LBE25:
 945              	.LBE26:
 268:src/softwareserial.c ****         }
 269:src/softwareserial.c ****     }
 270:src/softwareserial.c **** 
ARM GAS  /tmp/ccs4xsFa.s 			page 24


 271:src/softwareserial.c ****     return orglen;
 946              		.loc 1 271 5 is_stmt 1 view .LVU271
 272:src/softwareserial.c **** }
 947              		.loc 1 272 1 is_stmt 0 view .LVU272
 948 0072 4046     		mov	r0, r8
 949 0074 BDE8F081 		pop	{r4, r5, r6, r7, r8, pc}
 950              	.LVL71:
 951              	.L60:
 952              		.loc 1 272 1 view .LVU273
 953              		.align	3
 954              	.L59:
 955 0078 8EE3388E 		.word	-1908874354
 956 007c E338B63F 		.word	1068906723
 957 0080 00000000 		.word	softwareserialTXbuffer
 958              		.cfi_endproc
 959              	.LFE75:
 961              		.section	.text.softwareserialRXInterrupt,"ax",%progbits
 962              		.align	1
 963              		.global	softwareserialRXInterrupt
 964              		.syntax unified
 965              		.thumb
 966              		.thumb_func
 968              	softwareserialRXInterrupt:
 969              	.LFB76:
 273:src/softwareserial.c **** 
 274:src/softwareserial.c **** 
 275:src/softwareserial.c **** 
 276:src/softwareserial.c **** // interrupt on rising or falling edge of serial....
 277:src/softwareserial.c **** void softwareserialRXInterrupt(void){
 970              		.loc 1 277 37 is_stmt 1 view -0
 971              		.cfi_startproc
 972              		@ args = 0, pretend = 0, frame = 0
 973              		@ frame_needed = 0, uses_anonymous_args = 0
 974 0000 30B5     		push	{r4, r5, lr}
 975              	.LCFI5:
 976              		.cfi_def_cfa_offset 12
 977              		.cfi_offset 4, -12
 978              		.cfi_offset 5, -8
 979              		.cfi_offset 14, -4
 278:src/softwareserial.c ****     char value = (SOFTWARE_SERIAL_RX_PORT->IDR & SOFTWARE_SERIAL_RX_PIN)?1:0;
 980              		.loc 1 278 5 view .LVU275
 981              		.loc 1 278 42 is_stmt 0 view .LVU276
 982 0002 474B     		ldr	r3, .L82
 983 0004 9B68     		ldr	r3, [r3, #8]
 984              		.loc 1 278 75 view .LVU277
 985 0006 C3F3803C 		ubfx	ip, r3, #14, #1
 986              	.LVL72:
 279:src/softwareserial.c ****     unsigned int time = softwareserialtimer.Instance->CNT;
 987              		.loc 1 279 5 is_stmt 1 view .LVU278
 988              		.loc 1 279 44 is_stmt 0 view .LVU279
 989 000a 464B     		ldr	r3, .L82+4
 990 000c 1B68     		ldr	r3, [r3]
 991              		.loc 1 279 18 view .LVU280
 992 000e 5C6A     		ldr	r4, [r3, #36]
 993              	.LVL73:
 280:src/softwareserial.c **** 
 281:src/softwareserial.c **** 
ARM GAS  /tmp/ccs4xsFa.s 			page 25


 282:src/softwareserial.c ****     timerval = time;
 994              		.loc 1 282 5 is_stmt 1 view .LVU281
 995              		.loc 1 282 14 is_stmt 0 view .LVU282
 996 0010 454B     		ldr	r3, .L82+8
 997 0012 1C60     		str	r4, [r3]
 283:src/softwareserial.c **** 
 284:src/softwareserial.c ****     // time is in terms of baud *8
 285:src/softwareserial.c ****     int tdiff = time - softwareserialRXbuffer.lasttime;
 998              		.loc 1 285 5 is_stmt 1 view .LVU283
 999              		.loc 1 285 46 is_stmt 0 view .LVU284
 1000 0014 454B     		ldr	r3, .L82+12
 1001 0016 D3F80C34 		ldr	r3, [r3, #1036]
 1002              	.LVL74:
 286:src/softwareserial.c ****     if (tdiff < 0) tdiff += 0x10000;
 1003              		.loc 1 286 5 is_stmt 1 view .LVU285
 1004              		.loc 1 286 8 is_stmt 0 view .LVU286
 1005 001a E31A     		subs	r3, r4, r3
 1006              	.LVL75:
 1007              		.loc 1 286 8 view .LVU287
 1008 001c 18D4     		bmi	.L77
 1009              	.LVL76:
 1010              	.L62:
 287:src/softwareserial.c **** 
 288:src/softwareserial.c ****     int bits = (tdiff+2)/8;
 1011              		.loc 1 288 5 is_stmt 1 view .LVU288
 1012              		.loc 1 288 9 is_stmt 0 view .LVU289
 1013 001e 981C     		adds	r0, r3, #2
 1014 0020 19D4     		bmi	.L78
 1015              	.L63:
 1016 0022 C010     		asrs	r0, r0, #3
 1017              	.LVL77:
 289:src/softwareserial.c **** 
 290:src/softwareserial.c ****     if (bits > 10) {
 1018              		.loc 1 290 5 is_stmt 1 view .LVU290
 1019              		.loc 1 290 8 is_stmt 0 view .LVU291
 1020 0024 552B     		cmp	r3, #85
 1021 0026 05DD     		ble	.L64
 291:src/softwareserial.c ****         bits = 10;
 1022              		.loc 1 291 9 is_stmt 1 view .LVU292
 1023              	.LVL78:
 292:src/softwareserial.c ****         softwareserialRXbuffer.bit = -2;
 1024              		.loc 1 292 9 view .LVU293
 1025              		.loc 1 292 36 is_stmt 0 view .LVU294
 1026 0028 404B     		ldr	r3, .L82+12
 1027              	.LVL79:
 1028              		.loc 1 292 36 view .LVU295
 1029 002a 6FF00102 		mvn	r2, #1
 1030 002e C3F80824 		str	r2, [r3, #1032]
 291:src/softwareserial.c ****         bits = 10;
 1031              		.loc 1 291 14 view .LVU296
 1032 0032 0A20     		movs	r0, #10
 1033              	.LVL80:
 1034              	.L64:
 293:src/softwareserial.c ****     }
 294:src/softwareserial.c **** 
 295:src/softwareserial.c ****     if ((softwareserialRXbuffer.bit == -2) && (softwareserialRXbuffer.lastvalue == 0)) {
 1035              		.loc 1 295 5 is_stmt 1 view .LVU297
ARM GAS  /tmp/ccs4xsFa.s 			page 26


 1036              		.loc 1 295 32 is_stmt 0 view .LVU298
 1037 0034 3D4B     		ldr	r3, .L82+12
 1038 0036 D3F80834 		ldr	r3, [r3, #1032]
 1039              		.loc 1 295 8 view .LVU299
 1040 003a 13F1020F 		cmn	r3, #2
 1041 003e 0CD0     		beq	.L79
 1042              	.L65:
 296:src/softwareserial.c ****         softwareserialRXbuffer.bit = -1;
 297:src/softwareserial.c ****         softwareserialRXbuffer.buff[softwareserialRXbuffer.head] = 0;
 298:src/softwareserial.c ****     }
 299:src/softwareserial.c **** 
 300:src/softwareserial.c ****     if (softwareserialRXbuffer.bit > -2){
 1043              		.loc 1 300 5 is_stmt 1 view .LVU300
 1044              		.loc 1 300 31 is_stmt 0 view .LVU301
 1045 0040 3A4B     		ldr	r3, .L82+12
 1046 0042 D3F80834 		ldr	r3, [r3, #1032]
 1047              		.loc 1 300 8 view .LVU302
 1048 0046 B3F1FF3F 		cmp	r3, #-1
 1049 004a 4EDB     		blt	.L67
 1050              	.LBB27:
 301:src/softwareserial.c ****         for (int i = 0; i < bits; i++){
 1051              		.loc 1 301 18 view .LVU303
 1052 004c 0021     		movs	r1, #0
 1053 004e 27E0     		b	.L66
 1054              	.LVL81:
 1055              	.L77:
 1056              		.loc 1 301 18 view .LVU304
 1057              	.LBE27:
 286:src/softwareserial.c **** 
 1058              		.loc 1 286 20 is_stmt 1 discriminator 1 view .LVU305
 286:src/softwareserial.c **** 
 1059              		.loc 1 286 26 is_stmt 0 discriminator 1 view .LVU306
 1060 0050 03F58033 		add	r3, r3, #65536
 1061              	.LVL82:
 286:src/softwareserial.c **** 
 1062              		.loc 1 286 26 discriminator 1 view .LVU307
 1063 0054 E3E7     		b	.L62
 1064              	.L78:
 288:src/softwareserial.c **** 
 1065              		.loc 1 288 9 view .LVU308
 1066 0056 0730     		adds	r0, r0, #7
 1067 0058 E3E7     		b	.L63
 1068              	.LVL83:
 1069              	.L79:
 295:src/softwareserial.c ****         softwareserialRXbuffer.bit = -1;
 1070              		.loc 1 295 70 discriminator 1 view .LVU309
 1071 005a 344B     		ldr	r3, .L82+12
 1072 005c 93F81034 		ldrb	r3, [r3, #1040]	@ zero_extendqisi2
 295:src/softwareserial.c ****         softwareserialRXbuffer.bit = -1;
 1073              		.loc 1 295 44 discriminator 1 view .LVU310
 1074 0060 002B     		cmp	r3, #0
 1075 0062 EDD1     		bne	.L65
 296:src/softwareserial.c ****         softwareserialRXbuffer.buff[softwareserialRXbuffer.head] = 0;
 1076              		.loc 1 296 9 is_stmt 1 view .LVU311
 296:src/softwareserial.c ****         softwareserialRXbuffer.buff[softwareserialRXbuffer.head] = 0;
 1077              		.loc 1 296 36 is_stmt 0 view .LVU312
 1078 0064 314B     		ldr	r3, .L82+12
ARM GAS  /tmp/ccs4xsFa.s 			page 27


 1079 0066 4FF0FF32 		mov	r2, #-1
 1080 006a C3F80824 		str	r2, [r3, #1032]
 297:src/softwareserial.c ****     }
 1081              		.loc 1 297 9 is_stmt 1 view .LVU313
 297:src/softwareserial.c ****     }
 1082              		.loc 1 297 59 is_stmt 0 view .LVU314
 1083 006e D3F80024 		ldr	r2, [r3, #1024]
 297:src/softwareserial.c ****     }
 1084              		.loc 1 297 66 view .LVU315
 1085 0072 0021     		movs	r1, #0
 1086 0074 9954     		strb	r1, [r3, r2]
 1087 0076 E3E7     		b	.L65
 1088              	.LVL84:
 1089              	.L75:
 1090              	.LBB30:
 302:src/softwareserial.c ****             if (softwareserialRXbuffer.bit >= 0){
 303:src/softwareserial.c ****                 softwareserialRXbuffer.buff[softwareserialRXbuffer.head] >>= 1;
 304:src/softwareserial.c ****                 softwareserialRXbuffer.buff[softwareserialRXbuffer.head] |= (softwareserialRXbuffer
 1091              		.loc 1 304 115 discriminator 2 view .LVU316
 1092 0078 4FF0000E 		mov	lr, #0
 1093              	.L69:
 1094              		.loc 1 304 67 discriminator 4 view .LVU317
 1095 007c 2B4B     		ldr	r3, .L82+12
 1096 007e D3F80054 		ldr	r5, [r3, #1024]
 1097              		.loc 1 304 44 discriminator 4 view .LVU318
 1098 0082 5A5D     		ldrb	r2, [r3, r5]	@ zero_extendqisi2
 1099              		.loc 1 304 74 discriminator 4 view .LVU319
 1100 0084 42EA0E02 		orr	r2, r2, lr
 1101 0088 5A55     		strb	r2, [r3, r5]
 1102              	.L68:
 305:src/softwareserial.c ****             }
 306:src/softwareserial.c ****             softwareserialRXbuffer.bit++;
 1103              		.loc 1 306 13 is_stmt 1 view .LVU320
 1104              		.loc 1 306 35 is_stmt 0 view .LVU321
 1105 008a 284B     		ldr	r3, .L82+12
 1106 008c D3F80824 		ldr	r2, [r3, #1032]
 1107              		.loc 1 306 39 view .LVU322
 1108 0090 0132     		adds	r2, r2, #1
 1109 0092 C3F80824 		str	r2, [r3, #1032]
 307:src/softwareserial.c ****             if (softwareserialRXbuffer.bit >= 8){
 1110              		.loc 1 307 13 is_stmt 1 view .LVU323
 1111              		.loc 1 307 39 is_stmt 0 view .LVU324
 1112 0096 D3F80834 		ldr	r3, [r3, #1032]
 1113              		.loc 1 307 16 view .LVU325
 1114 009a 072B     		cmp	r3, #7
 1115 009c 14DC     		bgt	.L80
 301:src/softwareserial.c ****             if (softwareserialRXbuffer.bit >= 0){
 1116              		.loc 1 301 36 is_stmt 1 discriminator 2 view .LVU326
 1117 009e 0131     		adds	r1, r1, #1
 1118              	.LVL85:
 1119              	.L66:
 301:src/softwareserial.c ****             if (softwareserialRXbuffer.bit >= 0){
 1120              		.loc 1 301 27 discriminator 1 view .LVU327
 1121 00a0 8842     		cmp	r0, r1
 1122 00a2 22DD     		ble	.L67
 302:src/softwareserial.c ****                 softwareserialRXbuffer.buff[softwareserialRXbuffer.head] >>= 1;
 1123              		.loc 1 302 13 view .LVU328
ARM GAS  /tmp/ccs4xsFa.s 			page 28


 302:src/softwareserial.c ****                 softwareserialRXbuffer.buff[softwareserialRXbuffer.head] >>= 1;
 1124              		.loc 1 302 39 is_stmt 0 view .LVU329
 1125 00a4 214B     		ldr	r3, .L82+12
 1126 00a6 D3F80834 		ldr	r3, [r3, #1032]
 302:src/softwareserial.c ****                 softwareserialRXbuffer.buff[softwareserialRXbuffer.head] >>= 1;
 1127              		.loc 1 302 16 view .LVU330
 1128 00aa 002B     		cmp	r3, #0
 1129 00ac EDDB     		blt	.L68
 303:src/softwareserial.c ****                 softwareserialRXbuffer.buff[softwareserialRXbuffer.head] |= (softwareserialRXbuffer
 1130              		.loc 1 303 17 is_stmt 1 view .LVU331
 303:src/softwareserial.c ****                 softwareserialRXbuffer.buff[softwareserialRXbuffer.head] |= (softwareserialRXbuffer
 1131              		.loc 1 303 67 is_stmt 0 view .LVU332
 1132 00ae 1F4B     		ldr	r3, .L82+12
 1133 00b0 D3F80054 		ldr	r5, [r3, #1024]
 303:src/softwareserial.c ****                 softwareserialRXbuffer.buff[softwareserialRXbuffer.head] |= (softwareserialRXbuffer
 1134              		.loc 1 303 44 view .LVU333
 1135 00b4 5A5D     		ldrb	r2, [r3, r5]	@ zero_extendqisi2
 303:src/softwareserial.c ****                 softwareserialRXbuffer.buff[softwareserialRXbuffer.head] |= (softwareserialRXbuffer
 1136              		.loc 1 303 74 view .LVU334
 1137 00b6 5208     		lsrs	r2, r2, #1
 1138 00b8 5A55     		strb	r2, [r3, r5]
 304:src/softwareserial.c ****             }
 1139              		.loc 1 304 17 is_stmt 1 view .LVU335
 304:src/softwareserial.c ****             }
 1140              		.loc 1 304 100 is_stmt 0 view .LVU336
 1141 00ba 93F81034 		ldrb	r3, [r3, #1040]	@ zero_extendqisi2
 304:src/softwareserial.c ****             }
 1142              		.loc 1 304 115 view .LVU337
 1143 00be 002B     		cmp	r3, #0
 1144 00c0 DAD0     		beq	.L75
 304:src/softwareserial.c ****             }
 1145              		.loc 1 304 115 discriminator 1 view .LVU338
 1146 00c2 4FF0800E 		mov	lr, #128
 1147 00c6 D9E7     		b	.L69
 1148              	.L80:
 1149              	.LBB28:
 308:src/softwareserial.c ****                 int count = softwareserialRXbuffer.head - softwareserialRXbuffer.tail;
 1150              		.loc 1 308 17 is_stmt 1 view .LVU339
 1151              		.loc 1 308 51 is_stmt 0 view .LVU340
 1152 00c8 184A     		ldr	r2, .L82+12
 1153 00ca D2F80034 		ldr	r3, [r2, #1024]
 1154              		.loc 1 308 81 view .LVU341
 1155 00ce D2F80424 		ldr	r2, [r2, #1028]
 1156              	.LVL86:
 309:src/softwareserial.c ****                 if (count < 0) count += SOFTWARE_SERIAL_BUFFER_SIZE;
 1157              		.loc 1 309 17 is_stmt 1 view .LVU342
 1158              		.loc 1 309 20 is_stmt 0 view .LVU343
 1159 00d2 9B1A     		subs	r3, r3, r2
 1160              	.LVL87:
 1161              		.loc 1 309 20 view .LVU344
 1162 00d4 0FD4     		bmi	.L81
 1163              	.LVL88:
 1164              	.L71:
 310:src/softwareserial.c ****                 if (count >=  SOFTWARE_SERIAL_BUFFER_SIZE-2){
 1165              		.loc 1 310 17 is_stmt 1 view .LVU345
 1166              		.loc 1 310 20 is_stmt 0 view .LVU346
 1167 00d6 40F2FD32 		movw	r2, #1021
ARM GAS  /tmp/ccs4xsFa.s 			page 29


 1168 00da 9342     		cmp	r3, r2
 1169 00dc 0EDD     		ble	.L72
 311:src/softwareserial.c ****                     softwareserialRXbuffer.overflow++;
 1170              		.loc 1 311 21 is_stmt 1 view .LVU347
 1171              		.loc 1 311 43 is_stmt 0 view .LVU348
 1172 00de 134A     		ldr	r2, .L82+12
 1173 00e0 D2F81434 		ldr	r3, [r2, #1044]
 1174              	.LVL89:
 1175              		.loc 1 311 52 view .LVU349
 1176 00e4 0133     		adds	r3, r3, #1
 1177 00e6 C2F81434 		str	r3, [r2, #1044]
 312:src/softwareserial.c ****                     break;
 1178              		.loc 1 312 21 is_stmt 1 view .LVU350
 1179              	.LVL90:
 1180              	.L67:
 1181              		.loc 1 312 21 is_stmt 0 view .LVU351
 1182              	.LBE28:
 1183              	.LBE30:
 313:src/softwareserial.c ****                 } else {
 314:src/softwareserial.c ****                     softwareserialRXbuffer.head = (softwareserialRXbuffer.head + 1) % SOFTWARE_SERI
 315:src/softwareserial.c ****                     softwareserialRXbuffer.bit = -2;
 316:src/softwareserial.c ****                     break;
 317:src/softwareserial.c ****                 }
 318:src/softwareserial.c ****             }
 319:src/softwareserial.c ****         }
 320:src/softwareserial.c ****     }
 321:src/softwareserial.c **** 
 322:src/softwareserial.c ****     softwareserialRXbuffer.lastvalue = value;
 1184              		.loc 1 322 5 is_stmt 1 view .LVU352
 1185              		.loc 1 322 38 is_stmt 0 view .LVU353
 1186 00ea 104B     		ldr	r3, .L82+12
 1187 00ec 83F810C4 		strb	ip, [r3, #1040]
 323:src/softwareserial.c ****     softwareserialRXbuffer.lasttime = time;
 1188              		.loc 1 323 5 is_stmt 1 view .LVU354
 1189              		.loc 1 323 37 is_stmt 0 view .LVU355
 1190 00f0 C3F80C44 		str	r4, [r3, #1036]
 324:src/softwareserial.c **** }
 1191              		.loc 1 324 1 view .LVU356
 1192 00f4 30BD     		pop	{r4, r5, pc}
 1193              	.LVL91:
 1194              	.L81:
 1195              	.LBB31:
 1196              	.LBB29:
 309:src/softwareserial.c ****                 if (count >=  SOFTWARE_SERIAL_BUFFER_SIZE-2){
 1197              		.loc 1 309 32 is_stmt 1 discriminator 1 view .LVU357
 309:src/softwareserial.c ****                 if (count >=  SOFTWARE_SERIAL_BUFFER_SIZE-2){
 1198              		.loc 1 309 38 is_stmt 0 discriminator 1 view .LVU358
 1199 00f6 03F58063 		add	r3, r3, #1024
 1200              	.LVL92:
 309:src/softwareserial.c ****                 if (count >=  SOFTWARE_SERIAL_BUFFER_SIZE-2){
 1201              		.loc 1 309 38 discriminator 1 view .LVU359
 1202 00fa ECE7     		b	.L71
 1203              	.L72:
 314:src/softwareserial.c ****                     softwareserialRXbuffer.bit = -2;
 1204              		.loc 1 314 21 is_stmt 1 view .LVU360
 314:src/softwareserial.c ****                     softwareserialRXbuffer.bit = -2;
 1205              		.loc 1 314 74 is_stmt 0 view .LVU361
ARM GAS  /tmp/ccs4xsFa.s 			page 30


 1206 00fc 0B4A     		ldr	r2, .L82+12
 1207 00fe D2F80034 		ldr	r3, [r2, #1024]
 1208              	.LVL93:
 314:src/softwareserial.c ****                     softwareserialRXbuffer.bit = -2;
 1209              		.loc 1 314 80 view .LVU362
 1210 0102 0133     		adds	r3, r3, #1
 314:src/softwareserial.c ****                     softwareserialRXbuffer.bit = -2;
 1211              		.loc 1 314 85 view .LVU363
 1212 0104 5942     		rsbs	r1, r3, #0
 1213              	.LVL94:
 314:src/softwareserial.c ****                     softwareserialRXbuffer.bit = -2;
 1214              		.loc 1 314 85 view .LVU364
 1215 0106 C3F30903 		ubfx	r3, r3, #0, #10
 1216 010a C1F30901 		ubfx	r1, r1, #0, #10
 1217 010e 58BF     		it	pl
 1218 0110 4B42     		rsbpl	r3, r1, #0
 314:src/softwareserial.c ****                     softwareserialRXbuffer.bit = -2;
 1219              		.loc 1 314 49 view .LVU365
 1220 0112 C2F80034 		str	r3, [r2, #1024]
 315:src/softwareserial.c ****                     break;
 1221              		.loc 1 315 21 is_stmt 1 view .LVU366
 315:src/softwareserial.c ****                     break;
 1222              		.loc 1 315 48 is_stmt 0 view .LVU367
 1223 0116 6FF00103 		mvn	r3, #1
 1224 011a C2F80834 		str	r3, [r2, #1032]
 316:src/softwareserial.c ****                 }
 1225              		.loc 1 316 21 is_stmt 1 view .LVU368
 1226 011e E4E7     		b	.L67
 1227              	.L83:
 1228              		.align	2
 1229              	.L82:
 1230 0120 00080140 		.word	1073809408
 1231 0124 00000000 		.word	softwareserialtimer
 1232 0128 00000000 		.word	timerval
 1233 012c 00000000 		.word	softwareserialRXbuffer
 1234              	.LBE29:
 1235              	.LBE31:
 1236              		.cfi_endproc
 1237              	.LFE76:
 1239              		.section	.text.TIM3_IRQHandler,"ax",%progbits
 1240              		.align	1
 1241              		.global	TIM3_IRQHandler
 1242              		.syntax unified
 1243              		.thumb
 1244              		.thumb_func
 1246              	TIM3_IRQHandler:
 1247              	.LFB77:
 325:src/softwareserial.c **** 
 326:src/softwareserial.c **** 
 327:src/softwareserial.c **** // transmit interrupt
 328:src/softwareserial.c **** void TIM3_IRQHandler(void){
 1248              		.loc 1 328 27 view -0
 1249              		.cfi_startproc
 1250              		@ args = 0, pretend = 0, frame = 0
 1251              		@ frame_needed = 0, uses_anonymous_args = 0
 1252 0000 08B5     		push	{r3, lr}
 1253              	.LCFI6:
ARM GAS  /tmp/ccs4xsFa.s 			page 31


 1254              		.cfi_def_cfa_offset 8
 1255              		.cfi_offset 3, -8
 1256              		.cfi_offset 14, -4
 329:src/softwareserial.c ****     short t = -1;
 1257              		.loc 1 329 5 view .LVU370
 1258              	.LVL95:
 330:src/softwareserial.c **** 
 331:src/softwareserial.c ****     if (__HAL_TIM_GET_FLAG(&softwareserialtimerTX, TIM_IT_UPDATE) != RESET){
 1259              		.loc 1 331 5 view .LVU371
 1260              		.loc 1 331 9 is_stmt 0 view .LVU372
 1261 0002 414B     		ldr	r3, .L99
 1262 0004 1B68     		ldr	r3, [r3]
 1263 0006 1A69     		ldr	r2, [r3, #16]
 1264              		.loc 1 331 8 view .LVU373
 1265 0008 12F0010F 		tst	r2, #1
 1266 000c 02D0     		beq	.L85
 332:src/softwareserial.c ****         __HAL_TIM_CLEAR_FLAG(&softwareserialtimerTX, TIM_IT_UPDATE);
 1267              		.loc 1 332 9 is_stmt 1 view .LVU374
 1268 000e 6FF00102 		mvn	r2, #1
 1269 0012 1A61     		str	r2, [r3, #16]
 1270              	.L85:
 333:src/softwareserial.c ****     }
 334:src/softwareserial.c **** 
 335:src/softwareserial.c ****     if (softwareserialTXbuffer.head != softwareserialTXbuffer.tail){
 1271              		.loc 1 335 5 view .LVU375
 1272              		.loc 1 335 31 is_stmt 0 view .LVU376
 1273 0014 3D4B     		ldr	r3, .L99+4
 1274 0016 D3F80024 		ldr	r2, [r3, #1024]
 1275              		.loc 1 335 62 view .LVU377
 1276 001a D3F80434 		ldr	r3, [r3, #1028]
 1277              		.loc 1 335 8 view .LVU378
 1278 001e 9A42     		cmp	r2, r3
 1279 0020 64D0     		beq	.L86
 336:src/softwareserial.c ****         t = softwareserialTXbuffer.buff[softwareserialTXbuffer.tail];
 1280              		.loc 1 336 9 is_stmt 1 view .LVU379
 1281              		.loc 1 336 63 is_stmt 0 view .LVU380
 1282 0022 3A4A     		ldr	r2, .L99+4
 1283 0024 D2F80434 		ldr	r3, [r2, #1028]
 1284              		.loc 1 336 40 view .LVU381
 1285 0028 D35C     		ldrb	r3, [r2, r3]	@ zero_extendqisi2
 1286 002a DBB2     		uxtb	r3, r3
 1287              	.LVL96:
 337:src/softwareserial.c ****         switch (softwareserialTXbuffer.bit){
 1288              		.loc 1 337 9 is_stmt 1 view .LVU382
 1289              		.loc 1 337 39 is_stmt 0 view .LVU383
 1290 002c D2F80824 		ldr	r2, [r2, #1032]
 1291              		.loc 1 337 9 view .LVU384
 1292 0030 B2F1FF3F 		cmp	r2, #-1
 1293 0034 22D0     		beq	.L96
 338:src/softwareserial.c ****             case -1: // send start bit
 339:src/softwareserial.c ****                 HAL_GPIO_WritePin(SOFTWARE_SERIAL_TX_PORT, SOFTWARE_SERIAL_TX_PIN, GPIO_PIN_RESET);
 340:src/softwareserial.c ****                 softwareserialTXbuffer.bit++;
 341:src/softwareserial.c ****                 break;
 342:src/softwareserial.c ****             default:
 343:src/softwareserial.c ****                 if (softwareserialTXbuffer.bit < 8){
 1294              		.loc 1 343 17 is_stmt 1 view .LVU385
 1295              		.loc 1 343 43 is_stmt 0 view .LVU386
ARM GAS  /tmp/ccs4xsFa.s 			page 32


 1296 0036 354A     		ldr	r2, .L99+4
 1297 0038 D2F80824 		ldr	r2, [r2, #1032]
 1298              		.loc 1 343 20 view .LVU387
 1299 003c 072A     		cmp	r2, #7
 1300 003e 31DC     		bgt	.L89
 344:src/softwareserial.c ****                     if (t & (0x1 << softwareserialTXbuffer.bit)){
 1301              		.loc 1 344 21 is_stmt 1 view .LVU388
 1302              		.loc 1 344 59 is_stmt 0 view .LVU389
 1303 0040 324A     		ldr	r2, .L99+4
 1304 0042 D2F80824 		ldr	r2, [r2, #1032]
 1305              		.loc 1 344 25 view .LVU390
 1306 0046 1341     		asrs	r3, r3, r2
 1307              	.LVL97:
 1308              		.loc 1 344 24 view .LVU391
 1309 0048 13F0010F 		tst	r3, #1
 1310 004c 23D0     		beq	.L90
 345:src/softwareserial.c ****                         HAL_GPIO_WritePin(SOFTWARE_SERIAL_TX_PORT, SOFTWARE_SERIAL_TX_PIN, GPIO_PIN
 1311              		.loc 1 345 25 is_stmt 1 view .LVU392
 1312 004e 0122     		movs	r2, #1
 1313 0050 4FF40051 		mov	r1, #8192
 1314 0054 2E48     		ldr	r0, .L99+8
 1315 0056 FFF7FEFF 		bl	HAL_GPIO_WritePin
 1316              	.LVL98:
 1317              	.L91:
 346:src/softwareserial.c ****                     } else {
 347:src/softwareserial.c ****                         HAL_GPIO_WritePin(SOFTWARE_SERIAL_TX_PORT, SOFTWARE_SERIAL_TX_PIN, GPIO_PIN
 348:src/softwareserial.c ****                     }
 349:src/softwareserial.c ****                 } else {
 350:src/softwareserial.c ****                     if (softwareserialTXbuffer.bit < 9){
 351:src/softwareserial.c ****                         HAL_GPIO_WritePin(SOFTWARE_SERIAL_TX_PORT, SOFTWARE_SERIAL_TX_PIN, GPIO_PIN
 352:src/softwareserial.c ****                     } else {
 353:src/softwareserial.c ****                         HAL_GPIO_WritePin(SOFTWARE_SERIAL_TX_PORT, SOFTWARE_SERIAL_TX_PIN, GPIO_PIN
 354:src/softwareserial.c ****                         softwareserialTXbuffer.tail = ((softwareserialTXbuffer.tail + 1 ) % SOFTWAR
 355:src/softwareserial.c ****                         softwareserialTXbuffer.bit = -2; // will become -1 with ++ below
 356:src/softwareserial.c ****                     }
 357:src/softwareserial.c ****                 }
 358:src/softwareserial.c ****                 softwareserialTXbuffer.bit++;
 1318              		.loc 1 358 17 view .LVU393
 1319              		.loc 1 358 39 is_stmt 0 view .LVU394
 1320 005a 2C4A     		ldr	r2, .L99+4
 1321 005c D2F80834 		ldr	r3, [r2, #1032]
 1322              		.loc 1 358 43 view .LVU395
 1323 0060 0133     		adds	r3, r3, #1
 1324 0062 C2F80834 		str	r3, [r2, #1032]
 359:src/softwareserial.c ****                 break;
 1325              		.loc 1 359 17 is_stmt 1 view .LVU396
 1326              	.LVL99:
 1327              	.L88:
 360:src/softwareserial.c ****         }
 361:src/softwareserial.c ****     } else {
 362:src/softwareserial.c ****         // send high
 363:src/softwareserial.c ****         HAL_GPIO_WritePin(SOFTWARE_SERIAL_TX_PORT, SOFTWARE_SERIAL_TX_PIN, GPIO_PIN_SET);
 364:src/softwareserial.c ****     }
 365:src/softwareserial.c **** 
 366:src/softwareserial.c ****     unsigned int time = softwareserialtimer.Instance->CNT;
 1328              		.loc 1 366 5 view .LVU397
 1329              		.loc 1 366 44 is_stmt 0 view .LVU398
ARM GAS  /tmp/ccs4xsFa.s 			page 33


 1330 0066 2B4B     		ldr	r3, .L99+12
 1331 0068 1B68     		ldr	r3, [r3]
 1332              		.loc 1 366 18 view .LVU399
 1333 006a 5B6A     		ldr	r3, [r3, #36]
 1334              	.LVL100:
 367:src/softwareserial.c ****     int tdiff = time - softwareserialRXbuffer.lasttime;
 1335              		.loc 1 367 5 is_stmt 1 view .LVU400
 1336              		.loc 1 367 46 is_stmt 0 view .LVU401
 1337 006c 2A4A     		ldr	r2, .L99+16
 1338 006e D2F80C24 		ldr	r2, [r2, #1036]
 1339              	.LVL101:
 368:src/softwareserial.c ****     if (tdiff < 0) tdiff += 0x10000;
 1340              		.loc 1 368 5 is_stmt 1 view .LVU402
 1341              		.loc 1 368 8 is_stmt 0 view .LVU403
 1342 0072 9B1A     		subs	r3, r3, r2
 1343              	.LVL102:
 1344              		.loc 1 368 8 view .LVU404
 1345 0074 41D4     		bmi	.L97
 1346              	.LVL103:
 1347              	.L93:
 369:src/softwareserial.c ****     int bits = (tdiff+2)/8;
 1348              		.loc 1 369 5 is_stmt 1 view .LVU405
 370:src/softwareserial.c **** 
 371:src/softwareserial.c ****     // if more than 10 bits time on rx, then eat last bit
 372:src/softwareserial.c ****     if (bits > 9) {
 1349              		.loc 1 372 5 view .LVU406
 1350              		.loc 1 372 8 is_stmt 0 view .LVU407
 1351 0076 4D2B     		cmp	r3, #77
 1352 0078 42DC     		bgt	.L98
 1353              	.LVL104:
 1354              	.L84:
 373:src/softwareserial.c ****         softwareserialRXInterrupt();
 374:src/softwareserial.c ****     }
 375:src/softwareserial.c **** 
 376:src/softwareserial.c **** 
 377:src/softwareserial.c **** }
 1355              		.loc 1 377 1 view .LVU408
 1356 007a 08BD     		pop	{r3, pc}
 1357              	.LVL105:
 1358              	.L96:
 339:src/softwareserial.c ****                 softwareserialTXbuffer.bit++;
 1359              		.loc 1 339 17 is_stmt 1 view .LVU409
 1360 007c 0022     		movs	r2, #0
 1361 007e 4FF40051 		mov	r1, #8192
 1362 0082 2348     		ldr	r0, .L99+8
 1363 0084 FFF7FEFF 		bl	HAL_GPIO_WritePin
 1364              	.LVL106:
 340:src/softwareserial.c ****                 break;
 1365              		.loc 1 340 17 view .LVU410
 340:src/softwareserial.c ****                 break;
 1366              		.loc 1 340 39 is_stmt 0 view .LVU411
 1367 0088 204A     		ldr	r2, .L99+4
 1368 008a D2F80834 		ldr	r3, [r2, #1032]
 340:src/softwareserial.c ****                 break;
 1369              		.loc 1 340 43 view .LVU412
 1370 008e 0133     		adds	r3, r3, #1
 1371 0090 C2F80834 		str	r3, [r2, #1032]
ARM GAS  /tmp/ccs4xsFa.s 			page 34


 341:src/softwareserial.c ****             default:
 1372              		.loc 1 341 17 is_stmt 1 view .LVU413
 1373 0094 E7E7     		b	.L88
 1374              	.L90:
 347:src/softwareserial.c ****                     }
 1375              		.loc 1 347 25 view .LVU414
 1376 0096 0022     		movs	r2, #0
 1377 0098 4FF40051 		mov	r1, #8192
 1378 009c 1C48     		ldr	r0, .L99+8
 1379 009e FFF7FEFF 		bl	HAL_GPIO_WritePin
 1380              	.LVL107:
 1381 00a2 DAE7     		b	.L91
 1382              	.LVL108:
 1383              	.L89:
 350:src/softwareserial.c ****                         HAL_GPIO_WritePin(SOFTWARE_SERIAL_TX_PORT, SOFTWARE_SERIAL_TX_PIN, GPIO_PIN
 1384              		.loc 1 350 21 view .LVU415
 350:src/softwareserial.c ****                         HAL_GPIO_WritePin(SOFTWARE_SERIAL_TX_PORT, SOFTWARE_SERIAL_TX_PIN, GPIO_PIN
 1385              		.loc 1 350 47 is_stmt 0 view .LVU416
 1386 00a4 194B     		ldr	r3, .L99+4
 1387              	.LVL109:
 350:src/softwareserial.c ****                         HAL_GPIO_WritePin(SOFTWARE_SERIAL_TX_PORT, SOFTWARE_SERIAL_TX_PIN, GPIO_PIN
 1388              		.loc 1 350 47 view .LVU417
 1389 00a6 D3F80834 		ldr	r3, [r3, #1032]
 350:src/softwareserial.c ****                         HAL_GPIO_WritePin(SOFTWARE_SERIAL_TX_PORT, SOFTWARE_SERIAL_TX_PIN, GPIO_PIN
 1390              		.loc 1 350 24 view .LVU418
 1391 00aa 082B     		cmp	r3, #8
 1392 00ac 06DC     		bgt	.L92
 351:src/softwareserial.c ****                     } else {
 1393              		.loc 1 351 25 is_stmt 1 view .LVU419
 1394 00ae 0122     		movs	r2, #1
 1395 00b0 4FF40051 		mov	r1, #8192
 1396 00b4 1648     		ldr	r0, .L99+8
 1397 00b6 FFF7FEFF 		bl	HAL_GPIO_WritePin
 1398              	.LVL110:
 1399 00ba CEE7     		b	.L91
 1400              	.L92:
 353:src/softwareserial.c ****                         softwareserialTXbuffer.tail = ((softwareserialTXbuffer.tail + 1 ) % SOFTWAR
 1401              		.loc 1 353 25 view .LVU420
 1402 00bc 0122     		movs	r2, #1
 1403 00be 4FF40051 		mov	r1, #8192
 1404 00c2 1348     		ldr	r0, .L99+8
 1405 00c4 FFF7FEFF 		bl	HAL_GPIO_WritePin
 1406              	.LVL111:
 354:src/softwareserial.c ****                         softwareserialTXbuffer.bit = -2; // will become -1 with ++ below
 1407              		.loc 1 354 25 view .LVU421
 354:src/softwareserial.c ****                         softwareserialTXbuffer.bit = -2; // will become -1 with ++ below
 1408              		.loc 1 354 79 is_stmt 0 view .LVU422
 1409 00c8 104A     		ldr	r2, .L99+4
 1410 00ca D2F80434 		ldr	r3, [r2, #1028]
 354:src/softwareserial.c ****                         softwareserialTXbuffer.bit = -2; // will become -1 with ++ below
 1411              		.loc 1 354 85 view .LVU423
 1412 00ce 0133     		adds	r3, r3, #1
 354:src/softwareserial.c ****                         softwareserialTXbuffer.bit = -2; // will become -1 with ++ below
 1413              		.loc 1 354 91 view .LVU424
 1414 00d0 5942     		rsbs	r1, r3, #0
 1415 00d2 C3F30903 		ubfx	r3, r3, #0, #10
 1416 00d6 C1F30901 		ubfx	r1, r1, #0, #10
ARM GAS  /tmp/ccs4xsFa.s 			page 35


 1417 00da 58BF     		it	pl
 1418 00dc 4B42     		rsbpl	r3, r1, #0
 354:src/softwareserial.c ****                         softwareserialTXbuffer.bit = -2; // will become -1 with ++ below
 1419              		.loc 1 354 53 view .LVU425
 1420 00de C2F80434 		str	r3, [r2, #1028]
 355:src/softwareserial.c ****                     }
 1421              		.loc 1 355 25 is_stmt 1 view .LVU426
 355:src/softwareserial.c ****                     }
 1422              		.loc 1 355 52 is_stmt 0 view .LVU427
 1423 00e2 6FF00103 		mvn	r3, #1
 1424 00e6 C2F80834 		str	r3, [r2, #1032]
 1425 00ea B6E7     		b	.L91
 1426              	.LVL112:
 1427              	.L86:
 363:src/softwareserial.c ****     }
 1428              		.loc 1 363 9 is_stmt 1 view .LVU428
 1429 00ec 0122     		movs	r2, #1
 1430 00ee 4FF40051 		mov	r1, #8192
 1431 00f2 0748     		ldr	r0, .L99+8
 1432 00f4 FFF7FEFF 		bl	HAL_GPIO_WritePin
 1433              	.LVL113:
 1434 00f8 B5E7     		b	.L88
 1435              	.LVL114:
 1436              	.L97:
 368:src/softwareserial.c ****     int bits = (tdiff+2)/8;
 1437              		.loc 1 368 20 discriminator 1 view .LVU429
 368:src/softwareserial.c ****     int bits = (tdiff+2)/8;
 1438              		.loc 1 368 26 is_stmt 0 discriminator 1 view .LVU430
 1439 00fa 03F58033 		add	r3, r3, #65536
 1440              	.LVL115:
 368:src/softwareserial.c ****     int bits = (tdiff+2)/8;
 1441              		.loc 1 368 26 discriminator 1 view .LVU431
 1442 00fe BAE7     		b	.L93
 1443              	.LVL116:
 1444              	.L98:
 373:src/softwareserial.c ****     }
 1445              		.loc 1 373 9 is_stmt 1 view .LVU432
 1446 0100 FFF7FEFF 		bl	softwareserialRXInterrupt
 1447              	.LVL117:
 1448              		.loc 1 377 1 is_stmt 0 view .LVU433
 1449 0104 B9E7     		b	.L84
 1450              	.L100:
 1451 0106 00BF     		.align	2
 1452              	.L99:
 1453 0108 00000000 		.word	softwareserialtimerTX
 1454 010c 00000000 		.word	softwareserialTXbuffer
 1455 0110 00080140 		.word	1073809408
 1456 0114 00000000 		.word	softwareserialtimer
 1457 0118 00000000 		.word	softwareserialRXbuffer
 1458              		.cfi_endproc
 1459              	.LFE77:
 1461              		.comm	softwareserialTXbuffer,1048,4
 1462              		.comm	softwareserialRXbuffer,1048,4
 1463              		.global	ssbits
 1464              		.section	.bss.ssbits,"aw",%nobits
 1465              		.align	2
 1468              	ssbits:
ARM GAS  /tmp/ccs4xsFa.s 			page 36


 1469 0000 00000000 		.space	4
 1470              		.global	timerval
 1471              		.section	.bss.timerval,"aw",%nobits
 1472              		.align	2
 1475              	timerval:
 1476 0000 00000000 		.space	4
 1477              		.comm	softwareserialtimerTX,64,4
 1478              		.comm	softwareserialtimer,64,4
 1479              		.text
 1480              	.Letext0:
 1481              		.file 3 "Drivers/CMSIS/Device/ST/STM32F1xx/Include/stm32f103xe.h"
 1482              		.file 4 "/usr/lib/gcc/arm-none-eabi/13.2.1/include/stdint.h"
 1483              		.file 5 "Drivers/CMSIS/Device/ST/STM32F1xx/Include/stm32f1xx.h"
 1484              		.file 6 "/usr/lib/gcc/arm-none-eabi/13.2.1/include/stddef.h"
 1485              		.file 7 "Drivers/STM32F1xx_HAL_Driver/Inc/stm32f1xx_hal_def.h"
 1486              		.file 8 "Drivers/STM32F1xx_HAL_Driver/Inc/stm32f1xx_hal_gpio.h"
 1487              		.file 9 "Drivers/STM32F1xx_HAL_Driver/Inc/stm32f1xx_hal_dma.h"
 1488              		.file 10 "Drivers/STM32F1xx_HAL_Driver/Inc/stm32f1xx_hal_tim.h"
 1489              		.file 11 "Drivers/STM32F1xx_HAL_Driver/Inc/stm32f1xx_hal.h"
 1490              		.file 12 "Drivers/STM32F1xx_HAL_Driver/Inc/stm32f1xx_hal_cortex.h"
 1491              		.file 13 "/usr/include/newlib/string.h"
 1492              		.file 14 "<built-in>"
ARM GAS  /tmp/ccs4xsFa.s 			page 37

