ARM GAS  /tmp/cc19albo.s 			page 1


   1              		.cpu cortex-m3
   2              		.arch armv7-m
   3              		.fpu softvfp
   4              		.eabi_attribute 20, 1
   5              		.eabi_attribute 21, 1
   6              		.eabi_attribute 23, 3
   7              		.eabi_attribute 24, 1
   8              		.eabi_attribute 25, 1
   9              		.eabi_attribute 26, 1
  10              		.eabi_attribute 30, 1
  11              		.eabi_attribute 34, 1
  12              		.eabi_attribute 18, 4
  13              		.file	"software_spi.c"
  14              		.text
  15              	.Ltext0:
  16              		.cfi_sections	.debug_frame
  17              		.file 1 "src/software_spi.c"
  18              		.section	.text.SoftSPI_Delay,"ax",%progbits
  19              		.align	1
  20              		.p2align 2,,3
  21              		.syntax unified
  22              		.thumb
  23              		.thumb_func
  25              	SoftSPI_Delay:
  26              	.LFB66:
  27              		.file 2 "inc/software_spi.h"
   1:inc/software_spi.h **** #pragma once
   2:inc/software_spi.h **** 
   3:inc/software_spi.h **** #include "stm32f1xx_hal.h"
   4:inc/software_spi.h **** #include <stdint.h>
   5:inc/software_spi.h **** 
   6:inc/software_spi.h **** // Software SPI Pin Configuration — confirmed working 2026-06-24
   7:inc/software_spi.h **** // SO(MISO)=PB10  SI(MOSI)=PB11  CS=PA2  SCK=PA3
   8:inc/software_spi.h **** #define SOFT_SPI_MOSI_PORT    GPIOB
   9:inc/software_spi.h **** #define SOFT_SPI_MOSI_PIN     GPIO_PIN_11  // PB11 → MCP2515 SI
  10:inc/software_spi.h **** #define SOFT_SPI_MISO_PORT    GPIOB
  11:inc/software_spi.h **** #define SOFT_SPI_MISO_PIN     GPIO_PIN_10  // PB10 ← MCP2515 SO
  12:inc/software_spi.h **** #define SOFT_SPI_SCK_PORT     GPIOA
  13:inc/software_spi.h **** #define SOFT_SPI_SCK_PIN      GPIO_PIN_3   // PA3  → MCP2515 SCK
  14:inc/software_spi.h **** #define SOFT_SPI_CS_PORT      GPIOA
  15:inc/software_spi.h **** #define SOFT_SPI_CS_PIN       GPIO_PIN_2   // PA2  → MCP2515 /CS
  16:inc/software_spi.h **** #define SOFT_SPI_INT_PORT     GPIOB
  17:inc/software_spi.h **** #define SOFT_SPI_INT_PIN      GPIO_PIN_12  // PB12 (Free pin)
  18:inc/software_spi.h **** 
  19:inc/software_spi.h **** // SPI Mode Configuration
  20:inc/software_spi.h **** #define SPI_MODE0   0  // CPOL=0, CPHA=0
  21:inc/software_spi.h **** #define SPI_MODE1   1  // CPOL=0, CPHA=1
  22:inc/software_spi.h **** #define SPI_MODE2   2  // CPOL=1, CPHA=0
  23:inc/software_spi.h **** #define SPI_MODE3   3  // CPOL=1, CPHA=1
  24:inc/software_spi.h **** 
  25:inc/software_spi.h **** // Function Prototypes
  26:inc/software_spi.h **** void SoftSPI_Init(void);
  27:inc/software_spi.h **** void SoftSPI_Deinit(void);
  28:inc/software_spi.h **** uint8_t SoftSPI_Transfer(uint8_t data);
  29:inc/software_spi.h **** void SoftSPI_TransferBuffer(uint8_t *txData, uint8_t *rxData, uint16_t length);
  30:inc/software_spi.h **** void SoftSPI_CS_Low(void);
  31:inc/software_spi.h **** void SoftSPI_CS_High(void);
ARM GAS  /tmp/cc19albo.s 			page 2


  32:inc/software_spi.h **** void SoftSPI_SetMode(uint8_t mode);
  33:inc/software_spi.h **** 
  34:inc/software_spi.h **** // Inline delay for bit timing - increased for reliability
  35:inc/software_spi.h **** // MCP2515 max SPI clock is 10MHz, we're running much slower for safety
  36:inc/software_spi.h **** static inline void SoftSPI_Delay(void) {
  28              		.loc 2 36 40 view -0
  29              		.cfi_startproc
  30              		@ args = 0, pretend = 0, frame = 8
  31              		@ frame_needed = 0, uses_anonymous_args = 0
  32              		@ link register save eliminated.
  33 0000 82B0     		sub	sp, sp, #8
  34              	.LCFI0:
  35              		.cfi_def_cfa_offset 8
  37:inc/software_spi.h ****     for (volatile int i = 0; i < 64; i++) {  // Increased from 32 to 64 for more reliable reads
  36              		.loc 2 37 5 view .LVU1
  37              	.LBB86:
  38              		.loc 2 37 10 view .LVU2
  39              		.loc 2 37 23 is_stmt 0 view .LVU3
  40 0002 0023     		movs	r3, #0
  41 0004 0193     		str	r3, [sp, #4]
  42              		.loc 2 37 5 view .LVU4
  43 0006 03E0     		b	.L2
  44              	.L3:
  38:inc/software_spi.h ****         __NOP();
  45              		.loc 2 38 9 is_stmt 1 view .LVU5
  46              	.LBB87:
  47              	.LBI87:
  48              		.file 3 "Drivers/CMSIS/Include/cmsis_gcc.h"
   1:Drivers/CMSIS/Include/cmsis_gcc.h **** /**************************************************************************//**
   2:Drivers/CMSIS/Include/cmsis_gcc.h ****  * @file     cmsis_gcc.h
   3:Drivers/CMSIS/Include/cmsis_gcc.h ****  * @brief    CMSIS Cortex-M Core Function/Instruction Header File
   4:Drivers/CMSIS/Include/cmsis_gcc.h ****  * @version  V4.30
   5:Drivers/CMSIS/Include/cmsis_gcc.h ****  * @date     20. October 2015
   6:Drivers/CMSIS/Include/cmsis_gcc.h ****  ******************************************************************************/
   7:Drivers/CMSIS/Include/cmsis_gcc.h **** /* Copyright (c) 2009 - 2015 ARM LIMITED
   8:Drivers/CMSIS/Include/cmsis_gcc.h **** 
   9:Drivers/CMSIS/Include/cmsis_gcc.h ****    All rights reserved.
  10:Drivers/CMSIS/Include/cmsis_gcc.h ****    Redistribution and use in source and binary forms, with or without
  11:Drivers/CMSIS/Include/cmsis_gcc.h ****    modification, are permitted provided that the following conditions are met:
  12:Drivers/CMSIS/Include/cmsis_gcc.h ****    - Redistributions of source code must retain the above copyright
  13:Drivers/CMSIS/Include/cmsis_gcc.h ****      notice, this list of conditions and the following disclaimer.
  14:Drivers/CMSIS/Include/cmsis_gcc.h ****    - Redistributions in binary form must reproduce the above copyright
  15:Drivers/CMSIS/Include/cmsis_gcc.h ****      notice, this list of conditions and the following disclaimer in the
  16:Drivers/CMSIS/Include/cmsis_gcc.h ****      documentation and/or other materials provided with the distribution.
  17:Drivers/CMSIS/Include/cmsis_gcc.h ****    - Neither the name of ARM nor the names of its contributors may be used
  18:Drivers/CMSIS/Include/cmsis_gcc.h ****      to endorse or promote products derived from this software without
  19:Drivers/CMSIS/Include/cmsis_gcc.h ****      specific prior written permission.
  20:Drivers/CMSIS/Include/cmsis_gcc.h ****    *
  21:Drivers/CMSIS/Include/cmsis_gcc.h ****    THIS SOFTWARE IS PROVIDED BY THE COPYRIGHT HOLDERS AND CONTRIBUTORS "AS IS"
  22:Drivers/CMSIS/Include/cmsis_gcc.h ****    AND ANY EXPRESS OR IMPLIED WARRANTIES, INCLUDING, BUT NOT LIMITED TO, THE
  23:Drivers/CMSIS/Include/cmsis_gcc.h ****    IMPLIED WARRANTIES OF MERCHANTABILITY AND FITNESS FOR A PARTICULAR PURPOSE
  24:Drivers/CMSIS/Include/cmsis_gcc.h ****    ARE DISCLAIMED. IN NO EVENT SHALL COPYRIGHT HOLDERS AND CONTRIBUTORS BE
  25:Drivers/CMSIS/Include/cmsis_gcc.h ****    LIABLE FOR ANY DIRECT, INDIRECT, INCIDENTAL, SPECIAL, EXEMPLARY, OR
  26:Drivers/CMSIS/Include/cmsis_gcc.h ****    CONSEQUENTIAL DAMAGES (INCLUDING, BUT NOT LIMITED TO, PROCUREMENT OF
  27:Drivers/CMSIS/Include/cmsis_gcc.h ****    SUBSTITUTE GOODS OR SERVICES; LOSS OF USE, DATA, OR PROFITS; OR BUSINESS
  28:Drivers/CMSIS/Include/cmsis_gcc.h ****    INTERRUPTION) HOWEVER CAUSED AND ON ANY THEORY OF LIABILITY, WHETHER IN
  29:Drivers/CMSIS/Include/cmsis_gcc.h ****    CONTRACT, STRICT LIABILITY, OR TORT (INCLUDING NEGLIGENCE OR OTHERWISE)
ARM GAS  /tmp/cc19albo.s 			page 3


  30:Drivers/CMSIS/Include/cmsis_gcc.h ****    ARISING IN ANY WAY OUT OF THE USE OF THIS SOFTWARE, EVEN IF ADVISED OF THE
  31:Drivers/CMSIS/Include/cmsis_gcc.h ****    POSSIBILITY OF SUCH DAMAGE.
  32:Drivers/CMSIS/Include/cmsis_gcc.h ****    ---------------------------------------------------------------------------*/
  33:Drivers/CMSIS/Include/cmsis_gcc.h **** 
  34:Drivers/CMSIS/Include/cmsis_gcc.h **** 
  35:Drivers/CMSIS/Include/cmsis_gcc.h **** #ifndef __CMSIS_GCC_H
  36:Drivers/CMSIS/Include/cmsis_gcc.h **** #define __CMSIS_GCC_H
  37:Drivers/CMSIS/Include/cmsis_gcc.h **** 
  38:Drivers/CMSIS/Include/cmsis_gcc.h **** /* ignore some GCC warnings */
  39:Drivers/CMSIS/Include/cmsis_gcc.h **** #if defined ( __GNUC__ )
  40:Drivers/CMSIS/Include/cmsis_gcc.h **** #pragma GCC diagnostic push
  41:Drivers/CMSIS/Include/cmsis_gcc.h **** #pragma GCC diagnostic ignored "-Wsign-conversion"
  42:Drivers/CMSIS/Include/cmsis_gcc.h **** #pragma GCC diagnostic ignored "-Wconversion"
  43:Drivers/CMSIS/Include/cmsis_gcc.h **** #pragma GCC diagnostic ignored "-Wunused-parameter"
  44:Drivers/CMSIS/Include/cmsis_gcc.h **** #endif
  45:Drivers/CMSIS/Include/cmsis_gcc.h **** 
  46:Drivers/CMSIS/Include/cmsis_gcc.h **** 
  47:Drivers/CMSIS/Include/cmsis_gcc.h **** /* ###########################  Core Function Access  ########################### */
  48:Drivers/CMSIS/Include/cmsis_gcc.h **** /** \ingroup  CMSIS_Core_FunctionInterface
  49:Drivers/CMSIS/Include/cmsis_gcc.h ****     \defgroup CMSIS_Core_RegAccFunctions CMSIS Core Register Access Functions
  50:Drivers/CMSIS/Include/cmsis_gcc.h ****   @{
  51:Drivers/CMSIS/Include/cmsis_gcc.h ****  */
  52:Drivers/CMSIS/Include/cmsis_gcc.h **** 
  53:Drivers/CMSIS/Include/cmsis_gcc.h **** /**
  54:Drivers/CMSIS/Include/cmsis_gcc.h ****   \brief   Enable IRQ Interrupts
  55:Drivers/CMSIS/Include/cmsis_gcc.h ****   \details Enables IRQ interrupts by clearing the I-bit in the CPSR.
  56:Drivers/CMSIS/Include/cmsis_gcc.h ****            Can only be executed in Privileged modes.
  57:Drivers/CMSIS/Include/cmsis_gcc.h ****  */
  58:Drivers/CMSIS/Include/cmsis_gcc.h **** __attribute__( ( always_inline ) ) __STATIC_INLINE void __enable_irq(void)
  59:Drivers/CMSIS/Include/cmsis_gcc.h **** {
  60:Drivers/CMSIS/Include/cmsis_gcc.h ****   __ASM volatile ("cpsie i" : : : "memory");
  61:Drivers/CMSIS/Include/cmsis_gcc.h **** }
  62:Drivers/CMSIS/Include/cmsis_gcc.h **** 
  63:Drivers/CMSIS/Include/cmsis_gcc.h **** 
  64:Drivers/CMSIS/Include/cmsis_gcc.h **** /**
  65:Drivers/CMSIS/Include/cmsis_gcc.h ****   \brief   Disable IRQ Interrupts
  66:Drivers/CMSIS/Include/cmsis_gcc.h ****   \details Disables IRQ interrupts by setting the I-bit in the CPSR.
  67:Drivers/CMSIS/Include/cmsis_gcc.h ****   Can only be executed in Privileged modes.
  68:Drivers/CMSIS/Include/cmsis_gcc.h ****  */
  69:Drivers/CMSIS/Include/cmsis_gcc.h **** __attribute__( ( always_inline ) ) __STATIC_INLINE void __disable_irq(void)
  70:Drivers/CMSIS/Include/cmsis_gcc.h **** {
  71:Drivers/CMSIS/Include/cmsis_gcc.h ****   __ASM volatile ("cpsid i" : : : "memory");
  72:Drivers/CMSIS/Include/cmsis_gcc.h **** }
  73:Drivers/CMSIS/Include/cmsis_gcc.h **** 
  74:Drivers/CMSIS/Include/cmsis_gcc.h **** 
  75:Drivers/CMSIS/Include/cmsis_gcc.h **** /**
  76:Drivers/CMSIS/Include/cmsis_gcc.h ****   \brief   Get Control Register
  77:Drivers/CMSIS/Include/cmsis_gcc.h ****   \details Returns the content of the Control Register.
  78:Drivers/CMSIS/Include/cmsis_gcc.h ****   \return               Control Register value
  79:Drivers/CMSIS/Include/cmsis_gcc.h ****  */
  80:Drivers/CMSIS/Include/cmsis_gcc.h **** __attribute__( ( always_inline ) ) __STATIC_INLINE uint32_t __get_CONTROL(void)
  81:Drivers/CMSIS/Include/cmsis_gcc.h **** {
  82:Drivers/CMSIS/Include/cmsis_gcc.h ****   uint32_t result;
  83:Drivers/CMSIS/Include/cmsis_gcc.h **** 
  84:Drivers/CMSIS/Include/cmsis_gcc.h ****   __ASM volatile ("MRS %0, control" : "=r" (result) );
  85:Drivers/CMSIS/Include/cmsis_gcc.h ****   return(result);
  86:Drivers/CMSIS/Include/cmsis_gcc.h **** }
ARM GAS  /tmp/cc19albo.s 			page 4


  87:Drivers/CMSIS/Include/cmsis_gcc.h **** 
  88:Drivers/CMSIS/Include/cmsis_gcc.h **** 
  89:Drivers/CMSIS/Include/cmsis_gcc.h **** /**
  90:Drivers/CMSIS/Include/cmsis_gcc.h ****   \brief   Set Control Register
  91:Drivers/CMSIS/Include/cmsis_gcc.h ****   \details Writes the given value to the Control Register.
  92:Drivers/CMSIS/Include/cmsis_gcc.h ****   \param [in]    control  Control Register value to set
  93:Drivers/CMSIS/Include/cmsis_gcc.h ****  */
  94:Drivers/CMSIS/Include/cmsis_gcc.h **** __attribute__( ( always_inline ) ) __STATIC_INLINE void __set_CONTROL(uint32_t control)
  95:Drivers/CMSIS/Include/cmsis_gcc.h **** {
  96:Drivers/CMSIS/Include/cmsis_gcc.h ****   __ASM volatile ("MSR control, %0" : : "r" (control) : "memory");
  97:Drivers/CMSIS/Include/cmsis_gcc.h **** }
  98:Drivers/CMSIS/Include/cmsis_gcc.h **** 
  99:Drivers/CMSIS/Include/cmsis_gcc.h **** 
 100:Drivers/CMSIS/Include/cmsis_gcc.h **** /**
 101:Drivers/CMSIS/Include/cmsis_gcc.h ****   \brief   Get IPSR Register
 102:Drivers/CMSIS/Include/cmsis_gcc.h ****   \details Returns the content of the IPSR Register.
 103:Drivers/CMSIS/Include/cmsis_gcc.h ****   \return               IPSR Register value
 104:Drivers/CMSIS/Include/cmsis_gcc.h ****  */
 105:Drivers/CMSIS/Include/cmsis_gcc.h **** __attribute__( ( always_inline ) ) __STATIC_INLINE uint32_t __get_IPSR(void)
 106:Drivers/CMSIS/Include/cmsis_gcc.h **** {
 107:Drivers/CMSIS/Include/cmsis_gcc.h ****   uint32_t result;
 108:Drivers/CMSIS/Include/cmsis_gcc.h **** 
 109:Drivers/CMSIS/Include/cmsis_gcc.h ****   __ASM volatile ("MRS %0, ipsr" : "=r" (result) );
 110:Drivers/CMSIS/Include/cmsis_gcc.h ****   return(result);
 111:Drivers/CMSIS/Include/cmsis_gcc.h **** }
 112:Drivers/CMSIS/Include/cmsis_gcc.h **** 
 113:Drivers/CMSIS/Include/cmsis_gcc.h **** 
 114:Drivers/CMSIS/Include/cmsis_gcc.h **** /**
 115:Drivers/CMSIS/Include/cmsis_gcc.h ****   \brief   Get APSR Register
 116:Drivers/CMSIS/Include/cmsis_gcc.h ****   \details Returns the content of the APSR Register.
 117:Drivers/CMSIS/Include/cmsis_gcc.h ****   \return               APSR Register value
 118:Drivers/CMSIS/Include/cmsis_gcc.h ****  */
 119:Drivers/CMSIS/Include/cmsis_gcc.h **** __attribute__( ( always_inline ) ) __STATIC_INLINE uint32_t __get_APSR(void)
 120:Drivers/CMSIS/Include/cmsis_gcc.h **** {
 121:Drivers/CMSIS/Include/cmsis_gcc.h ****   uint32_t result;
 122:Drivers/CMSIS/Include/cmsis_gcc.h **** 
 123:Drivers/CMSIS/Include/cmsis_gcc.h ****   __ASM volatile ("MRS %0, apsr" : "=r" (result) );
 124:Drivers/CMSIS/Include/cmsis_gcc.h ****   return(result);
 125:Drivers/CMSIS/Include/cmsis_gcc.h **** }
 126:Drivers/CMSIS/Include/cmsis_gcc.h **** 
 127:Drivers/CMSIS/Include/cmsis_gcc.h **** 
 128:Drivers/CMSIS/Include/cmsis_gcc.h **** /**
 129:Drivers/CMSIS/Include/cmsis_gcc.h ****   \brief   Get xPSR Register
 130:Drivers/CMSIS/Include/cmsis_gcc.h ****   \details Returns the content of the xPSR Register.
 131:Drivers/CMSIS/Include/cmsis_gcc.h **** 
 132:Drivers/CMSIS/Include/cmsis_gcc.h ****     \return               xPSR Register value
 133:Drivers/CMSIS/Include/cmsis_gcc.h ****  */
 134:Drivers/CMSIS/Include/cmsis_gcc.h **** __attribute__( ( always_inline ) ) __STATIC_INLINE uint32_t __get_xPSR(void)
 135:Drivers/CMSIS/Include/cmsis_gcc.h **** {
 136:Drivers/CMSIS/Include/cmsis_gcc.h ****   uint32_t result;
 137:Drivers/CMSIS/Include/cmsis_gcc.h **** 
 138:Drivers/CMSIS/Include/cmsis_gcc.h ****   __ASM volatile ("MRS %0, xpsr" : "=r" (result) );
 139:Drivers/CMSIS/Include/cmsis_gcc.h ****   return(result);
 140:Drivers/CMSIS/Include/cmsis_gcc.h **** }
 141:Drivers/CMSIS/Include/cmsis_gcc.h **** 
 142:Drivers/CMSIS/Include/cmsis_gcc.h **** 
 143:Drivers/CMSIS/Include/cmsis_gcc.h **** /**
ARM GAS  /tmp/cc19albo.s 			page 5


 144:Drivers/CMSIS/Include/cmsis_gcc.h ****   \brief   Get Process Stack Pointer
 145:Drivers/CMSIS/Include/cmsis_gcc.h ****   \details Returns the current value of the Process Stack Pointer (PSP).
 146:Drivers/CMSIS/Include/cmsis_gcc.h ****   \return               PSP Register value
 147:Drivers/CMSIS/Include/cmsis_gcc.h ****  */
 148:Drivers/CMSIS/Include/cmsis_gcc.h **** __attribute__( ( always_inline ) ) __STATIC_INLINE uint32_t __get_PSP(void)
 149:Drivers/CMSIS/Include/cmsis_gcc.h **** {
 150:Drivers/CMSIS/Include/cmsis_gcc.h ****   register uint32_t result;
 151:Drivers/CMSIS/Include/cmsis_gcc.h **** 
 152:Drivers/CMSIS/Include/cmsis_gcc.h ****   __ASM volatile ("MRS %0, psp\n"  : "=r" (result) );
 153:Drivers/CMSIS/Include/cmsis_gcc.h ****   return(result);
 154:Drivers/CMSIS/Include/cmsis_gcc.h **** }
 155:Drivers/CMSIS/Include/cmsis_gcc.h **** 
 156:Drivers/CMSIS/Include/cmsis_gcc.h **** 
 157:Drivers/CMSIS/Include/cmsis_gcc.h **** /**
 158:Drivers/CMSIS/Include/cmsis_gcc.h ****   \brief   Set Process Stack Pointer
 159:Drivers/CMSIS/Include/cmsis_gcc.h ****   \details Assigns the given value to the Process Stack Pointer (PSP).
 160:Drivers/CMSIS/Include/cmsis_gcc.h ****   \param [in]    topOfProcStack  Process Stack Pointer value to set
 161:Drivers/CMSIS/Include/cmsis_gcc.h ****  */
 162:Drivers/CMSIS/Include/cmsis_gcc.h **** __attribute__( ( always_inline ) ) __STATIC_INLINE void __set_PSP(uint32_t topOfProcStack)
 163:Drivers/CMSIS/Include/cmsis_gcc.h **** {
 164:Drivers/CMSIS/Include/cmsis_gcc.h ****   __ASM volatile ("MSR psp, %0\n" : : "r" (topOfProcStack) : "sp");
 165:Drivers/CMSIS/Include/cmsis_gcc.h **** }
 166:Drivers/CMSIS/Include/cmsis_gcc.h **** 
 167:Drivers/CMSIS/Include/cmsis_gcc.h **** 
 168:Drivers/CMSIS/Include/cmsis_gcc.h **** /**
 169:Drivers/CMSIS/Include/cmsis_gcc.h ****   \brief   Get Main Stack Pointer
 170:Drivers/CMSIS/Include/cmsis_gcc.h ****   \details Returns the current value of the Main Stack Pointer (MSP).
 171:Drivers/CMSIS/Include/cmsis_gcc.h ****   \return               MSP Register value
 172:Drivers/CMSIS/Include/cmsis_gcc.h ****  */
 173:Drivers/CMSIS/Include/cmsis_gcc.h **** __attribute__( ( always_inline ) ) __STATIC_INLINE uint32_t __get_MSP(void)
 174:Drivers/CMSIS/Include/cmsis_gcc.h **** {
 175:Drivers/CMSIS/Include/cmsis_gcc.h ****   register uint32_t result;
 176:Drivers/CMSIS/Include/cmsis_gcc.h **** 
 177:Drivers/CMSIS/Include/cmsis_gcc.h ****   __ASM volatile ("MRS %0, msp\n" : "=r" (result) );
 178:Drivers/CMSIS/Include/cmsis_gcc.h ****   return(result);
 179:Drivers/CMSIS/Include/cmsis_gcc.h **** }
 180:Drivers/CMSIS/Include/cmsis_gcc.h **** 
 181:Drivers/CMSIS/Include/cmsis_gcc.h **** 
 182:Drivers/CMSIS/Include/cmsis_gcc.h **** /**
 183:Drivers/CMSIS/Include/cmsis_gcc.h ****   \brief   Set Main Stack Pointer
 184:Drivers/CMSIS/Include/cmsis_gcc.h ****   \details Assigns the given value to the Main Stack Pointer (MSP).
 185:Drivers/CMSIS/Include/cmsis_gcc.h **** 
 186:Drivers/CMSIS/Include/cmsis_gcc.h ****     \param [in]    topOfMainStack  Main Stack Pointer value to set
 187:Drivers/CMSIS/Include/cmsis_gcc.h ****  */
 188:Drivers/CMSIS/Include/cmsis_gcc.h **** __attribute__( ( always_inline ) ) __STATIC_INLINE void __set_MSP(uint32_t topOfMainStack)
 189:Drivers/CMSIS/Include/cmsis_gcc.h **** {
 190:Drivers/CMSIS/Include/cmsis_gcc.h ****   __ASM volatile ("MSR msp, %0\n" : : "r" (topOfMainStack) : "sp");
 191:Drivers/CMSIS/Include/cmsis_gcc.h **** }
 192:Drivers/CMSIS/Include/cmsis_gcc.h **** 
 193:Drivers/CMSIS/Include/cmsis_gcc.h **** 
 194:Drivers/CMSIS/Include/cmsis_gcc.h **** /**
 195:Drivers/CMSIS/Include/cmsis_gcc.h ****   \brief   Get Priority Mask
 196:Drivers/CMSIS/Include/cmsis_gcc.h ****   \details Returns the current state of the priority mask bit from the Priority Mask Register.
 197:Drivers/CMSIS/Include/cmsis_gcc.h ****   \return               Priority Mask value
 198:Drivers/CMSIS/Include/cmsis_gcc.h ****  */
 199:Drivers/CMSIS/Include/cmsis_gcc.h **** __attribute__( ( always_inline ) ) __STATIC_INLINE uint32_t __get_PRIMASK(void)
 200:Drivers/CMSIS/Include/cmsis_gcc.h **** {
ARM GAS  /tmp/cc19albo.s 			page 6


 201:Drivers/CMSIS/Include/cmsis_gcc.h ****   uint32_t result;
 202:Drivers/CMSIS/Include/cmsis_gcc.h **** 
 203:Drivers/CMSIS/Include/cmsis_gcc.h ****   __ASM volatile ("MRS %0, primask" : "=r" (result) );
 204:Drivers/CMSIS/Include/cmsis_gcc.h ****   return(result);
 205:Drivers/CMSIS/Include/cmsis_gcc.h **** }
 206:Drivers/CMSIS/Include/cmsis_gcc.h **** 
 207:Drivers/CMSIS/Include/cmsis_gcc.h **** 
 208:Drivers/CMSIS/Include/cmsis_gcc.h **** /**
 209:Drivers/CMSIS/Include/cmsis_gcc.h ****   \brief   Set Priority Mask
 210:Drivers/CMSIS/Include/cmsis_gcc.h ****   \details Assigns the given value to the Priority Mask Register.
 211:Drivers/CMSIS/Include/cmsis_gcc.h ****   \param [in]    priMask  Priority Mask
 212:Drivers/CMSIS/Include/cmsis_gcc.h ****  */
 213:Drivers/CMSIS/Include/cmsis_gcc.h **** __attribute__( ( always_inline ) ) __STATIC_INLINE void __set_PRIMASK(uint32_t priMask)
 214:Drivers/CMSIS/Include/cmsis_gcc.h **** {
 215:Drivers/CMSIS/Include/cmsis_gcc.h ****   __ASM volatile ("MSR primask, %0" : : "r" (priMask) : "memory");
 216:Drivers/CMSIS/Include/cmsis_gcc.h **** }
 217:Drivers/CMSIS/Include/cmsis_gcc.h **** 
 218:Drivers/CMSIS/Include/cmsis_gcc.h **** 
 219:Drivers/CMSIS/Include/cmsis_gcc.h **** #if       (__CORTEX_M >= 0x03U)
 220:Drivers/CMSIS/Include/cmsis_gcc.h **** 
 221:Drivers/CMSIS/Include/cmsis_gcc.h **** /**
 222:Drivers/CMSIS/Include/cmsis_gcc.h ****   \brief   Enable FIQ
 223:Drivers/CMSIS/Include/cmsis_gcc.h ****   \details Enables FIQ interrupts by clearing the F-bit in the CPSR.
 224:Drivers/CMSIS/Include/cmsis_gcc.h ****            Can only be executed in Privileged modes.
 225:Drivers/CMSIS/Include/cmsis_gcc.h ****  */
 226:Drivers/CMSIS/Include/cmsis_gcc.h **** __attribute__( ( always_inline ) ) __STATIC_INLINE void __enable_fault_irq(void)
 227:Drivers/CMSIS/Include/cmsis_gcc.h **** {
 228:Drivers/CMSIS/Include/cmsis_gcc.h ****   __ASM volatile ("cpsie f" : : : "memory");
 229:Drivers/CMSIS/Include/cmsis_gcc.h **** }
 230:Drivers/CMSIS/Include/cmsis_gcc.h **** 
 231:Drivers/CMSIS/Include/cmsis_gcc.h **** 
 232:Drivers/CMSIS/Include/cmsis_gcc.h **** /**
 233:Drivers/CMSIS/Include/cmsis_gcc.h ****   \brief   Disable FIQ
 234:Drivers/CMSIS/Include/cmsis_gcc.h ****   \details Disables FIQ interrupts by setting the F-bit in the CPSR.
 235:Drivers/CMSIS/Include/cmsis_gcc.h ****            Can only be executed in Privileged modes.
 236:Drivers/CMSIS/Include/cmsis_gcc.h ****  */
 237:Drivers/CMSIS/Include/cmsis_gcc.h **** __attribute__( ( always_inline ) ) __STATIC_INLINE void __disable_fault_irq(void)
 238:Drivers/CMSIS/Include/cmsis_gcc.h **** {
 239:Drivers/CMSIS/Include/cmsis_gcc.h ****   __ASM volatile ("cpsid f" : : : "memory");
 240:Drivers/CMSIS/Include/cmsis_gcc.h **** }
 241:Drivers/CMSIS/Include/cmsis_gcc.h **** 
 242:Drivers/CMSIS/Include/cmsis_gcc.h **** 
 243:Drivers/CMSIS/Include/cmsis_gcc.h **** /**
 244:Drivers/CMSIS/Include/cmsis_gcc.h ****   \brief   Get Base Priority
 245:Drivers/CMSIS/Include/cmsis_gcc.h ****   \details Returns the current value of the Base Priority register.
 246:Drivers/CMSIS/Include/cmsis_gcc.h ****   \return               Base Priority register value
 247:Drivers/CMSIS/Include/cmsis_gcc.h ****  */
 248:Drivers/CMSIS/Include/cmsis_gcc.h **** __attribute__( ( always_inline ) ) __STATIC_INLINE uint32_t __get_BASEPRI(void)
 249:Drivers/CMSIS/Include/cmsis_gcc.h **** {
 250:Drivers/CMSIS/Include/cmsis_gcc.h ****   uint32_t result;
 251:Drivers/CMSIS/Include/cmsis_gcc.h **** 
 252:Drivers/CMSIS/Include/cmsis_gcc.h ****   __ASM volatile ("MRS %0, basepri" : "=r" (result) );
 253:Drivers/CMSIS/Include/cmsis_gcc.h ****   return(result);
 254:Drivers/CMSIS/Include/cmsis_gcc.h **** }
 255:Drivers/CMSIS/Include/cmsis_gcc.h **** 
 256:Drivers/CMSIS/Include/cmsis_gcc.h **** 
 257:Drivers/CMSIS/Include/cmsis_gcc.h **** /**
ARM GAS  /tmp/cc19albo.s 			page 7


 258:Drivers/CMSIS/Include/cmsis_gcc.h ****   \brief   Set Base Priority
 259:Drivers/CMSIS/Include/cmsis_gcc.h ****   \details Assigns the given value to the Base Priority register.
 260:Drivers/CMSIS/Include/cmsis_gcc.h ****   \param [in]    basePri  Base Priority value to set
 261:Drivers/CMSIS/Include/cmsis_gcc.h ****  */
 262:Drivers/CMSIS/Include/cmsis_gcc.h **** __attribute__( ( always_inline ) ) __STATIC_INLINE void __set_BASEPRI(uint32_t value)
 263:Drivers/CMSIS/Include/cmsis_gcc.h **** {
 264:Drivers/CMSIS/Include/cmsis_gcc.h ****   __ASM volatile ("MSR basepri, %0" : : "r" (value) : "memory");
 265:Drivers/CMSIS/Include/cmsis_gcc.h **** }
 266:Drivers/CMSIS/Include/cmsis_gcc.h **** 
 267:Drivers/CMSIS/Include/cmsis_gcc.h **** 
 268:Drivers/CMSIS/Include/cmsis_gcc.h **** /**
 269:Drivers/CMSIS/Include/cmsis_gcc.h ****   \brief   Set Base Priority with condition
 270:Drivers/CMSIS/Include/cmsis_gcc.h ****   \details Assigns the given value to the Base Priority register only if BASEPRI masking is disable
 271:Drivers/CMSIS/Include/cmsis_gcc.h ****            or the new value increases the BASEPRI priority level.
 272:Drivers/CMSIS/Include/cmsis_gcc.h ****   \param [in]    basePri  Base Priority value to set
 273:Drivers/CMSIS/Include/cmsis_gcc.h ****  */
 274:Drivers/CMSIS/Include/cmsis_gcc.h **** __attribute__( ( always_inline ) ) __STATIC_INLINE void __set_BASEPRI_MAX(uint32_t value)
 275:Drivers/CMSIS/Include/cmsis_gcc.h **** {
 276:Drivers/CMSIS/Include/cmsis_gcc.h ****   __ASM volatile ("MSR basepri_max, %0" : : "r" (value) : "memory");
 277:Drivers/CMSIS/Include/cmsis_gcc.h **** }
 278:Drivers/CMSIS/Include/cmsis_gcc.h **** 
 279:Drivers/CMSIS/Include/cmsis_gcc.h **** 
 280:Drivers/CMSIS/Include/cmsis_gcc.h **** /**
 281:Drivers/CMSIS/Include/cmsis_gcc.h ****   \brief   Get Fault Mask
 282:Drivers/CMSIS/Include/cmsis_gcc.h ****   \details Returns the current value of the Fault Mask register.
 283:Drivers/CMSIS/Include/cmsis_gcc.h ****   \return               Fault Mask register value
 284:Drivers/CMSIS/Include/cmsis_gcc.h ****  */
 285:Drivers/CMSIS/Include/cmsis_gcc.h **** __attribute__( ( always_inline ) ) __STATIC_INLINE uint32_t __get_FAULTMASK(void)
 286:Drivers/CMSIS/Include/cmsis_gcc.h **** {
 287:Drivers/CMSIS/Include/cmsis_gcc.h ****   uint32_t result;
 288:Drivers/CMSIS/Include/cmsis_gcc.h **** 
 289:Drivers/CMSIS/Include/cmsis_gcc.h ****   __ASM volatile ("MRS %0, faultmask" : "=r" (result) );
 290:Drivers/CMSIS/Include/cmsis_gcc.h ****   return(result);
 291:Drivers/CMSIS/Include/cmsis_gcc.h **** }
 292:Drivers/CMSIS/Include/cmsis_gcc.h **** 
 293:Drivers/CMSIS/Include/cmsis_gcc.h **** 
 294:Drivers/CMSIS/Include/cmsis_gcc.h **** /**
 295:Drivers/CMSIS/Include/cmsis_gcc.h ****   \brief   Set Fault Mask
 296:Drivers/CMSIS/Include/cmsis_gcc.h ****   \details Assigns the given value to the Fault Mask register.
 297:Drivers/CMSIS/Include/cmsis_gcc.h ****   \param [in]    faultMask  Fault Mask value to set
 298:Drivers/CMSIS/Include/cmsis_gcc.h ****  */
 299:Drivers/CMSIS/Include/cmsis_gcc.h **** __attribute__( ( always_inline ) ) __STATIC_INLINE void __set_FAULTMASK(uint32_t faultMask)
 300:Drivers/CMSIS/Include/cmsis_gcc.h **** {
 301:Drivers/CMSIS/Include/cmsis_gcc.h ****   __ASM volatile ("MSR faultmask, %0" : : "r" (faultMask) : "memory");
 302:Drivers/CMSIS/Include/cmsis_gcc.h **** }
 303:Drivers/CMSIS/Include/cmsis_gcc.h **** 
 304:Drivers/CMSIS/Include/cmsis_gcc.h **** #endif /* (__CORTEX_M >= 0x03U) */
 305:Drivers/CMSIS/Include/cmsis_gcc.h **** 
 306:Drivers/CMSIS/Include/cmsis_gcc.h **** 
 307:Drivers/CMSIS/Include/cmsis_gcc.h **** #if       (__CORTEX_M == 0x04U) || (__CORTEX_M == 0x07U)
 308:Drivers/CMSIS/Include/cmsis_gcc.h **** 
 309:Drivers/CMSIS/Include/cmsis_gcc.h **** /**
 310:Drivers/CMSIS/Include/cmsis_gcc.h ****   \brief   Get FPSCR
 311:Drivers/CMSIS/Include/cmsis_gcc.h ****   \details Returns the current value of the Floating Point Status/Control register.
 312:Drivers/CMSIS/Include/cmsis_gcc.h ****   \return               Floating Point Status/Control register value
 313:Drivers/CMSIS/Include/cmsis_gcc.h ****  */
 314:Drivers/CMSIS/Include/cmsis_gcc.h **** __attribute__( ( always_inline ) ) __STATIC_INLINE uint32_t __get_FPSCR(void)
ARM GAS  /tmp/cc19albo.s 			page 8


 315:Drivers/CMSIS/Include/cmsis_gcc.h **** {
 316:Drivers/CMSIS/Include/cmsis_gcc.h **** #if (__FPU_PRESENT == 1U) && (__FPU_USED == 1U)
 317:Drivers/CMSIS/Include/cmsis_gcc.h ****   uint32_t result;
 318:Drivers/CMSIS/Include/cmsis_gcc.h **** 
 319:Drivers/CMSIS/Include/cmsis_gcc.h ****   /* Empty asm statement works as a scheduling barrier */
 320:Drivers/CMSIS/Include/cmsis_gcc.h ****   __ASM volatile ("");
 321:Drivers/CMSIS/Include/cmsis_gcc.h ****   __ASM volatile ("VMRS %0, fpscr" : "=r" (result) );
 322:Drivers/CMSIS/Include/cmsis_gcc.h ****   __ASM volatile ("");
 323:Drivers/CMSIS/Include/cmsis_gcc.h ****   return(result);
 324:Drivers/CMSIS/Include/cmsis_gcc.h **** #else
 325:Drivers/CMSIS/Include/cmsis_gcc.h ****    return(0);
 326:Drivers/CMSIS/Include/cmsis_gcc.h **** #endif
 327:Drivers/CMSIS/Include/cmsis_gcc.h **** }
 328:Drivers/CMSIS/Include/cmsis_gcc.h **** 
 329:Drivers/CMSIS/Include/cmsis_gcc.h **** 
 330:Drivers/CMSIS/Include/cmsis_gcc.h **** /**
 331:Drivers/CMSIS/Include/cmsis_gcc.h ****   \brief   Set FPSCR
 332:Drivers/CMSIS/Include/cmsis_gcc.h ****   \details Assigns the given value to the Floating Point Status/Control register.
 333:Drivers/CMSIS/Include/cmsis_gcc.h ****   \param [in]    fpscr  Floating Point Status/Control value to set
 334:Drivers/CMSIS/Include/cmsis_gcc.h ****  */
 335:Drivers/CMSIS/Include/cmsis_gcc.h **** __attribute__( ( always_inline ) ) __STATIC_INLINE void __set_FPSCR(uint32_t fpscr)
 336:Drivers/CMSIS/Include/cmsis_gcc.h **** {
 337:Drivers/CMSIS/Include/cmsis_gcc.h **** #if (__FPU_PRESENT == 1U) && (__FPU_USED == 1U)
 338:Drivers/CMSIS/Include/cmsis_gcc.h ****   /* Empty asm statement works as a scheduling barrier */
 339:Drivers/CMSIS/Include/cmsis_gcc.h ****   __ASM volatile ("");
 340:Drivers/CMSIS/Include/cmsis_gcc.h ****   __ASM volatile ("VMSR fpscr, %0" : : "r" (fpscr) : "vfpcc");
 341:Drivers/CMSIS/Include/cmsis_gcc.h ****   __ASM volatile ("");
 342:Drivers/CMSIS/Include/cmsis_gcc.h **** #endif
 343:Drivers/CMSIS/Include/cmsis_gcc.h **** }
 344:Drivers/CMSIS/Include/cmsis_gcc.h **** 
 345:Drivers/CMSIS/Include/cmsis_gcc.h **** #endif /* (__CORTEX_M == 0x04U) || (__CORTEX_M == 0x07U) */
 346:Drivers/CMSIS/Include/cmsis_gcc.h **** 
 347:Drivers/CMSIS/Include/cmsis_gcc.h **** 
 348:Drivers/CMSIS/Include/cmsis_gcc.h **** 
 349:Drivers/CMSIS/Include/cmsis_gcc.h **** /*@} end of CMSIS_Core_RegAccFunctions */
 350:Drivers/CMSIS/Include/cmsis_gcc.h **** 
 351:Drivers/CMSIS/Include/cmsis_gcc.h **** 
 352:Drivers/CMSIS/Include/cmsis_gcc.h **** /* ##########################  Core Instruction Access  ######################### */
 353:Drivers/CMSIS/Include/cmsis_gcc.h **** /** \defgroup CMSIS_Core_InstructionInterface CMSIS Core Instruction Interface
 354:Drivers/CMSIS/Include/cmsis_gcc.h ****   Access to dedicated instructions
 355:Drivers/CMSIS/Include/cmsis_gcc.h ****   @{
 356:Drivers/CMSIS/Include/cmsis_gcc.h **** */
 357:Drivers/CMSIS/Include/cmsis_gcc.h **** 
 358:Drivers/CMSIS/Include/cmsis_gcc.h **** /* Define macros for porting to both thumb1 and thumb2.
 359:Drivers/CMSIS/Include/cmsis_gcc.h ****  * For thumb1, use low register (r0-r7), specified by constraint "l"
 360:Drivers/CMSIS/Include/cmsis_gcc.h ****  * Otherwise, use general registers, specified by constraint "r" */
 361:Drivers/CMSIS/Include/cmsis_gcc.h **** #if defined (__thumb__) && !defined (__thumb2__)
 362:Drivers/CMSIS/Include/cmsis_gcc.h **** #define __CMSIS_GCC_OUT_REG(r) "=l" (r)
 363:Drivers/CMSIS/Include/cmsis_gcc.h **** #define __CMSIS_GCC_USE_REG(r) "l" (r)
 364:Drivers/CMSIS/Include/cmsis_gcc.h **** #else
 365:Drivers/CMSIS/Include/cmsis_gcc.h **** #define __CMSIS_GCC_OUT_REG(r) "=r" (r)
 366:Drivers/CMSIS/Include/cmsis_gcc.h **** #define __CMSIS_GCC_USE_REG(r) "r" (r)
 367:Drivers/CMSIS/Include/cmsis_gcc.h **** #endif
 368:Drivers/CMSIS/Include/cmsis_gcc.h **** 
 369:Drivers/CMSIS/Include/cmsis_gcc.h **** /**
 370:Drivers/CMSIS/Include/cmsis_gcc.h ****   \brief   No Operation
 371:Drivers/CMSIS/Include/cmsis_gcc.h ****   \details No Operation does nothing. This instruction can be used for code alignment purposes.
ARM GAS  /tmp/cc19albo.s 			page 9


 372:Drivers/CMSIS/Include/cmsis_gcc.h ****  */
 373:Drivers/CMSIS/Include/cmsis_gcc.h **** __attribute__((always_inline)) __STATIC_INLINE void __NOP(void)
  49              		.loc 3 373 53 view .LVU6
  50              	.LBB88:
 374:Drivers/CMSIS/Include/cmsis_gcc.h **** {
 375:Drivers/CMSIS/Include/cmsis_gcc.h ****   __ASM volatile ("nop");
  51              		.loc 3 375 3 view .LVU7
  52              		.syntax unified
  53              	@ 375 "Drivers/CMSIS/Include/cmsis_gcc.h" 1
  54 0008 00BF     		nop
  55              	@ 0 "" 2
  56              		.thumb
  57              		.syntax unified
  58              	.LBE88:
  59              	.LBE87:
  37:inc/software_spi.h ****         __NOP();
  60              		.loc 2 37 39 discriminator 3 view .LVU8
  61 000a 019B     		ldr	r3, [sp, #4]
  62 000c 0133     		adds	r3, r3, #1
  63 000e 0193     		str	r3, [sp, #4]
  64              	.L2:
  37:inc/software_spi.h ****         __NOP();
  65              		.loc 2 37 32 discriminator 1 view .LVU9
  66 0010 019B     		ldr	r3, [sp, #4]
  67 0012 3F2B     		cmp	r3, #63
  68 0014 F8DD     		ble	.L3
  69              	.LBE86:
  39:inc/software_spi.h ****     }
  40:inc/software_spi.h **** }
  70              		.loc 2 40 1 is_stmt 0 view .LVU10
  71 0016 02B0     		add	sp, sp, #8
  72              	.LCFI1:
  73              		.cfi_def_cfa_offset 0
  74              		@ sp needed
  75 0018 7047     		bx	lr
  76              		.cfi_endproc
  77              	.LFE66:
  79 001a 00BF     		.section	.text.SoftSPI_Init,"ax",%progbits
  80              		.align	1
  81              		.p2align 2,,3
  82              		.global	SoftSPI_Init
  83              		.syntax unified
  84              		.thumb
  85              		.thumb_func
  87              	SoftSPI_Init:
  88              	.LFB67:
   1:src/software_spi.c **** #include "software_spi.h"
   2:src/software_spi.c **** 
   3:src/software_spi.c **** static uint8_t spi_mode = SPI_MODE0;
   4:src/software_spi.c **** 
   5:src/software_spi.c **** void SoftSPI_Init(void) {
  89              		.loc 1 5 25 is_stmt 1 view -0
  90              		.cfi_startproc
  91              		@ args = 0, pretend = 0, frame = 24
  92              		@ frame_needed = 0, uses_anonymous_args = 0
  93 0000 2DE9F04F 		push	{r4, r5, r6, r7, r8, r9, r10, fp, lr}
  94              	.LCFI2:
ARM GAS  /tmp/cc19albo.s 			page 10


  95              		.cfi_def_cfa_offset 36
  96              		.cfi_offset 4, -36
  97              		.cfi_offset 5, -32
  98              		.cfi_offset 6, -28
  99              		.cfi_offset 7, -24
 100              		.cfi_offset 8, -20
 101              		.cfi_offset 9, -16
 102              		.cfi_offset 10, -12
 103              		.cfi_offset 11, -8
 104              		.cfi_offset 14, -4
 105 0004 87B0     		sub	sp, sp, #28
 106              	.LCFI3:
 107              		.cfi_def_cfa_offset 64
   6:src/software_spi.c ****     GPIO_InitTypeDef GPIO_InitStruct = {0};
 108              		.loc 1 6 5 view .LVU12
 109              		.loc 1 6 22 is_stmt 0 view .LVU13
 110 0006 0024     		movs	r4, #0
 111 0008 0294     		str	r4, [sp, #8]
 112 000a 0394     		str	r4, [sp, #12]
 113 000c 0494     		str	r4, [sp, #16]
 114 000e 0594     		str	r4, [sp, #20]
   7:src/software_spi.c **** 
   8:src/software_spi.c ****     /* With CONTROL_TYPE=9 (CAN_BUS), USART2/3 are not initialized in interrupt
   9:src/software_spi.c ****      * mode, so there is no USART AF conflict on PA2/PA3/PB10/PB11.
  10:src/software_spi.c ****      * SPI pins are safe to reconfigure directly. */
  11:src/software_spi.c **** 
  12:src/software_spi.c ****     // Enable GPIO clocks
  13:src/software_spi.c ****     __HAL_RCC_GPIOA_CLK_ENABLE();
 115              		.loc 1 13 5 is_stmt 1 view .LVU14
 116              	.LBB89:
 117              		.loc 1 13 5 view .LVU15
 118              		.loc 1 13 5 view .LVU16
 119 0010 314B     		ldr	r3, .L7
 120 0012 9A69     		ldr	r2, [r3, #24]
 121 0014 42F00402 		orr	r2, r2, #4
 122 0018 9A61     		str	r2, [r3, #24]
 123              		.loc 1 13 5 view .LVU17
 124 001a 9A69     		ldr	r2, [r3, #24]
 125 001c 02F00402 		and	r2, r2, #4
 126 0020 0092     		str	r2, [sp]
 127              		.loc 1 13 5 view .LVU18
 128 0022 009A     		ldr	r2, [sp]
 129              	.LBE89:
 130              		.loc 1 13 5 view .LVU19
  14:src/software_spi.c ****     __HAL_RCC_GPIOB_CLK_ENABLE();
 131              		.loc 1 14 5 view .LVU20
 132              	.LBB90:
 133              		.loc 1 14 5 view .LVU21
 134              		.loc 1 14 5 view .LVU22
 135 0024 9A69     		ldr	r2, [r3, #24]
 136 0026 42F00802 		orr	r2, r2, #8
 137 002a 9A61     		str	r2, [r3, #24]
 138              		.loc 1 14 5 view .LVU23
 139 002c 9B69     		ldr	r3, [r3, #24]
 140 002e 03F00803 		and	r3, r3, #8
 141 0032 0193     		str	r3, [sp, #4]
 142              		.loc 1 14 5 view .LVU24
ARM GAS  /tmp/cc19albo.s 			page 11


 143 0034 019B     		ldr	r3, [sp, #4]
 144              	.LBE90:
 145              		.loc 1 14 5 view .LVU25
  15:src/software_spi.c ****     
  16:src/software_spi.c ****     // Configure MOSI pin (Output)
  17:src/software_spi.c ****     GPIO_InitStruct.Pin = SOFT_SPI_MOSI_PIN;
 146              		.loc 1 17 5 view .LVU26
 147              		.loc 1 17 25 is_stmt 0 view .LVU27
 148 0036 4FF40069 		mov	r9, #2048
 149 003a CDF80890 		str	r9, [sp, #8]
  18:src/software_spi.c ****     GPIO_InitStruct.Mode = GPIO_MODE_OUTPUT_PP;
 150              		.loc 1 18 5 is_stmt 1 view .LVU28
 151              		.loc 1 18 26 is_stmt 0 view .LVU29
 152 003e 0125     		movs	r5, #1
 153 0040 0395     		str	r5, [sp, #12]
  19:src/software_spi.c ****     GPIO_InitStruct.Pull = GPIO_NOPULL;
 154              		.loc 1 19 5 is_stmt 1 view .LVU30
  20:src/software_spi.c ****     GPIO_InitStruct.Speed = GPIO_SPEED_FREQ_HIGH;
 155              		.loc 1 20 5 view .LVU31
 156              		.loc 1 20 27 is_stmt 0 view .LVU32
 157 0042 4FF00308 		mov	r8, #3
 158 0046 CDF81480 		str	r8, [sp, #20]
  21:src/software_spi.c ****     HAL_GPIO_Init(SOFT_SPI_MOSI_PORT, &GPIO_InitStruct);
 159              		.loc 1 21 5 is_stmt 1 view .LVU33
 160 004a 244E     		ldr	r6, .L7+4
 161 004c 02A9     		add	r1, sp, #8
 162 004e 3046     		mov	r0, r6
 163 0050 FFF7FEFF 		bl	HAL_GPIO_Init
 164              	.LVL0:
  22:src/software_spi.c ****     
  23:src/software_spi.c ****     // Configure MISO pin (Input) - no pull (external circuit must handle)
  24:src/software_spi.c ****     GPIO_InitStruct.Pin = SOFT_SPI_MISO_PIN;
 165              		.loc 1 24 5 view .LVU34
 166              		.loc 1 24 25 is_stmt 0 view .LVU35
 167 0054 4FF48063 		mov	r3, #1024
 168 0058 0293     		str	r3, [sp, #8]
  25:src/software_spi.c ****     GPIO_InitStruct.Mode = GPIO_MODE_INPUT;
 169              		.loc 1 25 5 is_stmt 1 view .LVU36
 170              		.loc 1 25 26 is_stmt 0 view .LVU37
 171 005a 0394     		str	r4, [sp, #12]
  26:src/software_spi.c ****     GPIO_InitStruct.Pull = GPIO_NOPULL;
 172              		.loc 1 26 5 is_stmt 1 view .LVU38
 173              		.loc 1 26 26 is_stmt 0 view .LVU39
 174 005c 0494     		str	r4, [sp, #16]
  27:src/software_spi.c ****     HAL_GPIO_Init(SOFT_SPI_MISO_PORT, &GPIO_InitStruct);
 175              		.loc 1 27 5 is_stmt 1 view .LVU40
 176 005e 02A9     		add	r1, sp, #8
 177 0060 3046     		mov	r0, r6
 178 0062 FFF7FEFF 		bl	HAL_GPIO_Init
 179              	.LVL1:
  28:src/software_spi.c ****     
  29:src/software_spi.c ****     // Configure SCK pin (Output)
  30:src/software_spi.c ****     GPIO_InitStruct.Pin = SOFT_SPI_SCK_PIN;
 180              		.loc 1 30 5 view .LVU41
 181              		.loc 1 30 25 is_stmt 0 view .LVU42
 182 0066 4FF0080A 		mov	r10, #8
 183 006a CDF808A0 		str	r10, [sp, #8]
ARM GAS  /tmp/cc19albo.s 			page 12


  31:src/software_spi.c ****     GPIO_InitStruct.Mode = GPIO_MODE_OUTPUT_PP;
 184              		.loc 1 31 5 is_stmt 1 view .LVU43
 185              		.loc 1 31 26 is_stmt 0 view .LVU44
 186 006e 0395     		str	r5, [sp, #12]
  32:src/software_spi.c ****     GPIO_InitStruct.Pull = GPIO_NOPULL;
 187              		.loc 1 32 5 is_stmt 1 view .LVU45
 188              		.loc 1 32 26 is_stmt 0 view .LVU46
 189 0070 0494     		str	r4, [sp, #16]
  33:src/software_spi.c ****     GPIO_InitStruct.Speed = GPIO_SPEED_FREQ_HIGH;
 190              		.loc 1 33 5 is_stmt 1 view .LVU47
 191              		.loc 1 33 27 is_stmt 0 view .LVU48
 192 0072 CDF81480 		str	r8, [sp, #20]
  34:src/software_spi.c ****     HAL_GPIO_Init(SOFT_SPI_SCK_PORT, &GPIO_InitStruct);
 193              		.loc 1 34 5 is_stmt 1 view .LVU49
 194 0076 1A4F     		ldr	r7, .L7+8
 195 0078 0DEB0A01 		add	r1, sp, r10
 196 007c 3846     		mov	r0, r7
 197 007e FFF7FEFF 		bl	HAL_GPIO_Init
 198              	.LVL2:
  35:src/software_spi.c ****     
  36:src/software_spi.c ****     // Configure CS pin (Output)
  37:src/software_spi.c ****     GPIO_InitStruct.Pin = SOFT_SPI_CS_PIN;
 199              		.loc 1 37 5 view .LVU50
 200              		.loc 1 37 25 is_stmt 0 view .LVU51
 201 0082 4FF0040B 		mov	fp, #4
 202 0086 CDF808B0 		str	fp, [sp, #8]
  38:src/software_spi.c ****     GPIO_InitStruct.Mode = GPIO_MODE_OUTPUT_PP;
 203              		.loc 1 38 5 is_stmt 1 view .LVU52
 204              		.loc 1 38 26 is_stmt 0 view .LVU53
 205 008a 0395     		str	r5, [sp, #12]
  39:src/software_spi.c ****     GPIO_InitStruct.Pull = GPIO_NOPULL;
 206              		.loc 1 39 5 is_stmt 1 view .LVU54
 207              		.loc 1 39 26 is_stmt 0 view .LVU55
 208 008c 0494     		str	r4, [sp, #16]
  40:src/software_spi.c ****     GPIO_InitStruct.Speed = GPIO_SPEED_FREQ_HIGH;
 209              		.loc 1 40 5 is_stmt 1 view .LVU56
 210              		.loc 1 40 27 is_stmt 0 view .LVU57
 211 008e CDF81480 		str	r8, [sp, #20]
  41:src/software_spi.c ****     HAL_GPIO_Init(SOFT_SPI_CS_PORT, &GPIO_InitStruct);
 212              		.loc 1 41 5 is_stmt 1 view .LVU58
 213 0092 0DEB0A01 		add	r1, sp, r10
 214 0096 3846     		mov	r0, r7
 215 0098 FFF7FEFF 		bl	HAL_GPIO_Init
 216              	.LVL3:
  42:src/software_spi.c ****     
  43:src/software_spi.c ****     // Configure INT pin (Input with interrupt capability)
  44:src/software_spi.c ****     GPIO_InitStruct.Pin = SOFT_SPI_INT_PIN;
 217              		.loc 1 44 5 view .LVU59
 218              		.loc 1 44 25 is_stmt 0 view .LVU60
 219 009c 4FF48053 		mov	r3, #4096
 220 00a0 0293     		str	r3, [sp, #8]
  45:src/software_spi.c ****     GPIO_InitStruct.Mode = GPIO_MODE_INPUT;
 221              		.loc 1 45 5 is_stmt 1 view .LVU61
 222              		.loc 1 45 26 is_stmt 0 view .LVU62
 223 00a2 0394     		str	r4, [sp, #12]
  46:src/software_spi.c ****     GPIO_InitStruct.Pull = GPIO_PULLUP;
 224              		.loc 1 46 5 is_stmt 1 view .LVU63
ARM GAS  /tmp/cc19albo.s 			page 13


 225              		.loc 1 46 26 is_stmt 0 view .LVU64
 226 00a4 0495     		str	r5, [sp, #16]
  47:src/software_spi.c ****     HAL_GPIO_Init(SOFT_SPI_INT_PORT, &GPIO_InitStruct);
 227              		.loc 1 47 5 is_stmt 1 view .LVU65
 228 00a6 0DEB0A01 		add	r1, sp, r10
 229 00aa 3046     		mov	r0, r6
 230 00ac FFF7FEFF 		bl	HAL_GPIO_Init
 231              	.LVL4:
  48:src/software_spi.c ****     
  49:src/software_spi.c ****     // Set default pin states
  50:src/software_spi.c ****     HAL_GPIO_WritePin(SOFT_SPI_CS_PORT, SOFT_SPI_CS_PIN, GPIO_PIN_SET);   // CS high (inactive)
 232              		.loc 1 50 5 view .LVU66
 233 00b0 2A46     		mov	r2, r5
 234 00b2 5946     		mov	r1, fp
 235 00b4 3846     		mov	r0, r7
 236 00b6 FFF7FEFF 		bl	HAL_GPIO_WritePin
 237              	.LVL5:
  51:src/software_spi.c ****     HAL_GPIO_WritePin(SOFT_SPI_SCK_PORT, SOFT_SPI_SCK_PIN, GPIO_PIN_RESET); // SCK low
 238              		.loc 1 51 5 view .LVU67
 239 00ba 2246     		mov	r2, r4
 240 00bc 5146     		mov	r1, r10
 241 00be 3846     		mov	r0, r7
 242 00c0 FFF7FEFF 		bl	HAL_GPIO_WritePin
 243              	.LVL6:
  52:src/software_spi.c ****     HAL_GPIO_WritePin(SOFT_SPI_MOSI_PORT, SOFT_SPI_MOSI_PIN, GPIO_PIN_RESET);
 244              		.loc 1 52 5 view .LVU68
 245 00c4 2246     		mov	r2, r4
 246 00c6 4946     		mov	r1, r9
 247 00c8 3046     		mov	r0, r6
 248 00ca FFF7FEFF 		bl	HAL_GPIO_WritePin
 249              	.LVL7:
  53:src/software_spi.c ****     
  54:src/software_spi.c ****     spi_mode = SPI_MODE0;
 250              		.loc 1 54 5 view .LVU69
 251              		.loc 1 54 14 is_stmt 0 view .LVU70
 252 00ce 054B     		ldr	r3, .L7+12
 253 00d0 1C70     		strb	r4, [r3]
  55:src/software_spi.c **** }
 254              		.loc 1 55 1 view .LVU71
 255 00d2 07B0     		add	sp, sp, #28
 256              	.LCFI4:
 257              		.cfi_def_cfa_offset 36
 258              		@ sp needed
 259 00d4 BDE8F08F 		pop	{r4, r5, r6, r7, r8, r9, r10, fp, pc}
 260              	.L8:
 261              		.align	2
 262              	.L7:
 263 00d8 00100240 		.word	1073876992
 264 00dc 000C0140 		.word	1073810432
 265 00e0 00080140 		.word	1073809408
 266 00e4 00000000 		.word	spi_mode
 267              		.cfi_endproc
 268              	.LFE67:
 270              		.section	.text.SoftSPI_Deinit,"ax",%progbits
 271              		.align	1
 272              		.p2align 2,,3
 273              		.global	SoftSPI_Deinit
ARM GAS  /tmp/cc19albo.s 			page 14


 274              		.syntax unified
 275              		.thumb
 276              		.thumb_func
 278              	SoftSPI_Deinit:
 279              	.LFB68:
  56:src/software_spi.c **** 
  57:src/software_spi.c **** void SoftSPI_Deinit(void) {
 280              		.loc 1 57 27 is_stmt 1 view -0
 281              		.cfi_startproc
 282              		@ args = 0, pretend = 0, frame = 16
 283              		@ frame_needed = 0, uses_anonymous_args = 0
 284 0000 30B5     		push	{r4, r5, lr}
 285              	.LCFI5:
 286              		.cfi_def_cfa_offset 12
 287              		.cfi_offset 4, -12
 288              		.cfi_offset 5, -8
 289              		.cfi_offset 14, -4
 290 0002 85B0     		sub	sp, sp, #20
 291              	.LCFI6:
 292              		.cfi_def_cfa_offset 32
  58:src/software_spi.c ****     GPIO_InitTypeDef GPIO_InitStruct = {0};
 293              		.loc 1 58 5 view .LVU73
 294              		.loc 1 58 22 is_stmt 0 view .LVU74
 295 0004 0023     		movs	r3, #0
 296 0006 0093     		str	r3, [sp]
 297 0008 0193     		str	r3, [sp, #4]
 298 000a 0293     		str	r3, [sp, #8]
 299 000c 0393     		str	r3, [sp, #12]
  59:src/software_spi.c ****     
  60:src/software_spi.c ****     // Reconfigure all pins as analog input (low power)
  61:src/software_spi.c ****     GPIO_InitStruct.Mode = GPIO_MODE_ANALOG;
 300              		.loc 1 61 5 is_stmt 1 view .LVU75
 301              		.loc 1 61 26 is_stmt 0 view .LVU76
 302 000e 0323     		movs	r3, #3
 303 0010 0193     		str	r3, [sp, #4]
  62:src/software_spi.c ****     GPIO_InitStruct.Pull = GPIO_NOPULL;
 304              		.loc 1 62 5 is_stmt 1 view .LVU77
  63:src/software_spi.c ****     
  64:src/software_spi.c ****     GPIO_InitStruct.Pin = SOFT_SPI_MOSI_PIN;
 305              		.loc 1 64 5 view .LVU78
 306              		.loc 1 64 25 is_stmt 0 view .LVU79
 307 0012 4FF40063 		mov	r3, #2048
 308 0016 0093     		str	r3, [sp]
  65:src/software_spi.c ****     HAL_GPIO_Init(SOFT_SPI_MOSI_PORT, &GPIO_InitStruct);
 309              		.loc 1 65 5 is_stmt 1 view .LVU80
 310 0018 104C     		ldr	r4, .L11
 311 001a 6946     		mov	r1, sp
 312 001c 2046     		mov	r0, r4
 313 001e FFF7FEFF 		bl	HAL_GPIO_Init
 314              	.LVL8:
  66:src/software_spi.c ****     
  67:src/software_spi.c ****     GPIO_InitStruct.Pin = SOFT_SPI_MISO_PIN;
 315              		.loc 1 67 5 view .LVU81
 316              		.loc 1 67 25 is_stmt 0 view .LVU82
 317 0022 4FF48063 		mov	r3, #1024
 318 0026 0093     		str	r3, [sp]
  68:src/software_spi.c ****     HAL_GPIO_Init(SOFT_SPI_MISO_PORT, &GPIO_InitStruct);
ARM GAS  /tmp/cc19albo.s 			page 15


 319              		.loc 1 68 5 is_stmt 1 view .LVU83
 320 0028 6946     		mov	r1, sp
 321 002a 2046     		mov	r0, r4
 322 002c FFF7FEFF 		bl	HAL_GPIO_Init
 323              	.LVL9:
  69:src/software_spi.c ****     
  70:src/software_spi.c ****     GPIO_InitStruct.Pin = SOFT_SPI_SCK_PIN;
 324              		.loc 1 70 5 view .LVU84
 325              		.loc 1 70 25 is_stmt 0 view .LVU85
 326 0030 0823     		movs	r3, #8
 327 0032 0093     		str	r3, [sp]
  71:src/software_spi.c ****     HAL_GPIO_Init(SOFT_SPI_SCK_PORT, &GPIO_InitStruct);
 328              		.loc 1 71 5 is_stmt 1 view .LVU86
 329 0034 0A4D     		ldr	r5, .L11+4
 330 0036 6946     		mov	r1, sp
 331 0038 2846     		mov	r0, r5
 332 003a FFF7FEFF 		bl	HAL_GPIO_Init
 333              	.LVL10:
  72:src/software_spi.c ****     
  73:src/software_spi.c ****     GPIO_InitStruct.Pin = SOFT_SPI_CS_PIN;
 334              		.loc 1 73 5 view .LVU87
 335              		.loc 1 73 25 is_stmt 0 view .LVU88
 336 003e 0423     		movs	r3, #4
 337 0040 0093     		str	r3, [sp]
  74:src/software_spi.c ****     HAL_GPIO_Init(SOFT_SPI_CS_PORT, &GPIO_InitStruct);
 338              		.loc 1 74 5 is_stmt 1 view .LVU89
 339 0042 6946     		mov	r1, sp
 340 0044 2846     		mov	r0, r5
 341 0046 FFF7FEFF 		bl	HAL_GPIO_Init
 342              	.LVL11:
  75:src/software_spi.c ****     
  76:src/software_spi.c ****     GPIO_InitStruct.Pin = SOFT_SPI_INT_PIN;
 343              		.loc 1 76 5 view .LVU90
 344              		.loc 1 76 25 is_stmt 0 view .LVU91
 345 004a 4FF48053 		mov	r3, #4096
 346 004e 0093     		str	r3, [sp]
  77:src/software_spi.c ****     HAL_GPIO_Init(SOFT_SPI_INT_PORT, &GPIO_InitStruct);
 347              		.loc 1 77 5 is_stmt 1 view .LVU92
 348 0050 6946     		mov	r1, sp
 349 0052 2046     		mov	r0, r4
 350 0054 FFF7FEFF 		bl	HAL_GPIO_Init
 351              	.LVL12:
  78:src/software_spi.c **** }
 352              		.loc 1 78 1 is_stmt 0 view .LVU93
 353 0058 05B0     		add	sp, sp, #20
 354              	.LCFI7:
 355              		.cfi_def_cfa_offset 12
 356              		@ sp needed
 357 005a 30BD     		pop	{r4, r5, pc}
 358              	.L12:
 359              		.align	2
 360              	.L11:
 361 005c 000C0140 		.word	1073810432
 362 0060 00080140 		.word	1073809408
 363              		.cfi_endproc
 364              	.LFE68:
 366              		.section	.text.SoftSPI_SetMode,"ax",%progbits
ARM GAS  /tmp/cc19albo.s 			page 16


 367              		.align	1
 368              		.p2align 2,,3
 369              		.global	SoftSPI_SetMode
 370              		.syntax unified
 371              		.thumb
 372              		.thumb_func
 374              	SoftSPI_SetMode:
 375              	.LVL13:
 376              	.LFB69:
  79:src/software_spi.c **** 
  80:src/software_spi.c **** void SoftSPI_SetMode(uint8_t mode) {
 377              		.loc 1 80 36 is_stmt 1 view -0
 378              		.cfi_startproc
 379              		@ args = 0, pretend = 0, frame = 0
 380              		@ frame_needed = 0, uses_anonymous_args = 0
 381              		.loc 1 80 36 is_stmt 0 view .LVU95
 382 0000 08B5     		push	{r3, lr}
 383              	.LCFI8:
 384              		.cfi_def_cfa_offset 8
 385              		.cfi_offset 3, -8
 386              		.cfi_offset 14, -4
  81:src/software_spi.c ****     spi_mode = mode & 0x03;
 387              		.loc 1 81 5 is_stmt 1 view .LVU96
 388              		.loc 1 81 21 is_stmt 0 view .LVU97
 389 0002 00F00300 		and	r0, r0, #3
 390              	.LVL14:
 391              		.loc 1 81 14 view .LVU98
 392 0006 094B     		ldr	r3, .L18
 393 0008 1870     		strb	r0, [r3]
  82:src/software_spi.c ****     
  83:src/software_spi.c ****     // Set clock idle state based on mode
  84:src/software_spi.c ****     if (spi_mode == SPI_MODE2 || spi_mode == SPI_MODE3) {
 394              		.loc 1 84 5 is_stmt 1 view .LVU99
 395              		.loc 1 84 31 is_stmt 0 view .LVU100
 396 000a 0238     		subs	r0, r0, #2
 397 000c C0B2     		uxtb	r0, r0
 398              		.loc 1 84 8 view .LVU101
 399 000e 0128     		cmp	r0, #1
 400 0010 05D9     		bls	.L17
  85:src/software_spi.c ****         HAL_GPIO_WritePin(SOFT_SPI_SCK_PORT, SOFT_SPI_SCK_PIN, GPIO_PIN_SET);
  86:src/software_spi.c ****     } else {
  87:src/software_spi.c ****         HAL_GPIO_WritePin(SOFT_SPI_SCK_PORT, SOFT_SPI_SCK_PIN, GPIO_PIN_RESET);
 401              		.loc 1 87 9 is_stmt 1 view .LVU102
 402 0012 0022     		movs	r2, #0
 403 0014 0821     		movs	r1, #8
 404 0016 0648     		ldr	r0, .L18+4
 405 0018 FFF7FEFF 		bl	HAL_GPIO_WritePin
 406              	.LVL15:
 407              	.L13:
  88:src/software_spi.c ****     }
  89:src/software_spi.c **** }
 408              		.loc 1 89 1 is_stmt 0 view .LVU103
 409 001c 08BD     		pop	{r3, pc}
 410              	.L17:
  85:src/software_spi.c ****         HAL_GPIO_WritePin(SOFT_SPI_SCK_PORT, SOFT_SPI_SCK_PIN, GPIO_PIN_SET);
 411              		.loc 1 85 9 is_stmt 1 view .LVU104
 412 001e 0122     		movs	r2, #1
ARM GAS  /tmp/cc19albo.s 			page 17


 413 0020 0821     		movs	r1, #8
 414 0022 0348     		ldr	r0, .L18+4
 415 0024 FFF7FEFF 		bl	HAL_GPIO_WritePin
 416              	.LVL16:
 417 0028 F8E7     		b	.L13
 418              	.L19:
 419 002a 00BF     		.align	2
 420              	.L18:
 421 002c 00000000 		.word	spi_mode
 422 0030 00080140 		.word	1073809408
 423              		.cfi_endproc
 424              	.LFE69:
 426              		.section	.text.SoftSPI_CS_Low,"ax",%progbits
 427              		.align	1
 428              		.p2align 2,,3
 429              		.global	SoftSPI_CS_Low
 430              		.syntax unified
 431              		.thumb
 432              		.thumb_func
 434              	SoftSPI_CS_Low:
 435              	.LFB70:
  90:src/software_spi.c **** 
  91:src/software_spi.c **** void SoftSPI_CS_Low(void) {
 436              		.loc 1 91 27 view -0
 437              		.cfi_startproc
 438              		@ args = 0, pretend = 0, frame = 0
 439              		@ frame_needed = 0, uses_anonymous_args = 0
 440 0000 08B5     		push	{r3, lr}
 441              	.LCFI9:
 442              		.cfi_def_cfa_offset 8
 443              		.cfi_offset 3, -8
 444              		.cfi_offset 14, -4
  92:src/software_spi.c ****     SOFT_SPI_CS_PORT->BRR = SOFT_SPI_CS_PIN;  // Direct register: faster
 445              		.loc 1 92 5 view .LVU106
 446              		.loc 1 92 27 is_stmt 0 view .LVU107
 447 0002 034B     		ldr	r3, .L22
 448 0004 0422     		movs	r2, #4
 449 0006 5A61     		str	r2, [r3, #20]
  93:src/software_spi.c ****     // MCP2515 needs 100ns CS setup time before first clock
  94:src/software_spi.c ****     SoftSPI_Delay();
 450              		.loc 1 94 5 is_stmt 1 view .LVU108
 451 0008 FFF7FEFF 		bl	SoftSPI_Delay
 452              	.LVL17:
  95:src/software_spi.c **** }
 453              		.loc 1 95 1 is_stmt 0 view .LVU109
 454 000c 08BD     		pop	{r3, pc}
 455              	.L23:
 456 000e 00BF     		.align	2
 457              	.L22:
 458 0010 00080140 		.word	1073809408
 459              		.cfi_endproc
 460              	.LFE70:
 462              		.section	.text.SoftSPI_CS_High,"ax",%progbits
 463              		.align	1
 464              		.p2align 2,,3
 465              		.global	SoftSPI_CS_High
 466              		.syntax unified
ARM GAS  /tmp/cc19albo.s 			page 18


 467              		.thumb
 468              		.thumb_func
 470              	SoftSPI_CS_High:
 471              	.LFB71:
  96:src/software_spi.c **** 
  97:src/software_spi.c **** void SoftSPI_CS_High(void) {
 472              		.loc 1 97 28 is_stmt 1 view -0
 473              		.cfi_startproc
 474              		@ args = 0, pretend = 0, frame = 0
 475              		@ frame_needed = 0, uses_anonymous_args = 0
 476              		@ link register save eliminated.
  98:src/software_spi.c ****     SOFT_SPI_CS_PORT->BSRR = SOFT_SPI_CS_PIN;  // Direct register: faster
 477              		.loc 1 98 5 view .LVU111
 478              		.loc 1 98 28 is_stmt 0 view .LVU112
 479 0000 014B     		ldr	r3, .L25
 480 0002 0422     		movs	r2, #4
 481 0004 1A61     		str	r2, [r3, #16]
  99:src/software_spi.c **** }
 482              		.loc 1 99 1 view .LVU113
 483 0006 7047     		bx	lr
 484              	.L26:
 485              		.align	2
 486              	.L25:
 487 0008 00080140 		.word	1073809408
 488              		.cfi_endproc
 489              	.LFE71:
 491              		.section	.text.SoftSPI_Transfer,"ax",%progbits
 492              		.align	1
 493              		.p2align 2,,3
 494              		.global	SoftSPI_Transfer
 495              		.syntax unified
 496              		.thumb
 497              		.thumb_func
 499              	SoftSPI_Transfer:
 500              	.LVL18:
 501              	.LFB72:
 100:src/software_spi.c **** 
 101:src/software_spi.c **** // SPI Mode 0 transfer - v1.24: Sample MISO just before falling edge
 102:src/software_spi.c **** // v1.22 showed first 4 bits correct, last 4 wrong = timing drift
 103:src/software_spi.c **** __attribute__((optimize("-O3")))
 104:src/software_spi.c **** uint8_t SoftSPI_Transfer(uint8_t data) {
 502              		.loc 1 104 40 is_stmt 1 view -0
 503              		.cfi_startproc
 504              		@ args = 0, pretend = 0, frame = 0
 505              		@ frame_needed = 0, uses_anonymous_args = 0
 105:src/software_spi.c ****     uint8_t received = 0;
 506              		.loc 1 105 5 view .LVU115
 106:src/software_spi.c **** 
 107:src/software_spi.c ****     // SPI Mode 0: CPOL=0, CPHA=0
 108:src/software_spi.c ****     // MCP2515 outputs on falling edge, we sample on rising (or during high)
 109:src/software_spi.c ****     // Try sampling LATE in the clock high period for maximum stability
 110:src/software_spi.c **** 
 111:src/software_spi.c ****     for (int i = 7; i >= 0; i--) {
 507              		.loc 1 111 5 view .LVU116
 508              	.LBB91:
 509              		.loc 1 111 10 view .LVU117
 510              		.loc 1 111 23 discriminator 1 view .LVU118
ARM GAS  /tmp/cc19albo.s 			page 19


 511              	.LBE91:
 104:src/software_spi.c ****     uint8_t received = 0;
 512              		.loc 1 104 40 is_stmt 0 view .LVU119
 513 0000 F0B5     		push	{r4, r5, r6, r7, lr}
 514              	.LCFI10:
 515              		.cfi_def_cfa_offset 20
 516              		.cfi_offset 4, -20
 517              		.cfi_offset 5, -16
 518              		.cfi_offset 6, -12
 519              		.cfi_offset 7, -8
 520              		.cfi_offset 14, -4
 521              	.LBB174:
 522              		.loc 1 111 14 view .LVU120
 523 0002 0723     		movs	r3, #7
 524              	.LBE174:
 105:src/software_spi.c ****     uint8_t received = 0;
 525              		.loc 1 105 13 view .LVU121
 526 0004 0022     		movs	r2, #0
 527              	.LBB175:
 112:src/software_spi.c ****         // 1. Set MOSI bit
 113:src/software_spi.c ****         if (data & (1 << i)) {
 114:src/software_spi.c ****             SOFT_SPI_MOSI_PORT->BSRR = SOFT_SPI_MOSI_PIN;
 115:src/software_spi.c ****         } else {
 116:src/software_spi.c ****             SOFT_SPI_MOSI_PORT->BRR = SOFT_SPI_MOSI_PIN;
 528              		.loc 1 116 37 view .LVU122
 529 0006 4FF40067 		mov	r7, #2048
 117:src/software_spi.c ****         }
 118:src/software_spi.c **** 
 119:src/software_spi.c ****         // 2. MOSI setup time
 120:src/software_spi.c ****         __NOP(); __NOP(); __NOP(); __NOP();
 121:src/software_spi.c ****         __NOP(); __NOP(); __NOP(); __NOP();
 122:src/software_spi.c **** 
 123:src/software_spi.c ****         // 3. RISING EDGE
 124:src/software_spi.c ****         SOFT_SPI_SCK_PORT->BSRR = SOFT_SPI_SCK_PIN;
 530              		.loc 1 124 33 view .LVU123
 531 000a 0824     		movs	r4, #8
 125:src/software_spi.c **** 
 126:src/software_spi.c ****         // 4. Hold clock high - let signal stabilize
 127:src/software_spi.c ****         __NOP(); __NOP(); __NOP(); __NOP();
 128:src/software_spi.c ****         __NOP(); __NOP(); __NOP(); __NOP();
 129:src/software_spi.c ****         __NOP(); __NOP(); __NOP(); __NOP();
 130:src/software_spi.c ****         __NOP(); __NOP(); __NOP(); __NOP();
 131:src/software_spi.c **** 
 132:src/software_spi.c ****         // 5. Sample MISO NOW (late in high period, just before falling)
 133:src/software_spi.c ****         if (SOFT_SPI_MISO_PORT->IDR & SOFT_SPI_MISO_PIN) {
 134:src/software_spi.c ****             received |= (1 << i);
 532              		.loc 1 134 28 view .LVU124
 533 000c 4FF0010E 		mov	lr, #1
 116:src/software_spi.c ****         }
 534              		.loc 1 116 37 view .LVU125
 535 0010 1E4D     		ldr	r5, .L38
 124:src/software_spi.c **** 
 536              		.loc 1 124 33 view .LVU126
 537 0012 1F49     		ldr	r1, .L38+4
 538              	.LVL19:
 539              	.L31:
 113:src/software_spi.c ****             SOFT_SPI_MOSI_PORT->BSRR = SOFT_SPI_MOSI_PIN;
ARM GAS  /tmp/cc19albo.s 			page 20


 540              		.loc 1 113 9 is_stmt 1 view .LVU127
 114:src/software_spi.c ****         } else {
 541              		.loc 1 114 13 view .LVU128
 116:src/software_spi.c ****         }
 542              		.loc 1 116 13 view .LVU129
 120:src/software_spi.c ****         __NOP(); __NOP(); __NOP(); __NOP();
 543              		.loc 1 120 9 view .LVU130
 544              	.LBB92:
 545              	.LBI92:
 373:Drivers/CMSIS/Include/cmsis_gcc.h **** {
 546              		.loc 3 373 53 view .LVU131
 547              	.LBB93:
 548              		.loc 3 375 3 view .LVU132
 549              	.LBE93:
 550              	.LBE92:
 113:src/software_spi.c ****             SOFT_SPI_MOSI_PORT->BSRR = SOFT_SPI_MOSI_PIN;
 551              		.loc 1 113 13 is_stmt 0 view .LVU133
 552 0014 40FA03F6 		asr	r6, r0, r3
 113:src/software_spi.c ****             SOFT_SPI_MOSI_PORT->BSRR = SOFT_SPI_MOSI_PIN;
 553              		.loc 1 113 12 view .LVU134
 554 0018 F607     		lsls	r6, r6, #31
 114:src/software_spi.c ****         } else {
 555              		.loc 1 114 38 view .LVU135
 556 001a 4CBF     		ite	mi
 557 001c 2F61     		strmi	r7, [r5, #16]
 116:src/software_spi.c ****         }
 558              		.loc 1 116 37 view .LVU136
 559 001e 6F61     		strpl	r7, [r5, #20]
 560              	.LBB95:
 561              	.LBB94:
 562              		.loc 3 375 3 view .LVU137
 563              		.syntax unified
 564              	@ 375 "Drivers/CMSIS/Include/cmsis_gcc.h" 1
 565 0020 00BF     		nop
 566              	@ 0 "" 2
 567              		.thumb
 568              		.syntax unified
 569              	.LBE94:
 570              	.LBE95:
 120:src/software_spi.c ****         __NOP(); __NOP(); __NOP(); __NOP();
 571              		.loc 1 120 18 is_stmt 1 discriminator 1 view .LVU138
 572              	.LBB96:
 573              	.LBI96:
 373:Drivers/CMSIS/Include/cmsis_gcc.h **** {
 574              		.loc 3 373 53 view .LVU139
 575              	.LBB97:
 576              		.loc 3 375 3 view .LVU140
 577              		.syntax unified
 578              	@ 375 "Drivers/CMSIS/Include/cmsis_gcc.h" 1
 579 0022 00BF     		nop
 580              	@ 0 "" 2
 581              		.thumb
 582              		.syntax unified
 583              	.LBE97:
 584              	.LBE96:
 120:src/software_spi.c ****         __NOP(); __NOP(); __NOP(); __NOP();
 585              		.loc 1 120 27 discriminator 2 view .LVU141
ARM GAS  /tmp/cc19albo.s 			page 21


 586              	.LBB98:
 587              	.LBI98:
 373:Drivers/CMSIS/Include/cmsis_gcc.h **** {
 588              		.loc 3 373 53 view .LVU142
 589              	.LBB99:
 590              		.loc 3 375 3 view .LVU143
 591              		.syntax unified
 592              	@ 375 "Drivers/CMSIS/Include/cmsis_gcc.h" 1
 593 0024 00BF     		nop
 594              	@ 0 "" 2
 595              		.thumb
 596              		.syntax unified
 597              	.LBE99:
 598              	.LBE98:
 120:src/software_spi.c ****         __NOP(); __NOP(); __NOP(); __NOP();
 599              		.loc 1 120 36 discriminator 3 view .LVU144
 600              	.LBB100:
 601              	.LBI100:
 373:Drivers/CMSIS/Include/cmsis_gcc.h **** {
 602              		.loc 3 373 53 view .LVU145
 603              	.LBB101:
 604              		.loc 3 375 3 view .LVU146
 605              		.syntax unified
 606              	@ 375 "Drivers/CMSIS/Include/cmsis_gcc.h" 1
 607 0026 00BF     		nop
 608              	@ 0 "" 2
 609              		.thumb
 610              		.syntax unified
 611              	.LBE101:
 612              	.LBE100:
 121:src/software_spi.c **** 
 613              		.loc 1 121 9 view .LVU147
 614              	.LBB102:
 615              	.LBI102:
 373:Drivers/CMSIS/Include/cmsis_gcc.h **** {
 616              		.loc 3 373 53 view .LVU148
 617              	.LBB103:
 618              		.loc 3 375 3 view .LVU149
 619              		.syntax unified
 620              	@ 375 "Drivers/CMSIS/Include/cmsis_gcc.h" 1
 621 0028 00BF     		nop
 622              	@ 0 "" 2
 623              		.thumb
 624              		.syntax unified
 625              	.LBE103:
 626              	.LBE102:
 121:src/software_spi.c **** 
 627              		.loc 1 121 18 discriminator 1 view .LVU150
 628              	.LBB104:
 629              	.LBI104:
 373:Drivers/CMSIS/Include/cmsis_gcc.h **** {
 630              		.loc 3 373 53 view .LVU151
 631              	.LBB105:
 632              		.loc 3 375 3 view .LVU152
 633              		.syntax unified
 634              	@ 375 "Drivers/CMSIS/Include/cmsis_gcc.h" 1
 635 002a 00BF     		nop
ARM GAS  /tmp/cc19albo.s 			page 22


 636              	@ 0 "" 2
 637              		.thumb
 638              		.syntax unified
 639              	.LBE105:
 640              	.LBE104:
 121:src/software_spi.c **** 
 641              		.loc 1 121 27 discriminator 2 view .LVU153
 642              	.LBB106:
 643              	.LBI106:
 373:Drivers/CMSIS/Include/cmsis_gcc.h **** {
 644              		.loc 3 373 53 view .LVU154
 645              	.LBB107:
 646              		.loc 3 375 3 view .LVU155
 647              		.syntax unified
 648              	@ 375 "Drivers/CMSIS/Include/cmsis_gcc.h" 1
 649 002c 00BF     		nop
 650              	@ 0 "" 2
 651              		.thumb
 652              		.syntax unified
 653              	.LBE107:
 654              	.LBE106:
 121:src/software_spi.c **** 
 655              		.loc 1 121 36 discriminator 3 view .LVU156
 656              	.LBB108:
 657              	.LBI108:
 373:Drivers/CMSIS/Include/cmsis_gcc.h **** {
 658              		.loc 3 373 53 view .LVU157
 659              	.LBB109:
 660              		.loc 3 375 3 view .LVU158
 661              		.syntax unified
 662              	@ 375 "Drivers/CMSIS/Include/cmsis_gcc.h" 1
 663 002e 00BF     		nop
 664              	@ 0 "" 2
 665              		.thumb
 666              		.syntax unified
 667              	.LBE109:
 668              	.LBE108:
 124:src/software_spi.c **** 
 669              		.loc 1 124 9 view .LVU159
 124:src/software_spi.c **** 
 670              		.loc 1 124 33 is_stmt 0 view .LVU160
 671 0030 0C61     		str	r4, [r1, #16]
 127:src/software_spi.c ****         __NOP(); __NOP(); __NOP(); __NOP();
 672              		.loc 1 127 9 is_stmt 1 view .LVU161
 673              	.LBB110:
 674              	.LBI110:
 373:Drivers/CMSIS/Include/cmsis_gcc.h **** {
 675              		.loc 3 373 53 view .LVU162
 676              	.LBB111:
 677              		.loc 3 375 3 view .LVU163
 678              		.syntax unified
 679              	@ 375 "Drivers/CMSIS/Include/cmsis_gcc.h" 1
 680 0032 00BF     		nop
 681              	@ 0 "" 2
 682              		.thumb
 683              		.syntax unified
 684              	.LBE111:
ARM GAS  /tmp/cc19albo.s 			page 23


 685              	.LBE110:
 127:src/software_spi.c ****         __NOP(); __NOP(); __NOP(); __NOP();
 686              		.loc 1 127 18 discriminator 1 view .LVU164
 687              	.LBB112:
 688              	.LBI112:
 373:Drivers/CMSIS/Include/cmsis_gcc.h **** {
 689              		.loc 3 373 53 view .LVU165
 690              	.LBB113:
 691              		.loc 3 375 3 view .LVU166
 692              		.syntax unified
 693              	@ 375 "Drivers/CMSIS/Include/cmsis_gcc.h" 1
 694 0034 00BF     		nop
 695              	@ 0 "" 2
 696              		.thumb
 697              		.syntax unified
 698              	.LBE113:
 699              	.LBE112:
 127:src/software_spi.c ****         __NOP(); __NOP(); __NOP(); __NOP();
 700              		.loc 1 127 27 discriminator 2 view .LVU167
 701              	.LBB114:
 702              	.LBI114:
 373:Drivers/CMSIS/Include/cmsis_gcc.h **** {
 703              		.loc 3 373 53 view .LVU168
 704              	.LBB115:
 705              		.loc 3 375 3 view .LVU169
 706              		.syntax unified
 707              	@ 375 "Drivers/CMSIS/Include/cmsis_gcc.h" 1
 708 0036 00BF     		nop
 709              	@ 0 "" 2
 710              		.thumb
 711              		.syntax unified
 712              	.LBE115:
 713              	.LBE114:
 127:src/software_spi.c ****         __NOP(); __NOP(); __NOP(); __NOP();
 714              		.loc 1 127 36 discriminator 3 view .LVU170
 715              	.LBB116:
 716              	.LBI116:
 373:Drivers/CMSIS/Include/cmsis_gcc.h **** {
 717              		.loc 3 373 53 view .LVU171
 718              	.LBB117:
 719              		.loc 3 375 3 view .LVU172
 720              		.syntax unified
 721              	@ 375 "Drivers/CMSIS/Include/cmsis_gcc.h" 1
 722 0038 00BF     		nop
 723              	@ 0 "" 2
 724              		.thumb
 725              		.syntax unified
 726              	.LBE117:
 727              	.LBE116:
 128:src/software_spi.c ****         __NOP(); __NOP(); __NOP(); __NOP();
 728              		.loc 1 128 9 view .LVU173
 729              	.LBB118:
 730              	.LBI118:
 373:Drivers/CMSIS/Include/cmsis_gcc.h **** {
 731              		.loc 3 373 53 view .LVU174
 732              	.LBB119:
 733              		.loc 3 375 3 view .LVU175
ARM GAS  /tmp/cc19albo.s 			page 24


 734              		.syntax unified
 735              	@ 375 "Drivers/CMSIS/Include/cmsis_gcc.h" 1
 736 003a 00BF     		nop
 737              	@ 0 "" 2
 738              		.thumb
 739              		.syntax unified
 740              	.LBE119:
 741              	.LBE118:
 128:src/software_spi.c ****         __NOP(); __NOP(); __NOP(); __NOP();
 742              		.loc 1 128 18 discriminator 1 view .LVU176
 743              	.LBB120:
 744              	.LBI120:
 373:Drivers/CMSIS/Include/cmsis_gcc.h **** {
 745              		.loc 3 373 53 view .LVU177
 746              	.LBB121:
 747              		.loc 3 375 3 view .LVU178
 748              		.syntax unified
 749              	@ 375 "Drivers/CMSIS/Include/cmsis_gcc.h" 1
 750 003c 00BF     		nop
 751              	@ 0 "" 2
 752              		.thumb
 753              		.syntax unified
 754              	.LBE121:
 755              	.LBE120:
 128:src/software_spi.c ****         __NOP(); __NOP(); __NOP(); __NOP();
 756              		.loc 1 128 27 discriminator 2 view .LVU179
 757              	.LBB122:
 758              	.LBI122:
 373:Drivers/CMSIS/Include/cmsis_gcc.h **** {
 759              		.loc 3 373 53 view .LVU180
 760              	.LBB123:
 761              		.loc 3 375 3 view .LVU181
 762              		.syntax unified
 763              	@ 375 "Drivers/CMSIS/Include/cmsis_gcc.h" 1
 764 003e 00BF     		nop
 765              	@ 0 "" 2
 766              		.thumb
 767              		.syntax unified
 768              	.LBE123:
 769              	.LBE122:
 128:src/software_spi.c ****         __NOP(); __NOP(); __NOP(); __NOP();
 770              		.loc 1 128 36 discriminator 3 view .LVU182
 771              	.LBB124:
 772              	.LBI124:
 373:Drivers/CMSIS/Include/cmsis_gcc.h **** {
 773              		.loc 3 373 53 view .LVU183
 774              	.LBB125:
 775              		.loc 3 375 3 view .LVU184
 776              		.syntax unified
 777              	@ 375 "Drivers/CMSIS/Include/cmsis_gcc.h" 1
 778 0040 00BF     		nop
 779              	@ 0 "" 2
 780              		.thumb
 781              		.syntax unified
 782              	.LBE125:
 783              	.LBE124:
 129:src/software_spi.c ****         __NOP(); __NOP(); __NOP(); __NOP();
ARM GAS  /tmp/cc19albo.s 			page 25


 784              		.loc 1 129 9 view .LVU185
 785              	.LBB126:
 786              	.LBI126:
 373:Drivers/CMSIS/Include/cmsis_gcc.h **** {
 787              		.loc 3 373 53 view .LVU186
 788              	.LBB127:
 789              		.loc 3 375 3 view .LVU187
 790              		.syntax unified
 791              	@ 375 "Drivers/CMSIS/Include/cmsis_gcc.h" 1
 792 0042 00BF     		nop
 793              	@ 0 "" 2
 794              		.thumb
 795              		.syntax unified
 796              	.LBE127:
 797              	.LBE126:
 129:src/software_spi.c ****         __NOP(); __NOP(); __NOP(); __NOP();
 798              		.loc 1 129 18 discriminator 1 view .LVU188
 799              	.LBB128:
 800              	.LBI128:
 373:Drivers/CMSIS/Include/cmsis_gcc.h **** {
 801              		.loc 3 373 53 view .LVU189
 802              	.LBB129:
 803              		.loc 3 375 3 view .LVU190
 804              		.syntax unified
 805              	@ 375 "Drivers/CMSIS/Include/cmsis_gcc.h" 1
 806 0044 00BF     		nop
 807              	@ 0 "" 2
 808              		.thumb
 809              		.syntax unified
 810              	.LBE129:
 811              	.LBE128:
 129:src/software_spi.c ****         __NOP(); __NOP(); __NOP(); __NOP();
 812              		.loc 1 129 27 discriminator 2 view .LVU191
 813              	.LBB130:
 814              	.LBI130:
 373:Drivers/CMSIS/Include/cmsis_gcc.h **** {
 815              		.loc 3 373 53 view .LVU192
 816              	.LBB131:
 817              		.loc 3 375 3 view .LVU193
 818              		.syntax unified
 819              	@ 375 "Drivers/CMSIS/Include/cmsis_gcc.h" 1
 820 0046 00BF     		nop
 821              	@ 0 "" 2
 822              		.thumb
 823              		.syntax unified
 824              	.LBE131:
 825              	.LBE130:
 129:src/software_spi.c ****         __NOP(); __NOP(); __NOP(); __NOP();
 826              		.loc 1 129 36 discriminator 3 view .LVU194
 827              	.LBB132:
 828              	.LBI132:
 373:Drivers/CMSIS/Include/cmsis_gcc.h **** {
 829              		.loc 3 373 53 view .LVU195
 830              	.LBB133:
 831              		.loc 3 375 3 view .LVU196
 832              		.syntax unified
 833              	@ 375 "Drivers/CMSIS/Include/cmsis_gcc.h" 1
ARM GAS  /tmp/cc19albo.s 			page 26


 834 0048 00BF     		nop
 835              	@ 0 "" 2
 836              		.thumb
 837              		.syntax unified
 838              	.LBE133:
 839              	.LBE132:
 130:src/software_spi.c **** 
 840              		.loc 1 130 9 view .LVU197
 841              	.LBB134:
 842              	.LBI134:
 373:Drivers/CMSIS/Include/cmsis_gcc.h **** {
 843              		.loc 3 373 53 view .LVU198
 844              	.LBB135:
 845              		.loc 3 375 3 view .LVU199
 846              		.syntax unified
 847              	@ 375 "Drivers/CMSIS/Include/cmsis_gcc.h" 1
 848 004a 00BF     		nop
 849              	@ 0 "" 2
 850              		.thumb
 851              		.syntax unified
 852              	.LBE135:
 853              	.LBE134:
 130:src/software_spi.c **** 
 854              		.loc 1 130 18 discriminator 1 view .LVU200
 855              	.LBB136:
 856              	.LBI136:
 373:Drivers/CMSIS/Include/cmsis_gcc.h **** {
 857              		.loc 3 373 53 view .LVU201
 858              	.LBB137:
 859              		.loc 3 375 3 view .LVU202
 860              		.syntax unified
 861              	@ 375 "Drivers/CMSIS/Include/cmsis_gcc.h" 1
 862 004c 00BF     		nop
 863              	@ 0 "" 2
 864              		.thumb
 865              		.syntax unified
 866              	.LBE137:
 867              	.LBE136:
 130:src/software_spi.c **** 
 868              		.loc 1 130 27 discriminator 2 view .LVU203
 869              	.LBB138:
 870              	.LBI138:
 373:Drivers/CMSIS/Include/cmsis_gcc.h **** {
 871              		.loc 3 373 53 view .LVU204
 872              	.LBB139:
 873              		.loc 3 375 3 view .LVU205
 874              		.syntax unified
 875              	@ 375 "Drivers/CMSIS/Include/cmsis_gcc.h" 1
 876 004e 00BF     		nop
 877              	@ 0 "" 2
 878              		.thumb
 879              		.syntax unified
 880              	.LBE139:
 881              	.LBE138:
 130:src/software_spi.c **** 
 882              		.loc 1 130 36 discriminator 3 view .LVU206
 883              	.LBB140:
ARM GAS  /tmp/cc19albo.s 			page 27


 884              	.LBI140:
 373:Drivers/CMSIS/Include/cmsis_gcc.h **** {
 885              		.loc 3 373 53 view .LVU207
 886              	.LBB141:
 887              		.loc 3 375 3 view .LVU208
 888              		.syntax unified
 889              	@ 375 "Drivers/CMSIS/Include/cmsis_gcc.h" 1
 890 0050 00BF     		nop
 891              	@ 0 "" 2
 892              		.thumb
 893              		.syntax unified
 894              	.LBE141:
 895              	.LBE140:
 133:src/software_spi.c ****             received |= (1 << i);
 896              		.loc 1 133 9 view .LVU209
 897              		.loc 1 134 13 view .LVU210
 133:src/software_spi.c ****             received |= (1 << i);
 898              		.loc 1 133 31 is_stmt 0 view .LVU211
 899 0052 AE68     		ldr	r6, [r5, #8]
 900              		.loc 1 134 28 view .LVU212
 901 0054 0EFA03FC 		lsl	ip, lr, r3
 133:src/software_spi.c ****             received |= (1 << i);
 902              		.loc 1 133 12 view .LVU213
 903 0058 7605     		lsls	r6, r6, #21
 904              		.loc 1 134 22 view .LVU214
 905 005a 44BF     		itt	mi
 906 005c 42EA0C02 		orrmi	r2, r2, ip
 907              	.LVL20:
 908              		.loc 1 134 22 view .LVU215
 909 0060 D2B2     		uxtbmi	r2, r2
 910              	.LVL21:
 135:src/software_spi.c ****         }
 136:src/software_spi.c **** 
 137:src/software_spi.c ****         // 6. FALLING EDGE - MCP2515 shifts out next bit
 138:src/software_spi.c ****         SOFT_SPI_SCK_PORT->BRR = SOFT_SPI_SCK_PIN;
 911              		.loc 1 138 9 is_stmt 1 view .LVU216
 912              		.loc 1 138 32 is_stmt 0 view .LVU217
 913 0062 4C61     		str	r4, [r1, #20]
 139:src/software_spi.c **** 
 140:src/software_spi.c ****         // 7. Wait for data valid (tV=45ns) + margin
 141:src/software_spi.c ****         __NOP(); __NOP(); __NOP(); __NOP();
 914              		.loc 1 141 9 is_stmt 1 view .LVU218
 915              	.LBB142:
 916              	.LBI142:
 373:Drivers/CMSIS/Include/cmsis_gcc.h **** {
 917              		.loc 3 373 53 view .LVU219
 918              	.LBB143:
 919              		.loc 3 375 3 view .LVU220
 920              		.syntax unified
 921              	@ 375 "Drivers/CMSIS/Include/cmsis_gcc.h" 1
 922 0064 00BF     		nop
 923              	@ 0 "" 2
 924              		.thumb
 925              		.syntax unified
 926              	.LBE143:
 927              	.LBE142:
 928              		.loc 1 141 18 discriminator 1 view .LVU221
ARM GAS  /tmp/cc19albo.s 			page 28


 929              	.LBB144:
 930              	.LBI144:
 373:Drivers/CMSIS/Include/cmsis_gcc.h **** {
 931              		.loc 3 373 53 view .LVU222
 932              	.LBB145:
 933              		.loc 3 375 3 view .LVU223
 934              		.syntax unified
 935              	@ 375 "Drivers/CMSIS/Include/cmsis_gcc.h" 1
 936 0066 00BF     		nop
 937              	@ 0 "" 2
 938              		.thumb
 939              		.syntax unified
 940              	.LBE145:
 941              	.LBE144:
 942              		.loc 1 141 27 discriminator 2 view .LVU224
 943              	.LBB146:
 944              	.LBI146:
 373:Drivers/CMSIS/Include/cmsis_gcc.h **** {
 945              		.loc 3 373 53 view .LVU225
 946              	.LBB147:
 947              		.loc 3 375 3 view .LVU226
 948              		.syntax unified
 949              	@ 375 "Drivers/CMSIS/Include/cmsis_gcc.h" 1
 950 0068 00BF     		nop
 951              	@ 0 "" 2
 952              		.thumb
 953              		.syntax unified
 954              	.LBE147:
 955              	.LBE146:
 956              		.loc 1 141 36 discriminator 3 view .LVU227
 957              	.LBB148:
 958              	.LBI148:
 373:Drivers/CMSIS/Include/cmsis_gcc.h **** {
 959              		.loc 3 373 53 view .LVU228
 960              	.LBB149:
 961              		.loc 3 375 3 view .LVU229
 962              		.syntax unified
 963              	@ 375 "Drivers/CMSIS/Include/cmsis_gcc.h" 1
 964 006a 00BF     		nop
 965              	@ 0 "" 2
 966              		.thumb
 967              		.syntax unified
 968              	.LBE149:
 969              	.LBE148:
 142:src/software_spi.c ****         __NOP(); __NOP(); __NOP(); __NOP();
 970              		.loc 1 142 9 view .LVU230
 971              	.LBB150:
 972              	.LBI150:
 373:Drivers/CMSIS/Include/cmsis_gcc.h **** {
 973              		.loc 3 373 53 view .LVU231
 974              	.LBB151:
 975              		.loc 3 375 3 view .LVU232
 976              		.syntax unified
 977              	@ 375 "Drivers/CMSIS/Include/cmsis_gcc.h" 1
 978 006c 00BF     		nop
 979              	@ 0 "" 2
 980              		.thumb
ARM GAS  /tmp/cc19albo.s 			page 29


 981              		.syntax unified
 982              	.LBE151:
 983              	.LBE150:
 984              		.loc 1 142 18 discriminator 1 view .LVU233
 985              	.LBB152:
 986              	.LBI152:
 373:Drivers/CMSIS/Include/cmsis_gcc.h **** {
 987              		.loc 3 373 53 view .LVU234
 988              	.LBB153:
 989              		.loc 3 375 3 view .LVU235
 990              		.syntax unified
 991              	@ 375 "Drivers/CMSIS/Include/cmsis_gcc.h" 1
 992 006e 00BF     		nop
 993              	@ 0 "" 2
 994              		.thumb
 995              		.syntax unified
 996              	.LBE153:
 997              	.LBE152:
 998              		.loc 1 142 27 discriminator 2 view .LVU236
 999              	.LBB154:
 1000              	.LBI154:
 373:Drivers/CMSIS/Include/cmsis_gcc.h **** {
 1001              		.loc 3 373 53 view .LVU237
 1002              	.LBB155:
 1003              		.loc 3 375 3 view .LVU238
 1004              		.syntax unified
 1005              	@ 375 "Drivers/CMSIS/Include/cmsis_gcc.h" 1
 1006 0070 00BF     		nop
 1007              	@ 0 "" 2
 1008              		.thumb
 1009              		.syntax unified
 1010              	.LBE155:
 1011              	.LBE154:
 1012              		.loc 1 142 36 discriminator 3 view .LVU239
 1013              	.LBB156:
 1014              	.LBI156:
 373:Drivers/CMSIS/Include/cmsis_gcc.h **** {
 1015              		.loc 3 373 53 view .LVU240
 1016              	.LBB157:
 1017              		.loc 3 375 3 view .LVU241
 1018              		.syntax unified
 1019              	@ 375 "Drivers/CMSIS/Include/cmsis_gcc.h" 1
 1020 0072 00BF     		nop
 1021              	@ 0 "" 2
 1022              		.thumb
 1023              		.syntax unified
 1024              	.LBE157:
 1025              	.LBE156:
 143:src/software_spi.c ****         __NOP(); __NOP(); __NOP(); __NOP();
 1026              		.loc 1 143 9 view .LVU242
 1027              	.LBB158:
 1028              	.LBI158:
 373:Drivers/CMSIS/Include/cmsis_gcc.h **** {
 1029              		.loc 3 373 53 view .LVU243
 1030              	.LBB159:
 1031              		.loc 3 375 3 view .LVU244
 1032              		.syntax unified
ARM GAS  /tmp/cc19albo.s 			page 30


 1033              	@ 375 "Drivers/CMSIS/Include/cmsis_gcc.h" 1
 1034 0074 00BF     		nop
 1035              	@ 0 "" 2
 1036              		.thumb
 1037              		.syntax unified
 1038              	.LBE159:
 1039              	.LBE158:
 1040              		.loc 1 143 18 discriminator 1 view .LVU245
 1041              	.LBB160:
 1042              	.LBI160:
 373:Drivers/CMSIS/Include/cmsis_gcc.h **** {
 1043              		.loc 3 373 53 view .LVU246
 1044              	.LBB161:
 1045              		.loc 3 375 3 view .LVU247
 1046              		.syntax unified
 1047              	@ 375 "Drivers/CMSIS/Include/cmsis_gcc.h" 1
 1048 0076 00BF     		nop
 1049              	@ 0 "" 2
 1050              		.thumb
 1051              		.syntax unified
 1052              	.LBE161:
 1053              	.LBE160:
 1054              		.loc 1 143 27 discriminator 2 view .LVU248
 1055              	.LBB162:
 1056              	.LBI162:
 373:Drivers/CMSIS/Include/cmsis_gcc.h **** {
 1057              		.loc 3 373 53 view .LVU249
 1058              	.LBB163:
 1059              		.loc 3 375 3 view .LVU250
 1060              		.syntax unified
 1061              	@ 375 "Drivers/CMSIS/Include/cmsis_gcc.h" 1
 1062 0078 00BF     		nop
 1063              	@ 0 "" 2
 1064              		.thumb
 1065              		.syntax unified
 1066              	.LBE163:
 1067              	.LBE162:
 1068              		.loc 1 143 36 discriminator 3 view .LVU251
 1069              	.LBB164:
 1070              	.LBI164:
 373:Drivers/CMSIS/Include/cmsis_gcc.h **** {
 1071              		.loc 3 373 53 view .LVU252
 1072              	.LBB165:
 1073              		.loc 3 375 3 view .LVU253
 1074              		.syntax unified
 1075              	@ 375 "Drivers/CMSIS/Include/cmsis_gcc.h" 1
 1076 007a 00BF     		nop
 1077              	@ 0 "" 2
 1078              		.thumb
 1079              		.syntax unified
 1080              	.LBE165:
 1081              	.LBE164:
 144:src/software_spi.c ****         __NOP(); __NOP(); __NOP(); __NOP();
 1082              		.loc 1 144 9 view .LVU254
 1083              	.LBB166:
 1084              	.LBI166:
 373:Drivers/CMSIS/Include/cmsis_gcc.h **** {
ARM GAS  /tmp/cc19albo.s 			page 31


 1085              		.loc 3 373 53 view .LVU255
 1086              	.LBB167:
 1087              		.loc 3 375 3 view .LVU256
 1088              		.syntax unified
 1089              	@ 375 "Drivers/CMSIS/Include/cmsis_gcc.h" 1
 1090 007c 00BF     		nop
 1091              	@ 0 "" 2
 1092              		.thumb
 1093              		.syntax unified
 1094              	.LBE167:
 1095              	.LBE166:
 1096              		.loc 1 144 18 discriminator 1 view .LVU257
 1097              	.LBB168:
 1098              	.LBI168:
 373:Drivers/CMSIS/Include/cmsis_gcc.h **** {
 1099              		.loc 3 373 53 view .LVU258
 1100              	.LBB169:
 1101              		.loc 3 375 3 view .LVU259
 1102              		.syntax unified
 1103              	@ 375 "Drivers/CMSIS/Include/cmsis_gcc.h" 1
 1104 007e 00BF     		nop
 1105              	@ 0 "" 2
 1106              		.thumb
 1107              		.syntax unified
 1108              	.LBE169:
 1109              	.LBE168:
 1110              		.loc 1 144 27 discriminator 2 view .LVU260
 1111              	.LBB170:
 1112              	.LBI170:
 373:Drivers/CMSIS/Include/cmsis_gcc.h **** {
 1113              		.loc 3 373 53 view .LVU261
 1114              	.LBB171:
 1115              		.loc 3 375 3 view .LVU262
 1116              		.syntax unified
 1117              	@ 375 "Drivers/CMSIS/Include/cmsis_gcc.h" 1
 1118 0080 00BF     		nop
 1119              	@ 0 "" 2
 1120              		.thumb
 1121              		.syntax unified
 1122              	.LBE171:
 1123              	.LBE170:
 1124              		.loc 1 144 36 discriminator 3 view .LVU263
 1125              	.LBB172:
 1126              	.LBI172:
 373:Drivers/CMSIS/Include/cmsis_gcc.h **** {
 1127              		.loc 3 373 53 view .LVU264
 1128              	.LBB173:
 1129              		.loc 3 375 3 view .LVU265
 1130              		.syntax unified
 1131              	@ 375 "Drivers/CMSIS/Include/cmsis_gcc.h" 1
 1132 0082 00BF     		nop
 1133              	@ 0 "" 2
 1134              		.thumb
 1135              		.syntax unified
 1136              	.LBE173:
 1137              	.LBE172:
 111:src/software_spi.c ****         // 1. Set MOSI bit
ARM GAS  /tmp/cc19albo.s 			page 32


 1138              		.loc 1 111 30 discriminator 2 view .LVU266
 111:src/software_spi.c ****         // 1. Set MOSI bit
 1139              		.loc 1 111 23 is_stmt 0 discriminator 1 view .LVU267
 1140 0084 013B     		subs	r3, r3, #1
 1141              	.LVL22:
 111:src/software_spi.c ****         // 1. Set MOSI bit
 1142              		.loc 1 111 23 discriminator 1 view .LVU268
 1143 0086 C5D2     		bcs	.L31
 1144              	.LBE175:
 145:src/software_spi.c ****     }
 146:src/software_spi.c **** 
 147:src/software_spi.c ****     return received;
 1145              		.loc 1 147 5 is_stmt 1 view .LVU269
 148:src/software_spi.c **** }
 1146              		.loc 1 148 1 is_stmt 0 view .LVU270
 1147 0088 1046     		mov	r0, r2
 1148              	.LVL23:
 1149              		.loc 1 148 1 view .LVU271
 1150 008a F0BD     		pop	{r4, r5, r6, r7, pc}
 1151              	.L39:
 1152              		.align	2
 1153              	.L38:
 1154 008c 000C0140 		.word	1073810432
 1155 0090 00080140 		.word	1073809408
 1156              		.cfi_endproc
 1157              	.LFE72:
 1159              		.section	.text.SoftSPI_TransferBuffer,"ax",%progbits
 1160              		.align	1
 1161              		.p2align 2,,3
 1162              		.global	SoftSPI_TransferBuffer
 1163              		.syntax unified
 1164              		.thumb
 1165              		.thumb_func
 1167              	SoftSPI_TransferBuffer:
 1168              	.LVL24:
 1169              	.LFB73:
 149:src/software_spi.c **** 
 150:src/software_spi.c **** void SoftSPI_TransferBuffer(uint8_t *txData, uint8_t *rxData, uint16_t length) {
 1170              		.loc 1 150 80 is_stmt 1 view -0
 1171              		.cfi_startproc
 1172              		@ args = 0, pretend = 0, frame = 0
 1173              		@ frame_needed = 0, uses_anonymous_args = 0
 1174              		.loc 1 150 80 is_stmt 0 view .LVU273
 1175 0000 F8B5     		push	{r3, r4, r5, r6, r7, lr}
 1176              	.LCFI11:
 1177              		.cfi_def_cfa_offset 24
 1178              		.cfi_offset 3, -24
 1179              		.cfi_offset 4, -20
 1180              		.cfi_offset 5, -16
 1181              		.cfi_offset 6, -12
 1182              		.cfi_offset 7, -8
 1183              		.cfi_offset 14, -4
 1184 0002 0746     		mov	r7, r0
 1185 0004 0E46     		mov	r6, r1
 1186 0006 1546     		mov	r5, r2
 151:src/software_spi.c ****     for (uint16_t i = 0; i < length; i++) {
 1187              		.loc 1 151 5 is_stmt 1 view .LVU274
ARM GAS  /tmp/cc19albo.s 			page 33


 1188              	.LBB176:
 1189              		.loc 1 151 10 view .LVU275
 1190              	.LVL25:
 1191              		.loc 1 151 19 is_stmt 0 view .LVU276
 1192 0008 0024     		movs	r4, #0
 1193              		.loc 1 151 5 view .LVU277
 1194 000a 05E0     		b	.L41
 1195              	.LVL26:
 1196              	.L42:
 152:src/software_spi.c ****         rxData[i] = SoftSPI_Transfer(txData[i]);
 1197              		.loc 1 152 9 is_stmt 1 view .LVU278
 1198              		.loc 1 152 21 is_stmt 0 view .LVU279
 1199 000c 385D     		ldrb	r0, [r7, r4]	@ zero_extendqisi2
 1200 000e FFF7FEFF 		bl	SoftSPI_Transfer
 1201              	.LVL27:
 1202              		.loc 1 152 19 discriminator 1 view .LVU280
 1203 0012 3055     		strb	r0, [r6, r4]
 151:src/software_spi.c ****     for (uint16_t i = 0; i < length; i++) {
 1204              		.loc 1 151 39 is_stmt 1 discriminator 3 view .LVU281
 1205 0014 0134     		adds	r4, r4, #1
 1206              	.LVL28:
 151:src/software_spi.c ****     for (uint16_t i = 0; i < length; i++) {
 1207              		.loc 1 151 39 is_stmt 0 discriminator 3 view .LVU282
 1208 0016 A4B2     		uxth	r4, r4
 1209              	.LVL29:
 1210              	.L41:
 151:src/software_spi.c ****     for (uint16_t i = 0; i < length; i++) {
 1211              		.loc 1 151 28 is_stmt 1 discriminator 1 view .LVU283
 1212 0018 AC42     		cmp	r4, r5
 1213 001a F7D3     		bcc	.L42
 1214              	.LBE176:
 153:src/software_spi.c ****     }
 154:src/software_spi.c **** }
 1215              		.loc 1 154 1 is_stmt 0 view .LVU284
 1216 001c F8BD     		pop	{r3, r4, r5, r6, r7, pc}
 1217              		.loc 1 154 1 view .LVU285
 1218              		.cfi_endproc
 1219              	.LFE73:
 1221 001e 00BF     		.section	.bss.spi_mode,"aw",%nobits
 1224              	spi_mode:
 1225 0000 00       		.space	1
 1226              		.text
 1227              	.Letext0:
 1228              		.file 4 "/usr/lib/gcc/arm-none-eabi/13.2.1/include/stdint.h"
 1229              		.file 5 "Drivers/CMSIS/Device/ST/STM32F1xx/Include/stm32f103xe.h"
 1230              		.file 6 "Drivers/STM32F1xx_HAL_Driver/Inc/stm32f1xx_hal_gpio.h"
ARM GAS  /tmp/cc19albo.s 			page 34

