ARM GAS  /tmp/ccviF6EF.s 			page 1


   1              		.cpu cortex-m3
   2              		.arch armv7-m
   3              		.fpu softvfp
   4              		.eabi_attribute 20, 1
   5              		.eabi_attribute 21, 1
   6              		.eabi_attribute 23, 3
   7              		.eabi_attribute 24, 1
   8              		.eabi_attribute 25, 1
   9              		.eabi_attribute 26, 1
  10              		.eabi_attribute 30, 1
  11              		.eabi_attribute 34, 1
  12              		.eabi_attribute 18, 4
  13              		.file	"stm32f1xx_it.c"
  14              		.text
  15              	.Ltext0:
  16              		.cfi_sections	.debug_frame
  17              		.file 1 "src/stm32f1xx_it.c"
  18              		.section	.text.NMI_Handler,"ax",%progbits
  19              		.align	1
  20              		.global	NMI_Handler
  21              		.syntax unified
  22              		.thumb
  23              		.thumb_func
  25              	NMI_Handler:
  26              	.LFB66:
   1:src/stm32f1xx_it.c **** /**
   2:src/stm32f1xx_it.c ****   ******************************************************************************
   3:src/stm32f1xx_it.c ****   * @file    stm32f1xx_it.c
   4:src/stm32f1xx_it.c ****   * @brief   Interrupt Service Routines.
   5:src/stm32f1xx_it.c ****   ******************************************************************************
   6:src/stm32f1xx_it.c ****   *
   7:src/stm32f1xx_it.c ****   * COPYRIGHT(c) 2017 STMicroelectronics
   8:src/stm32f1xx_it.c ****   *
   9:src/stm32f1xx_it.c ****   * Redistribution and use in source and binary forms, with or without modification,
  10:src/stm32f1xx_it.c ****   * are permitted provided that the following conditions are met:
  11:src/stm32f1xx_it.c ****   *   1. Redistributions of source code must retain the above copyright notice,
  12:src/stm32f1xx_it.c ****   *      this list of conditions and the following disclaimer.
  13:src/stm32f1xx_it.c ****   *   2. Redistributions in binary form must reproduce the above copyright notice,
  14:src/stm32f1xx_it.c ****   *      this list of conditions and the following disclaimer in the documentation
  15:src/stm32f1xx_it.c ****   *      and/or other materials provided with the distribution.
  16:src/stm32f1xx_it.c ****   *   3. Neither the name of STMicroelectronics nor the names of its contributors
  17:src/stm32f1xx_it.c ****   *      may be used to endorse or promote products derived from this software
  18:src/stm32f1xx_it.c ****   *      without specific prior written permission.
  19:src/stm32f1xx_it.c ****   *
  20:src/stm32f1xx_it.c ****   * THIS SOFTWARE IS PROVIDED BY THE COPYRIGHT HOLDERS AND CONTRIBUTORS "AS IS"
  21:src/stm32f1xx_it.c ****   * AND ANY EXPRESS OR IMPLIED WARRANTIES, INCLUDING, BUT NOT LIMITED TO, THE
  22:src/stm32f1xx_it.c ****   * IMPLIED WARRANTIES OF MERCHANTABILITY AND FITNESS FOR A PARTICULAR PURPOSE ARE
  23:src/stm32f1xx_it.c ****   * DISCLAIMED. IN NO EVENT SHALL THE COPYRIGHT HOLDER OR CONTRIBUTORS BE LIABLE
  24:src/stm32f1xx_it.c ****   * FOR ANY DIRECT, INDIRECT, INCIDENTAL, SPECIAL, EXEMPLARY, OR CONSEQUENTIAL
  25:src/stm32f1xx_it.c ****   * DAMAGES (INCLUDING, BUT NOT LIMITED TO, PROCUREMENT OF SUBSTITUTE GOODS OR
  26:src/stm32f1xx_it.c ****   * SERVICES; LOSS OF USE, DATA, OR PROFITS; OR BUSINESS INTERRUPTION) HOWEVER
  27:src/stm32f1xx_it.c ****   * CAUSED AND ON ANY THEORY OF LIABILITY, WHETHER IN CONTRACT, STRICT LIABILITY,
  28:src/stm32f1xx_it.c ****   * OR TORT (INCLUDING NEGLIGENCE OR OTHERWISE) ARISING IN ANY WAY OUT OF THE USE
  29:src/stm32f1xx_it.c ****   * OF THIS SOFTWARE, EVEN IF ADVISED OF THE POSSIBILITY OF SUCH DAMAGE.
  30:src/stm32f1xx_it.c ****   *
  31:src/stm32f1xx_it.c ****   ******************************************************************************
  32:src/stm32f1xx_it.c ****   */
ARM GAS  /tmp/ccviF6EF.s 			page 2


  33:src/stm32f1xx_it.c **** /* Includes ------------------------------------------------------------------*/
  34:src/stm32f1xx_it.c **** #include "stm32f1xx_hal.h"
  35:src/stm32f1xx_it.c **** #include "stm32f1xx.h"
  36:src/stm32f1xx_it.c **** #include "stm32f1xx_it.h"
  37:src/stm32f1xx_it.c **** #include "config.h"
  38:src/stm32f1xx_it.c **** #include "hallinterrupts.h"
  39:src/stm32f1xx_it.c **** #include "softwareserial.h"
  40:src/stm32f1xx_it.c **** 
  41:src/stm32f1xx_it.c **** 
  42:src/stm32f1xx_it.c **** extern DMA_HandleTypeDef hdma_i2c2_rx;
  43:src/stm32f1xx_it.c **** extern DMA_HandleTypeDef hdma_i2c2_tx;
  44:src/stm32f1xx_it.c **** extern I2C_HandleTypeDef hi2c2;
  45:src/stm32f1xx_it.c **** 
  46:src/stm32f1xx_it.c **** extern DMA_HandleTypeDef hdma_usart2_rx;
  47:src/stm32f1xx_it.c **** extern DMA_HandleTypeDef hdma_usart2_tx;
  48:src/stm32f1xx_it.c **** 
  49:src/stm32f1xx_it.c **** /* USER CODE BEGIN 0 */
  50:src/stm32f1xx_it.c **** 
  51:src/stm32f1xx_it.c **** /* USER CODE END 0 */
  52:src/stm32f1xx_it.c **** 
  53:src/stm32f1xx_it.c **** /* External variables --------------------------------------------------------*/
  54:src/stm32f1xx_it.c **** 
  55:src/stm32f1xx_it.c **** 
  56:src/stm32f1xx_it.c **** /******************************************************************************/
  57:src/stm32f1xx_it.c **** /*            Cortex-M3 Processor Interruption and Exception Handlers         */
  58:src/stm32f1xx_it.c **** /******************************************************************************/
  59:src/stm32f1xx_it.c **** 
  60:src/stm32f1xx_it.c **** /**
  61:src/stm32f1xx_it.c **** * @brief This function handles Non maskable interrupt.
  62:src/stm32f1xx_it.c **** */
  63:src/stm32f1xx_it.c **** void NMI_Handler(void) {
  27              		.loc 1 63 24 view -0
  28              		.cfi_startproc
  29              		@ args = 0, pretend = 0, frame = 0
  30              		@ frame_needed = 0, uses_anonymous_args = 0
  31              		@ link register save eliminated.
  64:src/stm32f1xx_it.c ****   /* USER CODE BEGIN NonMaskableInt_IRQn 0 */
  65:src/stm32f1xx_it.c **** 
  66:src/stm32f1xx_it.c ****   /* USER CODE END NonMaskableInt_IRQn 0 */
  67:src/stm32f1xx_it.c ****   /* USER CODE BEGIN NonMaskableInt_IRQn 1 */
  68:src/stm32f1xx_it.c **** 
  69:src/stm32f1xx_it.c ****   /* USER CODE END NonMaskableInt_IRQn 1 */
  70:src/stm32f1xx_it.c **** }
  32              		.loc 1 70 1 view .LVU1
  33 0000 7047     		bx	lr
  34              		.cfi_endproc
  35              	.LFE66:
  37              		.section	.text.HardFault_Handler,"ax",%progbits
  38              		.align	1
  39              		.global	HardFault_Handler
  40              		.syntax unified
  41              		.thumb
  42              		.thumb_func
  44              	HardFault_Handler:
  45              	.LFB67:
  71:src/stm32f1xx_it.c **** 
  72:src/stm32f1xx_it.c **** /**
ARM GAS  /tmp/ccviF6EF.s 			page 3


  73:src/stm32f1xx_it.c **** * @brief This function handles Hard fault interrupt.
  74:src/stm32f1xx_it.c **** */
  75:src/stm32f1xx_it.c **** void HardFault_Handler(void) {
  46              		.loc 1 75 30 view -0
  47              		.cfi_startproc
  48              		@ Volatile: function does not return.
  49              		@ args = 0, pretend = 0, frame = 0
  50              		@ frame_needed = 0, uses_anonymous_args = 0
  51              		@ link register save eliminated.
  52              	.L3:
  76:src/stm32f1xx_it.c ****   /* USER CODE BEGIN HardFault_IRQn 0 */
  77:src/stm32f1xx_it.c **** 
  78:src/stm32f1xx_it.c ****   /* USER CODE END HardFault_IRQn 0 */
  79:src/stm32f1xx_it.c ****   while(1) {
  53              		.loc 1 79 3 view .LVU3
  80:src/stm32f1xx_it.c ****   }
  54              		.loc 1 80 3 view .LVU4
  79:src/stm32f1xx_it.c ****   }
  55              		.loc 1 79 8 view .LVU5
  56 0000 FEE7     		b	.L3
  57              		.cfi_endproc
  58              	.LFE67:
  60              		.section	.text.MemManage_Handler,"ax",%progbits
  61              		.align	1
  62              		.global	MemManage_Handler
  63              		.syntax unified
  64              		.thumb
  65              		.thumb_func
  67              	MemManage_Handler:
  68              	.LFB68:
  81:src/stm32f1xx_it.c ****   /* USER CODE BEGIN HardFault_IRQn 1 */
  82:src/stm32f1xx_it.c **** 
  83:src/stm32f1xx_it.c ****   /* USER CODE END HardFault_IRQn 1 */
  84:src/stm32f1xx_it.c **** }
  85:src/stm32f1xx_it.c **** 
  86:src/stm32f1xx_it.c **** /**
  87:src/stm32f1xx_it.c **** * @brief This function handles Memory management fault.
  88:src/stm32f1xx_it.c **** */
  89:src/stm32f1xx_it.c **** void MemManage_Handler(void) {
  69              		.loc 1 89 30 view -0
  70              		.cfi_startproc
  71              		@ Volatile: function does not return.
  72              		@ args = 0, pretend = 0, frame = 0
  73              		@ frame_needed = 0, uses_anonymous_args = 0
  74              		@ link register save eliminated.
  75              	.L5:
  90:src/stm32f1xx_it.c ****   /* USER CODE BEGIN MemoryManagement_IRQn 0 */
  91:src/stm32f1xx_it.c **** 
  92:src/stm32f1xx_it.c ****   /* USER CODE END MemoryManagement_IRQn 0 */
  93:src/stm32f1xx_it.c ****   while(1) {
  76              		.loc 1 93 3 view .LVU7
  94:src/stm32f1xx_it.c ****   }
  77              		.loc 1 94 3 view .LVU8
  93:src/stm32f1xx_it.c ****   }
  78              		.loc 1 93 8 view .LVU9
  79 0000 FEE7     		b	.L5
  80              		.cfi_endproc
ARM GAS  /tmp/ccviF6EF.s 			page 4


  81              	.LFE68:
  83              		.section	.text.BusFault_Handler,"ax",%progbits
  84              		.align	1
  85              		.global	BusFault_Handler
  86              		.syntax unified
  87              		.thumb
  88              		.thumb_func
  90              	BusFault_Handler:
  91              	.LFB69:
  95:src/stm32f1xx_it.c ****   /* USER CODE BEGIN MemoryManagement_IRQn 1 */
  96:src/stm32f1xx_it.c **** 
  97:src/stm32f1xx_it.c ****   /* USER CODE END MemoryManagement_IRQn 1 */
  98:src/stm32f1xx_it.c **** }
  99:src/stm32f1xx_it.c **** 
 100:src/stm32f1xx_it.c **** /**
 101:src/stm32f1xx_it.c **** * @brief This function handles Prefetch fault, memory access fault.
 102:src/stm32f1xx_it.c **** */
 103:src/stm32f1xx_it.c **** void BusFault_Handler(void) {
  92              		.loc 1 103 29 view -0
  93              		.cfi_startproc
  94              		@ Volatile: function does not return.
  95              		@ args = 0, pretend = 0, frame = 0
  96              		@ frame_needed = 0, uses_anonymous_args = 0
  97              		@ link register save eliminated.
  98              	.L7:
 104:src/stm32f1xx_it.c ****   /* USER CODE BEGIN BusFault_IRQn 0 */
 105:src/stm32f1xx_it.c **** 
 106:src/stm32f1xx_it.c ****   /* USER CODE END BusFault_IRQn 0 */
 107:src/stm32f1xx_it.c ****   while(1) {
  99              		.loc 1 107 3 view .LVU11
 108:src/stm32f1xx_it.c ****   }
 100              		.loc 1 108 3 view .LVU12
 107:src/stm32f1xx_it.c ****   }
 101              		.loc 1 107 8 view .LVU13
 102 0000 FEE7     		b	.L7
 103              		.cfi_endproc
 104              	.LFE69:
 106              		.section	.text.UsageFault_Handler,"ax",%progbits
 107              		.align	1
 108              		.global	UsageFault_Handler
 109              		.syntax unified
 110              		.thumb
 111              		.thumb_func
 113              	UsageFault_Handler:
 114              	.LFB70:
 109:src/stm32f1xx_it.c ****   /* USER CODE BEGIN BusFault_IRQn 1 */
 110:src/stm32f1xx_it.c **** 
 111:src/stm32f1xx_it.c ****   /* USER CODE END BusFault_IRQn 1 */
 112:src/stm32f1xx_it.c **** }
 113:src/stm32f1xx_it.c **** 
 114:src/stm32f1xx_it.c **** /**
 115:src/stm32f1xx_it.c **** * @brief This function handles Undefined instruction or illegal state.
 116:src/stm32f1xx_it.c **** */
 117:src/stm32f1xx_it.c **** void UsageFault_Handler(void) {
 115              		.loc 1 117 31 view -0
 116              		.cfi_startproc
 117              		@ Volatile: function does not return.
ARM GAS  /tmp/ccviF6EF.s 			page 5


 118              		@ args = 0, pretend = 0, frame = 0
 119              		@ frame_needed = 0, uses_anonymous_args = 0
 120              		@ link register save eliminated.
 121              	.L9:
 118:src/stm32f1xx_it.c ****   /* USER CODE BEGIN UsageFault_IRQn 0 */
 119:src/stm32f1xx_it.c **** 
 120:src/stm32f1xx_it.c ****   /* USER CODE END UsageFault_IRQn 0 */
 121:src/stm32f1xx_it.c ****   while(1) {
 122              		.loc 1 121 3 view .LVU15
 122:src/stm32f1xx_it.c ****   }
 123              		.loc 1 122 3 view .LVU16
 121:src/stm32f1xx_it.c ****   }
 124              		.loc 1 121 8 view .LVU17
 125 0000 FEE7     		b	.L9
 126              		.cfi_endproc
 127              	.LFE70:
 129              		.section	.text.SVC_Handler,"ax",%progbits
 130              		.align	1
 131              		.global	SVC_Handler
 132              		.syntax unified
 133              		.thumb
 134              		.thumb_func
 136              	SVC_Handler:
 137              	.LFB71:
 123:src/stm32f1xx_it.c ****   /* USER CODE BEGIN UsageFault_IRQn 1 */
 124:src/stm32f1xx_it.c **** 
 125:src/stm32f1xx_it.c ****   /* USER CODE END UsageFault_IRQn 1 */
 126:src/stm32f1xx_it.c **** }
 127:src/stm32f1xx_it.c **** 
 128:src/stm32f1xx_it.c **** /**
 129:src/stm32f1xx_it.c **** * @brief This function handles System service call via SWI instruction.
 130:src/stm32f1xx_it.c **** */
 131:src/stm32f1xx_it.c **** void SVC_Handler(void) {
 138              		.loc 1 131 24 view -0
 139              		.cfi_startproc
 140              		@ args = 0, pretend = 0, frame = 0
 141              		@ frame_needed = 0, uses_anonymous_args = 0
 142              		@ link register save eliminated.
 132:src/stm32f1xx_it.c ****   /* USER CODE BEGIN SVCall_IRQn 0 */
 133:src/stm32f1xx_it.c **** 
 134:src/stm32f1xx_it.c ****   /* USER CODE END SVCall_IRQn 0 */
 135:src/stm32f1xx_it.c ****   /* USER CODE BEGIN SVCall_IRQn 1 */
 136:src/stm32f1xx_it.c **** 
 137:src/stm32f1xx_it.c ****   /* USER CODE END SVCall_IRQn 1 */
 138:src/stm32f1xx_it.c **** }
 143              		.loc 1 138 1 view .LVU19
 144 0000 7047     		bx	lr
 145              		.cfi_endproc
 146              	.LFE71:
 148              		.section	.text.DebugMon_Handler,"ax",%progbits
 149              		.align	1
 150              		.global	DebugMon_Handler
 151              		.syntax unified
 152              		.thumb
 153              		.thumb_func
 155              	DebugMon_Handler:
 156              	.LFB72:
ARM GAS  /tmp/ccviF6EF.s 			page 6


 139:src/stm32f1xx_it.c **** 
 140:src/stm32f1xx_it.c **** /**
 141:src/stm32f1xx_it.c **** * @brief This function handles Debug monitor.
 142:src/stm32f1xx_it.c **** */
 143:src/stm32f1xx_it.c **** void DebugMon_Handler(void) {
 157              		.loc 1 143 29 view -0
 158              		.cfi_startproc
 159              		@ args = 0, pretend = 0, frame = 0
 160              		@ frame_needed = 0, uses_anonymous_args = 0
 161              		@ link register save eliminated.
 144:src/stm32f1xx_it.c ****   /* USER CODE BEGIN DebugMonitor_IRQn 0 */
 145:src/stm32f1xx_it.c **** 
 146:src/stm32f1xx_it.c ****   /* USER CODE END DebugMonitor_IRQn 0 */
 147:src/stm32f1xx_it.c ****   /* USER CODE BEGIN DebugMonitor_IRQn 1 */
 148:src/stm32f1xx_it.c **** 
 149:src/stm32f1xx_it.c ****   /* USER CODE END DebugMonitor_IRQn 1 */
 150:src/stm32f1xx_it.c **** }
 162              		.loc 1 150 1 view .LVU21
 163 0000 7047     		bx	lr
 164              		.cfi_endproc
 165              	.LFE72:
 167              		.section	.text.PendSV_Handler,"ax",%progbits
 168              		.align	1
 169              		.global	PendSV_Handler
 170              		.syntax unified
 171              		.thumb
 172              		.thumb_func
 174              	PendSV_Handler:
 175              	.LFB73:
 151:src/stm32f1xx_it.c **** 
 152:src/stm32f1xx_it.c **** /**
 153:src/stm32f1xx_it.c **** * @brief This function handles Pendable request for system service.
 154:src/stm32f1xx_it.c **** */
 155:src/stm32f1xx_it.c **** void PendSV_Handler(void) {
 176              		.loc 1 155 27 view -0
 177              		.cfi_startproc
 178              		@ args = 0, pretend = 0, frame = 0
 179              		@ frame_needed = 0, uses_anonymous_args = 0
 180              		@ link register save eliminated.
 156:src/stm32f1xx_it.c ****   /* USER CODE BEGIN PendSV_IRQn 0 */
 157:src/stm32f1xx_it.c **** 
 158:src/stm32f1xx_it.c ****   /* USER CODE END PendSV_IRQn 0 */
 159:src/stm32f1xx_it.c ****   /* USER CODE BEGIN PendSV_IRQn 1 */
 160:src/stm32f1xx_it.c **** 
 161:src/stm32f1xx_it.c ****   /* USER CODE END PendSV_IRQn 1 */
 162:src/stm32f1xx_it.c **** }
 181              		.loc 1 162 1 view .LVU23
 182 0000 7047     		bx	lr
 183              		.cfi_endproc
 184              	.LFE73:
 186              		.section	.text.SysTick_Handler,"ax",%progbits
 187              		.align	1
 188              		.global	SysTick_Handler
 189              		.syntax unified
 190              		.thumb
 191              		.thumb_func
 193              	SysTick_Handler:
ARM GAS  /tmp/ccviF6EF.s 			page 7


 194              	.LFB74:
 163:src/stm32f1xx_it.c **** 
 164:src/stm32f1xx_it.c **** /**
 165:src/stm32f1xx_it.c **** * @brief This function handles System tick timer.
 166:src/stm32f1xx_it.c **** */
 167:src/stm32f1xx_it.c **** #ifdef CONTROL_PPM
 168:src/stm32f1xx_it.c **** void PPM_SysTick_Callback(void);
 169:src/stm32f1xx_it.c **** #endif
 170:src/stm32f1xx_it.c **** void SysTick_Handler(void) {
 195              		.loc 1 170 28 view -0
 196              		.cfi_startproc
 197              		@ args = 0, pretend = 0, frame = 0
 198              		@ frame_needed = 0, uses_anonymous_args = 0
 199 0000 08B5     		push	{r3, lr}
 200              	.LCFI0:
 201              		.cfi_def_cfa_offset 8
 202              		.cfi_offset 3, -8
 203              		.cfi_offset 14, -4
 171:src/stm32f1xx_it.c ****   /* USER CODE BEGIN SysTick_IRQn 0 */
 172:src/stm32f1xx_it.c **** 
 173:src/stm32f1xx_it.c ****   /* USER CODE END SysTick_IRQn 0 */
 174:src/stm32f1xx_it.c ****   HAL_IncTick();
 204              		.loc 1 174 3 view .LVU25
 205 0002 FFF7FEFF 		bl	HAL_IncTick
 206              	.LVL0:
 175:src/stm32f1xx_it.c ****   HAL_SYSTICK_IRQHandler();
 207              		.loc 1 175 3 view .LVU26
 208 0006 FFF7FEFF 		bl	HAL_SYSTICK_IRQHandler
 209              	.LVL1:
 176:src/stm32f1xx_it.c ****   /* USER CODE BEGIN SysTick_IRQn 1 */
 177:src/stm32f1xx_it.c **** #ifdef CONTROL_PPM
 178:src/stm32f1xx_it.c ****   PPM_SysTick_Callback();
 179:src/stm32f1xx_it.c **** #endif
 180:src/stm32f1xx_it.c ****   /* USER CODE END SysTick_IRQn 1 */
 181:src/stm32f1xx_it.c **** }
 210              		.loc 1 181 1 is_stmt 0 view .LVU27
 211 000a 08BD     		pop	{r3, pc}
 212              		.cfi_endproc
 213              	.LFE74:
 215              		.section	.text.EXTI0_IRQHandler,"ax",%progbits
 216              		.align	1
 217              		.global	EXTI0_IRQHandler
 218              		.syntax unified
 219              		.thumb
 220              		.thumb_func
 222              	EXTI0_IRQHandler:
 223              	.LFB75:
 182:src/stm32f1xx_it.c **** 
 183:src/stm32f1xx_it.c **** #ifdef CONTROL_NUNCHUCK
 184:src/stm32f1xx_it.c **** extern I2C_HandleTypeDef hi2c2;
 185:src/stm32f1xx_it.c **** void I2C1_EV_IRQHandler(void)
 186:src/stm32f1xx_it.c **** {
 187:src/stm32f1xx_it.c ****   HAL_I2C_EV_IRQHandler(&hi2c2);
 188:src/stm32f1xx_it.c **** }
 189:src/stm32f1xx_it.c **** 
 190:src/stm32f1xx_it.c **** void I2C1_ER_IRQHandler(void)
 191:src/stm32f1xx_it.c **** {
ARM GAS  /tmp/ccviF6EF.s 			page 8


 192:src/stm32f1xx_it.c ****   HAL_I2C_ER_IRQHandler(&hi2c2);
 193:src/stm32f1xx_it.c **** }
 194:src/stm32f1xx_it.c **** 
 195:src/stm32f1xx_it.c **** /**
 196:src/stm32f1xx_it.c **** * @brief This function handles DMA1 channel4 global interrupt.
 197:src/stm32f1xx_it.c **** */
 198:src/stm32f1xx_it.c **** void DMA1_Channel4_IRQHandler(void)
 199:src/stm32f1xx_it.c **** {
 200:src/stm32f1xx_it.c ****   /* USER CODE BEGIN DMA1_Channel4_IRQn 0 */
 201:src/stm32f1xx_it.c **** 
 202:src/stm32f1xx_it.c ****   /* USER CODE END DMA1_Channel4_IRQn 0 */
 203:src/stm32f1xx_it.c ****   HAL_DMA_IRQHandler(&hdma_i2c2_tx);
 204:src/stm32f1xx_it.c ****   /* USER CODE BEGIN DMA1_Channel4_IRQn 1 */
 205:src/stm32f1xx_it.c **** 
 206:src/stm32f1xx_it.c ****   /* USER CODE END DMA1_Channel4_IRQn 1 */
 207:src/stm32f1xx_it.c **** }
 208:src/stm32f1xx_it.c **** 
 209:src/stm32f1xx_it.c **** /**
 210:src/stm32f1xx_it.c **** * @brief This function handles DMA1 channel5 global interrupt.
 211:src/stm32f1xx_it.c **** */
 212:src/stm32f1xx_it.c **** void DMA1_Channel5_IRQHandler(void)
 213:src/stm32f1xx_it.c **** {
 214:src/stm32f1xx_it.c ****   /* USER CODE BEGIN DMA1_Channel5_IRQn 0 */
 215:src/stm32f1xx_it.c **** 
 216:src/stm32f1xx_it.c ****   /* USER CODE END DMA1_Channel5_IRQn 0 */
 217:src/stm32f1xx_it.c ****   HAL_DMA_IRQHandler(&hdma_i2c2_rx);
 218:src/stm32f1xx_it.c ****   /* USER CODE BEGIN DMA1_Channel5_IRQn 1 */
 219:src/stm32f1xx_it.c **** 
 220:src/stm32f1xx_it.c ****   /* USER CODE END DMA1_Channel5_IRQn 1 */
 221:src/stm32f1xx_it.c **** }
 222:src/stm32f1xx_it.c **** #endif
 223:src/stm32f1xx_it.c **** 
 224:src/stm32f1xx_it.c **** 
 225:src/stm32f1xx_it.c **** 
 226:src/stm32f1xx_it.c **** /////////////////////////////////////////
 227:src/stm32f1xx_it.c **** // EXTI interrupts - used for HallInterrupt, Softwarewareserial, and PWM
 228:src/stm32f1xx_it.c **** 
 229:src/stm32f1xx_it.c **** void EXTI0_IRQHandler(void)
 230:src/stm32f1xx_it.c **** {
 224              		.loc 1 230 1 is_stmt 1 view -0
 225              		.cfi_startproc
 226              		@ args = 0, pretend = 0, frame = 0
 227              		@ frame_needed = 0, uses_anonymous_args = 0
 228              		@ link register save eliminated.
 231:src/stm32f1xx_it.c ****     __HAL_GPIO_EXTI_CLEAR_IT(GPIO_PIN_0);
 229              		.loc 1 231 5 view .LVU29
 230 0000 014B     		ldr	r3, .L16
 231 0002 0122     		movs	r2, #1
 232 0004 5A61     		str	r2, [r3, #20]
 232:src/stm32f1xx_it.c **** #ifdef SOFTWARE_SERIAL
 233:src/stm32f1xx_it.c ****     if (SOFTWARE_SERIAL_RX_PIN == GPIO_PIN_0)
 233              		.loc 1 233 5 view .LVU30
 234:src/stm32f1xx_it.c ****       softwareserialRXInterrupt();
 235:src/stm32f1xx_it.c **** #endif
 236:src/stm32f1xx_it.c **** }
 234              		.loc 1 236 1 is_stmt 0 view .LVU31
 235 0006 7047     		bx	lr
ARM GAS  /tmp/ccviF6EF.s 			page 9


 236              	.L17:
 237              		.align	2
 238              	.L16:
 239 0008 00040140 		.word	1073808384
 240              		.cfi_endproc
 241              	.LFE75:
 243              		.section	.text.EXTI1_IRQHandler,"ax",%progbits
 244              		.align	1
 245              		.global	EXTI1_IRQHandler
 246              		.syntax unified
 247              		.thumb
 248              		.thumb_func
 250              	EXTI1_IRQHandler:
 251              	.LFB76:
 237:src/stm32f1xx_it.c **** 
 238:src/stm32f1xx_it.c **** void EXTI1_IRQHandler(void)
 239:src/stm32f1xx_it.c **** {
 252              		.loc 1 239 1 is_stmt 1 view -0
 253              		.cfi_startproc
 254              		@ args = 0, pretend = 0, frame = 0
 255              		@ frame_needed = 0, uses_anonymous_args = 0
 256              		@ link register save eliminated.
 240:src/stm32f1xx_it.c ****     __HAL_GPIO_EXTI_CLEAR_IT(GPIO_PIN_1);
 257              		.loc 1 240 5 view .LVU33
 258 0000 014B     		ldr	r3, .L19
 259 0002 0222     		movs	r2, #2
 260 0004 5A61     		str	r2, [r3, #20]
 241:src/stm32f1xx_it.c **** #ifdef SOFTWARE_SERIAL
 242:src/stm32f1xx_it.c ****     if (SOFTWARE_SERIAL_RX_PIN == GPIO_PIN_1)
 261              		.loc 1 242 5 view .LVU34
 243:src/stm32f1xx_it.c ****       softwareserialRXInterrupt();
 244:src/stm32f1xx_it.c **** #endif
 245:src/stm32f1xx_it.c **** }
 262              		.loc 1 245 1 is_stmt 0 view .LVU35
 263 0006 7047     		bx	lr
 264              	.L20:
 265              		.align	2
 266              	.L19:
 267 0008 00040140 		.word	1073808384
 268              		.cfi_endproc
 269              	.LFE76:
 271              		.section	.text.EXTI2_IRQHandler,"ax",%progbits
 272              		.align	1
 273              		.global	EXTI2_IRQHandler
 274              		.syntax unified
 275              		.thumb
 276              		.thumb_func
 278              	EXTI2_IRQHandler:
 279              	.LFB77:
 246:src/stm32f1xx_it.c **** 
 247:src/stm32f1xx_it.c **** void EXTI2_IRQHandler(void)
 248:src/stm32f1xx_it.c **** {
 280              		.loc 1 248 1 is_stmt 1 view -0
 281              		.cfi_startproc
 282              		@ args = 0, pretend = 0, frame = 0
 283              		@ frame_needed = 0, uses_anonymous_args = 0
 284              		@ link register save eliminated.
ARM GAS  /tmp/ccviF6EF.s 			page 10


 249:src/stm32f1xx_it.c ****     __HAL_GPIO_EXTI_CLEAR_IT(GPIO_PIN_2);
 285              		.loc 1 249 5 view .LVU37
 286 0000 014B     		ldr	r3, .L22
 287 0002 0422     		movs	r2, #4
 288 0004 5A61     		str	r2, [r3, #20]
 250:src/stm32f1xx_it.c **** #ifdef SOFTWARE_SERIAL
 251:src/stm32f1xx_it.c ****     if (SOFTWARE_SERIAL_RX_PIN == GPIO_PIN_2)
 289              		.loc 1 251 5 view .LVU38
 252:src/stm32f1xx_it.c ****       softwareserialRXInterrupt();
 253:src/stm32f1xx_it.c **** #endif
 254:src/stm32f1xx_it.c **** }
 290              		.loc 1 254 1 is_stmt 0 view .LVU39
 291 0006 7047     		bx	lr
 292              	.L23:
 293              		.align	2
 294              	.L22:
 295 0008 00040140 		.word	1073808384
 296              		.cfi_endproc
 297              	.LFE77:
 299              		.section	.text.EXTI3_IRQHandler,"ax",%progbits
 300              		.align	1
 301              		.global	EXTI3_IRQHandler
 302              		.syntax unified
 303              		.thumb
 304              		.thumb_func
 306              	EXTI3_IRQHandler:
 307              	.LFB78:
 255:src/stm32f1xx_it.c **** 
 256:src/stm32f1xx_it.c **** void EXTI3_IRQHandler(void)
 257:src/stm32f1xx_it.c **** {
 308              		.loc 1 257 1 is_stmt 1 view -0
 309              		.cfi_startproc
 310              		@ args = 0, pretend = 0, frame = 0
 311              		@ frame_needed = 0, uses_anonymous_args = 0
 312              		@ link register save eliminated.
 258:src/stm32f1xx_it.c **** #ifdef CONTROL_PPM
 259:src/stm32f1xx_it.c ****     PPM_ISR_Callback();
 260:src/stm32f1xx_it.c **** #endif
 261:src/stm32f1xx_it.c ****     __HAL_GPIO_EXTI_CLEAR_IT(GPIO_PIN_3);
 313              		.loc 1 261 5 view .LVU41
 314 0000 014B     		ldr	r3, .L25
 315 0002 0822     		movs	r2, #8
 316 0004 5A61     		str	r2, [r3, #20]
 262:src/stm32f1xx_it.c **** #ifdef SOFTWARE_SERIAL
 263:src/stm32f1xx_it.c ****     if (SOFTWARE_SERIAL_RX_PIN == GPIO_PIN_3)
 317              		.loc 1 263 5 view .LVU42
 264:src/stm32f1xx_it.c ****       softwareserialRXInterrupt();
 265:src/stm32f1xx_it.c **** #endif
 266:src/stm32f1xx_it.c **** }
 318              		.loc 1 266 1 is_stmt 0 view .LVU43
 319 0006 7047     		bx	lr
 320              	.L26:
 321              		.align	2
 322              	.L25:
 323 0008 00040140 		.word	1073808384
 324              		.cfi_endproc
 325              	.LFE78:
ARM GAS  /tmp/ccviF6EF.s 			page 11


 327              		.section	.text.EXTI4_IRQHandler,"ax",%progbits
 328              		.align	1
 329              		.global	EXTI4_IRQHandler
 330              		.syntax unified
 331              		.thumb
 332              		.thumb_func
 334              	EXTI4_IRQHandler:
 335              	.LFB79:
 267:src/stm32f1xx_it.c **** 
 268:src/stm32f1xx_it.c **** void EXTI4_IRQHandler(void)
 269:src/stm32f1xx_it.c **** {
 336              		.loc 1 269 1 is_stmt 1 view -0
 337              		.cfi_startproc
 338              		@ args = 0, pretend = 0, frame = 0
 339              		@ frame_needed = 0, uses_anonymous_args = 0
 340              		@ link register save eliminated.
 270:src/stm32f1xx_it.c ****     __HAL_GPIO_EXTI_CLEAR_IT(GPIO_PIN_4);
 341              		.loc 1 270 5 view .LVU45
 342 0000 014B     		ldr	r3, .L28
 343 0002 1022     		movs	r2, #16
 344 0004 5A61     		str	r2, [r3, #20]
 271:src/stm32f1xx_it.c **** #ifdef SOFTWARE_SERIAL
 272:src/stm32f1xx_it.c ****     if (SOFTWARE_SERIAL_RX_PIN == GPIO_PIN_4)
 345              		.loc 1 272 5 view .LVU46
 273:src/stm32f1xx_it.c ****       softwareserialRXInterrupt();
 274:src/stm32f1xx_it.c **** #endif
 275:src/stm32f1xx_it.c **** }
 346              		.loc 1 275 1 is_stmt 0 view .LVU47
 347 0006 7047     		bx	lr
 348              	.L29:
 349              		.align	2
 350              	.L28:
 351 0008 00040140 		.word	1073808384
 352              		.cfi_endproc
 353              	.LFE79:
 355              		.section	.text.EXTI9_5_IRQHandler,"ax",%progbits
 356              		.align	1
 357              		.global	EXTI9_5_IRQHandler
 358              		.syntax unified
 359              		.thumb
 360              		.thumb_func
 362              	EXTI9_5_IRQHandler:
 363              	.LFB80:
 276:src/stm32f1xx_it.c **** 
 277:src/stm32f1xx_it.c **** /////////////////////////////////////////////////////////////////////
 278:src/stm32f1xx_it.c **** // actual IRQ for LEFT pins 5,6,7
 279:src/stm32f1xx_it.c **** void EXTI9_5_IRQHandler(void)
 280:src/stm32f1xx_it.c **** {
 364              		.loc 1 280 1 is_stmt 1 view -0
 365              		.cfi_startproc
 366              		@ args = 0, pretend = 0, frame = 0
 367              		@ frame_needed = 0, uses_anonymous_args = 0
 368 0000 10B5     		push	{r4, lr}
 369              	.LCFI1:
 370              		.cfi_def_cfa_offset 8
 371              		.cfi_offset 4, -8
 372              		.cfi_offset 14, -4
ARM GAS  /tmp/ccviF6EF.s 			page 12


 281:src/stm32f1xx_it.c ****   uint32_t triggered = 0;
 373              		.loc 1 281 3 view .LVU49
 374              	.LVL2:
 282:src/stm32f1xx_it.c ****   if(__HAL_GPIO_EXTI_GET_IT(GPIO_PIN_9) != RESET)
 375              		.loc 1 282 3 view .LVU50
 376              		.loc 1 282 6 is_stmt 0 view .LVU51
 377 0002 1D4B     		ldr	r3, .L41
 378 0004 5C69     		ldr	r4, [r3, #20]
 379              		.loc 1 282 5 view .LVU52
 380 0006 14F40074 		ands	r4, r4, #512
 381 000a 02D0     		beq	.L31
 283:src/stm32f1xx_it.c ****   {
 284:src/stm32f1xx_it.c ****     /* Clear the EXTI line 8 pending bit */
 285:src/stm32f1xx_it.c ****     __HAL_GPIO_EXTI_CLEAR_IT(GPIO_PIN_9);
 382              		.loc 1 285 5 is_stmt 1 view .LVU53
 383 000c 4FF40074 		mov	r4, #512
 384 0010 5C61     		str	r4, [r3, #20]
 286:src/stm32f1xx_it.c ****     triggered |= GPIO_PIN_9;
 385              		.loc 1 286 5 view .LVU54
 386              	.LVL3:
 387              	.L31:
 287:src/stm32f1xx_it.c ****   }
 288:src/stm32f1xx_it.c **** 
 289:src/stm32f1xx_it.c ****   if(__HAL_GPIO_EXTI_GET_IT(GPIO_PIN_8) != RESET)
 388              		.loc 1 289 3 view .LVU55
 389              		.loc 1 289 6 is_stmt 0 view .LVU56
 390 0012 194B     		ldr	r3, .L41
 391 0014 5B69     		ldr	r3, [r3, #20]
 392              		.loc 1 289 5 view .LVU57
 393 0016 13F4807F 		tst	r3, #256
 394 001a 05D0     		beq	.L32
 290:src/stm32f1xx_it.c ****   {
 291:src/stm32f1xx_it.c ****     /* Clear the EXTI line 9 pending bit */
 292:src/stm32f1xx_it.c ****     __HAL_GPIO_EXTI_CLEAR_IT(GPIO_PIN_8);
 395              		.loc 1 292 5 is_stmt 1 view .LVU58
 396 001c 164B     		ldr	r3, .L41
 397 001e 4FF48072 		mov	r2, #256
 398 0022 5A61     		str	r2, [r3, #20]
 293:src/stm32f1xx_it.c ****     triggered |= GPIO_PIN_9;
 399              		.loc 1 293 5 view .LVU59
 400              		.loc 1 293 15 is_stmt 0 view .LVU60
 401 0024 44F40074 		orr	r4, r4, #512
 402              	.LVL4:
 403              	.L32:
 294:src/stm32f1xx_it.c ****   }
 295:src/stm32f1xx_it.c **** 
 296:src/stm32f1xx_it.c ****   if(__HAL_GPIO_EXTI_GET_IT(GPIO_PIN_7) != RESET)
 404              		.loc 1 296 3 is_stmt 1 view .LVU61
 405              		.loc 1 296 6 is_stmt 0 view .LVU62
 406 0028 134B     		ldr	r3, .L41
 407 002a 5B69     		ldr	r3, [r3, #20]
 408              		.loc 1 296 5 view .LVU63
 409 002c 13F0800F 		tst	r3, #128
 410 0030 03D0     		beq	.L33
 297:src/stm32f1xx_it.c ****   {
 298:src/stm32f1xx_it.c ****     /* Clear the EXTI line 13 pending bit */
 299:src/stm32f1xx_it.c ****     __HAL_GPIO_EXTI_CLEAR_IT(GPIO_PIN_7);
ARM GAS  /tmp/ccviF6EF.s 			page 13


 411              		.loc 1 299 5 is_stmt 1 view .LVU64
 412 0032 114B     		ldr	r3, .L41
 413 0034 8022     		movs	r2, #128
 414 0036 5A61     		str	r2, [r3, #20]
 300:src/stm32f1xx_it.c ****     triggered |= GPIO_PIN_7;
 415              		.loc 1 300 5 view .LVU65
 416              		.loc 1 300 15 is_stmt 0 view .LVU66
 417 0038 1443     		orrs	r4, r4, r2
 418              	.LVL5:
 419              	.L33:
 301:src/stm32f1xx_it.c ****   }
 302:src/stm32f1xx_it.c **** 
 303:src/stm32f1xx_it.c ****   if(__HAL_GPIO_EXTI_GET_IT(GPIO_PIN_6) != RESET)
 420              		.loc 1 303 3 is_stmt 1 view .LVU67
 421              		.loc 1 303 6 is_stmt 0 view .LVU68
 422 003a 0F4B     		ldr	r3, .L41
 423 003c 5B69     		ldr	r3, [r3, #20]
 424              		.loc 1 303 5 view .LVU69
 425 003e 13F0400F 		tst	r3, #64
 426 0042 03D0     		beq	.L34
 304:src/stm32f1xx_it.c ****   {
 305:src/stm32f1xx_it.c ****     /* Clear the EXTI line 13 pending bit */
 306:src/stm32f1xx_it.c ****     __HAL_GPIO_EXTI_CLEAR_IT(GPIO_PIN_6);
 427              		.loc 1 306 5 is_stmt 1 view .LVU70
 428 0044 0C4B     		ldr	r3, .L41
 429 0046 4022     		movs	r2, #64
 430 0048 5A61     		str	r2, [r3, #20]
 307:src/stm32f1xx_it.c ****     triggered |= GPIO_PIN_6;
 431              		.loc 1 307 5 view .LVU71
 432              		.loc 1 307 15 is_stmt 0 view .LVU72
 433 004a 1443     		orrs	r4, r4, r2
 434              	.LVL6:
 435              	.L34:
 308:src/stm32f1xx_it.c ****   }
 309:src/stm32f1xx_it.c ****   if(__HAL_GPIO_EXTI_GET_IT(GPIO_PIN_5) != RESET)
 436              		.loc 1 309 3 is_stmt 1 view .LVU73
 437              		.loc 1 309 6 is_stmt 0 view .LVU74
 438 004c 0A4B     		ldr	r3, .L41
 439 004e 5B69     		ldr	r3, [r3, #20]
 440              		.loc 1 309 5 view .LVU75
 441 0050 13F0200F 		tst	r3, #32
 442 0054 03D0     		beq	.L35
 310:src/stm32f1xx_it.c ****   {
 311:src/stm32f1xx_it.c ****     /* Clear the EXTI line 13 pending bit */
 312:src/stm32f1xx_it.c ****     __HAL_GPIO_EXTI_CLEAR_IT(GPIO_PIN_5);
 443              		.loc 1 312 5 is_stmt 1 view .LVU76
 444 0056 084B     		ldr	r3, .L41
 445 0058 2022     		movs	r2, #32
 446 005a 5A61     		str	r2, [r3, #20]
 313:src/stm32f1xx_it.c ****     triggered |= GPIO_PIN_5;
 447              		.loc 1 313 5 view .LVU77
 448              		.loc 1 313 15 is_stmt 0 view .LVU78
 449 005c 1443     		orrs	r4, r4, r2
 450              	.LVL7:
 451              	.L35:
 314:src/stm32f1xx_it.c ****   }
 315:src/stm32f1xx_it.c **** 
ARM GAS  /tmp/ccviF6EF.s 			page 14


 316:src/stm32f1xx_it.c ****   if (triggered & HALL_PIN_MASK)
 452              		.loc 1 316 3 is_stmt 1 view .LVU79
 453              		.loc 1 316 6 is_stmt 0 view .LVU80
 454 005e 14F4E75F 		tst	r4, #7392
 455 0062 03D1     		bne	.L39
 456              	.L36:
 317:src/stm32f1xx_it.c ****     HallInterruptsInterrupt();
 318:src/stm32f1xx_it.c **** 
 319:src/stm32f1xx_it.c **** // shared interrupt for these pins, depending on where the sfotware serial pin is
 320:src/stm32f1xx_it.c **** #ifdef SOFTWARE_SERIAL
 321:src/stm32f1xx_it.c ****   if (triggered & SOFTWARE_SERIAL_RX_PIN){
 457              		.loc 1 321 3 is_stmt 1 view .LVU81
 458              		.loc 1 321 6 is_stmt 0 view .LVU82
 459 0064 14F4804F 		tst	r4, #16384
 460 0068 03D1     		bne	.L40
 461              	.L30:
 322:src/stm32f1xx_it.c ****       softwareserialRXInterrupt();
 323:src/stm32f1xx_it.c ****   }
 324:src/stm32f1xx_it.c **** #endif
 325:src/stm32f1xx_it.c **** }
 462              		.loc 1 325 1 view .LVU83
 463 006a 10BD     		pop	{r4, pc}
 464              	.LVL8:
 465              	.L39:
 317:src/stm32f1xx_it.c ****     HallInterruptsInterrupt();
 466              		.loc 1 317 5 is_stmt 1 view .LVU84
 467 006c FFF7FEFF 		bl	HallInterruptsInterrupt
 468              	.LVL9:
 469 0070 F8E7     		b	.L36
 470              	.L40:
 322:src/stm32f1xx_it.c ****       softwareserialRXInterrupt();
 471              		.loc 1 322 7 view .LVU85
 472 0072 FFF7FEFF 		bl	softwareserialRXInterrupt
 473              	.LVL10:
 474              		.loc 1 325 1 is_stmt 0 view .LVU86
 475 0076 F8E7     		b	.L30
 476              	.L42:
 477              		.align	2
 478              	.L41:
 479 0078 00040140 		.word	1073808384
 480              		.cfi_endproc
 481              	.LFE80:
 483              		.section	.text.EXTI15_10_IRQHandler,"ax",%progbits
 484              		.align	1
 485              		.global	EXTI15_10_IRQHandler
 486              		.syntax unified
 487              		.thumb
 488              		.thumb_func
 490              	EXTI15_10_IRQHandler:
 491              	.LFB81:
 326:src/stm32f1xx_it.c **** 
 327:src/stm32f1xx_it.c **** /////////////////////////////////////////////////////////////////////
 328:src/stm32f1xx_it.c **** // actual IRQ for RIGHT pins 10, 11, 12
 329:src/stm32f1xx_it.c **** void EXTI15_10_IRQHandler(void)
 330:src/stm32f1xx_it.c **** {
 492              		.loc 1 330 1 is_stmt 1 view -0
 493              		.cfi_startproc
ARM GAS  /tmp/ccviF6EF.s 			page 15


 494              		@ args = 0, pretend = 0, frame = 0
 495              		@ frame_needed = 0, uses_anonymous_args = 0
 496 0000 10B5     		push	{r4, lr}
 497              	.LCFI2:
 498              		.cfi_def_cfa_offset 8
 499              		.cfi_offset 4, -8
 500              		.cfi_offset 14, -4
 331:src/stm32f1xx_it.c ****   uint32_t triggered = 0;
 501              		.loc 1 331 3 view .LVU88
 502              	.LVL11:
 332:src/stm32f1xx_it.c ****   if(__HAL_GPIO_EXTI_GET_IT(GPIO_PIN_15) != RESET)
 503              		.loc 1 332 3 view .LVU89
 504              		.loc 1 332 6 is_stmt 0 view .LVU90
 505 0002 234B     		ldr	r3, .L55
 506 0004 5C69     		ldr	r4, [r3, #20]
 507              		.loc 1 332 5 view .LVU91
 508 0006 14F40044 		ands	r4, r4, #32768
 509 000a 02D0     		beq	.L44
 333:src/stm32f1xx_it.c ****   {
 334:src/stm32f1xx_it.c ****     /* Clear the EXTI line 8 pending bit */
 335:src/stm32f1xx_it.c ****     __HAL_GPIO_EXTI_CLEAR_IT(GPIO_PIN_15);
 510              		.loc 1 335 5 is_stmt 1 view .LVU92
 511 000c 4FF40044 		mov	r4, #32768
 512 0010 5C61     		str	r4, [r3, #20]
 336:src/stm32f1xx_it.c ****     triggered |= GPIO_PIN_15;
 513              		.loc 1 336 5 view .LVU93
 514              	.LVL12:
 515              	.L44:
 337:src/stm32f1xx_it.c ****   }
 338:src/stm32f1xx_it.c **** 
 339:src/stm32f1xx_it.c ****   if(__HAL_GPIO_EXTI_GET_IT(GPIO_PIN_14) != RESET)
 516              		.loc 1 339 3 view .LVU94
 517              		.loc 1 339 6 is_stmt 0 view .LVU95
 518 0012 1F4B     		ldr	r3, .L55
 519 0014 5B69     		ldr	r3, [r3, #20]
 520              		.loc 1 339 5 view .LVU96
 521 0016 13F4804F 		tst	r3, #16384
 522 001a 04D0     		beq	.L45
 340:src/stm32f1xx_it.c ****   {
 341:src/stm32f1xx_it.c ****     /* Clear the EXTI line 9 pending bit */
 342:src/stm32f1xx_it.c ****     __HAL_GPIO_EXTI_CLEAR_IT(GPIO_PIN_14);
 523              		.loc 1 342 5 is_stmt 1 view .LVU97
 524 001c 1C4B     		ldr	r3, .L55
 525 001e 4FF48042 		mov	r2, #16384
 526 0022 5A61     		str	r2, [r3, #20]
 343:src/stm32f1xx_it.c ****     triggered |= GPIO_PIN_14;
 527              		.loc 1 343 5 view .LVU98
 528              		.loc 1 343 15 is_stmt 0 view .LVU99
 529 0024 1443     		orrs	r4, r4, r2
 530              	.LVL13:
 531              	.L45:
 344:src/stm32f1xx_it.c ****   }
 345:src/stm32f1xx_it.c **** 
 346:src/stm32f1xx_it.c ****   if(__HAL_GPIO_EXTI_GET_IT(GPIO_PIN_13) != RESET)
 532              		.loc 1 346 3 is_stmt 1 view .LVU100
 533              		.loc 1 346 6 is_stmt 0 view .LVU101
 534 0026 1A4B     		ldr	r3, .L55
ARM GAS  /tmp/ccviF6EF.s 			page 16


 535 0028 5B69     		ldr	r3, [r3, #20]
 536              		.loc 1 346 5 view .LVU102
 537 002a 13F4005F 		tst	r3, #8192
 538 002e 04D0     		beq	.L46
 347:src/stm32f1xx_it.c ****   {
 348:src/stm32f1xx_it.c ****     /* Clear the EXTI line 13 pending bit */
 349:src/stm32f1xx_it.c ****     __HAL_GPIO_EXTI_CLEAR_IT(GPIO_PIN_13);
 539              		.loc 1 349 5 is_stmt 1 view .LVU103
 540 0030 174B     		ldr	r3, .L55
 541 0032 4FF40052 		mov	r2, #8192
 542 0036 5A61     		str	r2, [r3, #20]
 350:src/stm32f1xx_it.c ****     triggered |= GPIO_PIN_13;
 543              		.loc 1 350 5 view .LVU104
 544              		.loc 1 350 15 is_stmt 0 view .LVU105
 545 0038 1443     		orrs	r4, r4, r2
 546              	.LVL14:
 547              	.L46:
 351:src/stm32f1xx_it.c ****   }
 352:src/stm32f1xx_it.c ****   if(__HAL_GPIO_EXTI_GET_IT(GPIO_PIN_12) != RESET)
 548              		.loc 1 352 3 is_stmt 1 view .LVU106
 549              		.loc 1 352 6 is_stmt 0 view .LVU107
 550 003a 154B     		ldr	r3, .L55
 551 003c 5B69     		ldr	r3, [r3, #20]
 552              		.loc 1 352 5 view .LVU108
 553 003e 13F4805F 		tst	r3, #4096
 554 0042 04D0     		beq	.L47
 353:src/stm32f1xx_it.c ****   {
 354:src/stm32f1xx_it.c ****     /* Clear the EXTI line 13 pending bit */
 355:src/stm32f1xx_it.c ****     __HAL_GPIO_EXTI_CLEAR_IT(GPIO_PIN_12);
 555              		.loc 1 355 5 is_stmt 1 view .LVU109
 556 0044 124B     		ldr	r3, .L55
 557 0046 4FF48052 		mov	r2, #4096
 558 004a 5A61     		str	r2, [r3, #20]
 356:src/stm32f1xx_it.c ****     triggered |= GPIO_PIN_12;
 559              		.loc 1 356 5 view .LVU110
 560              		.loc 1 356 15 is_stmt 0 view .LVU111
 561 004c 1443     		orrs	r4, r4, r2
 562              	.LVL15:
 563              	.L47:
 357:src/stm32f1xx_it.c ****   }
 358:src/stm32f1xx_it.c ****   if(__HAL_GPIO_EXTI_GET_IT(GPIO_PIN_11) != RESET)
 564              		.loc 1 358 3 is_stmt 1 view .LVU112
 565              		.loc 1 358 6 is_stmt 0 view .LVU113
 566 004e 104B     		ldr	r3, .L55
 567 0050 5B69     		ldr	r3, [r3, #20]
 568              		.loc 1 358 5 view .LVU114
 569 0052 13F4006F 		tst	r3, #2048
 570 0056 04D0     		beq	.L48
 359:src/stm32f1xx_it.c ****   {
 360:src/stm32f1xx_it.c ****     /* Clear the EXTI line 13 pending bit */
 361:src/stm32f1xx_it.c ****     __HAL_GPIO_EXTI_CLEAR_IT(GPIO_PIN_11);
 571              		.loc 1 361 5 is_stmt 1 view .LVU115
 572 0058 0D4B     		ldr	r3, .L55
 573 005a 4FF40062 		mov	r2, #2048
 574 005e 5A61     		str	r2, [r3, #20]
 362:src/stm32f1xx_it.c ****     triggered |= GPIO_PIN_11;
 575              		.loc 1 362 5 view .LVU116
ARM GAS  /tmp/ccviF6EF.s 			page 17


 576              		.loc 1 362 15 is_stmt 0 view .LVU117
 577 0060 1443     		orrs	r4, r4, r2
 578              	.LVL16:
 579              	.L48:
 363:src/stm32f1xx_it.c ****   }
 364:src/stm32f1xx_it.c ****   if(__HAL_GPIO_EXTI_GET_IT(GPIO_PIN_10) != RESET)
 580              		.loc 1 364 3 is_stmt 1 view .LVU118
 581              		.loc 1 364 6 is_stmt 0 view .LVU119
 582 0062 0B4B     		ldr	r3, .L55
 583 0064 5B69     		ldr	r3, [r3, #20]
 584              		.loc 1 364 5 view .LVU120
 585 0066 13F4806F 		tst	r3, #1024
 586 006a 04D0     		beq	.L49
 365:src/stm32f1xx_it.c ****   {
 366:src/stm32f1xx_it.c ****     /* Clear the EXTI line 13 pending bit */
 367:src/stm32f1xx_it.c ****     __HAL_GPIO_EXTI_CLEAR_IT(GPIO_PIN_10);
 587              		.loc 1 367 5 is_stmt 1 view .LVU121
 588 006c 084B     		ldr	r3, .L55
 589 006e 4FF48062 		mov	r2, #1024
 590 0072 5A61     		str	r2, [r3, #20]
 368:src/stm32f1xx_it.c ****     triggered |= GPIO_PIN_10;
 591              		.loc 1 368 5 view .LVU122
 592              		.loc 1 368 15 is_stmt 0 view .LVU123
 593 0074 1443     		orrs	r4, r4, r2
 594              	.LVL17:
 595              	.L49:
 369:src/stm32f1xx_it.c ****   }
 370:src/stm32f1xx_it.c **** 
 371:src/stm32f1xx_it.c ****   if (triggered & HALL_PIN_MASK)
 596              		.loc 1 371 3 is_stmt 1 view .LVU124
 597              		.loc 1 371 6 is_stmt 0 view .LVU125
 598 0076 14F4E75F 		tst	r4, #7392
 599 007a 03D1     		bne	.L53
 600              	.L50:
 372:src/stm32f1xx_it.c ****     HallInterruptsInterrupt();
 373:src/stm32f1xx_it.c **** 
 374:src/stm32f1xx_it.c **** // shared interrupt for these pins, depending on where the sfotware serial pin is
 375:src/stm32f1xx_it.c **** #ifdef SOFTWARE_SERIAL
 376:src/stm32f1xx_it.c ****   if (triggered & SOFTWARE_SERIAL_RX_PIN){
 601              		.loc 1 376 3 is_stmt 1 view .LVU126
 602              		.loc 1 376 6 is_stmt 0 view .LVU127
 603 007c 14F4804F 		tst	r4, #16384
 604 0080 03D1     		bne	.L54
 605              	.L43:
 377:src/stm32f1xx_it.c ****       softwareserialRXInterrupt();
 378:src/stm32f1xx_it.c ****   }
 379:src/stm32f1xx_it.c **** #endif
 380:src/stm32f1xx_it.c **** 
 381:src/stm32f1xx_it.c **** }
 606              		.loc 1 381 1 view .LVU128
 607 0082 10BD     		pop	{r4, pc}
 608              	.LVL18:
 609              	.L53:
 372:src/stm32f1xx_it.c ****     HallInterruptsInterrupt();
 610              		.loc 1 372 5 is_stmt 1 view .LVU129
 611 0084 FFF7FEFF 		bl	HallInterruptsInterrupt
 612              	.LVL19:
ARM GAS  /tmp/ccviF6EF.s 			page 18


 613 0088 F8E7     		b	.L50
 614              	.L54:
 377:src/stm32f1xx_it.c ****       softwareserialRXInterrupt();
 615              		.loc 1 377 7 view .LVU130
 616 008a FFF7FEFF 		bl	softwareserialRXInterrupt
 617              	.LVL20:
 618              		.loc 1 381 1 is_stmt 0 view .LVU131
 619 008e F8E7     		b	.L43
 620              	.L56:
 621              		.align	2
 622              	.L55:
 623 0090 00040140 		.word	1073808384
 624              		.cfi_endproc
 625              	.LFE81:
 627              		.text
 628              	.Letext0:
 629              		.file 2 "/usr/lib/gcc/arm-none-eabi/13.2.1/include/stdint.h"
 630              		.file 3 "Drivers/CMSIS/Device/ST/STM32F1xx/Include/stm32f103xe.h"
 631              		.file 4 "inc/softwareserial.h"
 632              		.file 5 "inc/hallinterrupts.h"
 633              		.file 6 "Drivers/STM32F1xx_HAL_Driver/Inc/stm32f1xx_hal_cortex.h"
 634              		.file 7 "Drivers/STM32F1xx_HAL_Driver/Inc/stm32f1xx_hal.h"
 635              		.file 8 "Drivers/CMSIS/Device/ST/STM32F1xx/Include/stm32f1xx.h"
ARM GAS  /tmp/ccviF6EF.s 			page 19

